
bomb:     file format elf32-i386


Disassembly of section .interp:

08048134 <.interp>:
 8048134:	2f                   	das    
 8048135:	6c                   	insb   (%dx),%es:(%edi)
 8048136:	69 62 2f 6c 64 2d 6c 	imul   $0x6c2d646c,0x2f(%edx),%esp
 804813d:	69 6e 75 78 2e 73 6f 	imul   $0x6f732e78,0x75(%esi),%ebp
 8048144:	2e 32 00             	xor    %cs:(%eax),%al

Disassembly of section .note.ABI-tag:

08048148 <.note.ABI-tag>:
 8048148:	04 00                	add    $0x0,%al
 804814a:	00 00                	add    %al,(%eax)
 804814c:	10 00                	adc    %al,(%eax)
 804814e:	00 00                	add    %al,(%eax)
 8048150:	01 00                	add    %eax,(%eax)
 8048152:	00 00                	add    %al,(%eax)
 8048154:	47                   	inc    %edi
 8048155:	4e                   	dec    %esi
 8048156:	55                   	push   %ebp
 8048157:	00 00                	add    %al,(%eax)
 8048159:	00 00                	add    %al,(%eax)
 804815b:	00 02                	add    %al,(%edx)
 804815d:	00 00                	add    %al,(%eax)
 804815f:	00 06                	add    %al,(%esi)
 8048161:	00 00                	add    %al,(%eax)
 8048163:	00 08                	add    %cl,(%eax)
 8048165:	00 00                	add    %al,(%eax)
	...

Disassembly of section .hash:

08048168 <.hash>:
 8048168:	11 00                	adc    %eax,(%eax)
 804816a:	00 00                	add    %al,(%eax)
 804816c:	25 00 00 00 1e       	and    $0x1e000000,%eax
 8048171:	00 00                	add    %al,(%eax)
 8048173:	00 00                	add    %al,(%eax)
 8048175:	00 00                	add    %al,(%eax)
 8048177:	00 1d 00 00 00 18    	add    %bl,0x18000000
 804817d:	00 00                	add    %al,(%eax)
 804817f:	00 21                	add    %ah,(%ecx)
 8048181:	00 00                	add    %al,(%eax)
 8048183:	00 1f                	add    %bl,(%edi)
 8048185:	00 00                	add    %al,(%eax)
 8048187:	00 23                	add    %ah,(%ebx)
 8048189:	00 00                	add    %al,(%eax)
 804818b:	00 22                	add    %ah,(%edx)
 804818d:	00 00                	add    %al,(%eax)
 804818f:	00 07                	add    %al,(%edi)
 8048191:	00 00                	add    %al,(%eax)
 8048193:	00 00                	add    %al,(%eax)
 8048195:	00 00                	add    %al,(%eax)
 8048197:	00 19                	add    %bl,(%ecx)
 8048199:	00 00                	add    %al,(%eax)
 804819b:	00 20                	add    %ah,(%eax)
 804819d:	00 00                	add    %al,(%eax)
 804819f:	00 16                	add    %dl,(%esi)
 80481a1:	00 00                	add    %al,(%eax)
 80481a3:	00 24 00             	add    %ah,(%eax,%eax,1)
 80481a6:	00 00                	add    %al,(%eax)
 80481a8:	1a 00                	sbb    (%eax),%al
 80481aa:	00 00                	add    %al,(%eax)
 80481ac:	1b 00                	sbb    (%eax),%eax
	...
 80481c2:	00 00                	add    %al,(%eax)
 80481c4:	03 00                	add    (%eax),%eax
	...
 80481ce:	00 00                	add    %al,(%eax)
 80481d0:	04 00                	add    $0x0,%al
 80481d2:	00 00                	add    %al,(%eax)
 80481d4:	05 00 00 00 02       	add    $0x2000000,%eax
 80481d9:	00 00                	add    %al,(%eax)
 80481db:	00 06                	add    %al,(%esi)
 80481dd:	00 00                	add    %al,(%eax)
 80481df:	00 00                	add    %al,(%eax)
 80481e1:	00 00                	add    %al,(%eax)
 80481e3:	00 01                	add    %al,(%ecx)
 80481e5:	00 00                	add    %al,(%eax)
 80481e7:	00 00                	add    %al,(%eax)
 80481e9:	00 00                	add    %al,(%eax)
 80481eb:	00 08                	add    %cl,(%eax)
 80481ed:	00 00                	add    %al,(%eax)
 80481ef:	00 0e                	add    %cl,(%esi)
	...
 80481fd:	00 00                	add    %al,(%eax)
 80481ff:	00 0c 00             	add    %cl,(%eax,%eax,1)
 8048202:	00 00                	add    %al,(%eax)
 8048204:	09 00                	or     %eax,(%eax)
 8048206:	00 00                	add    %al,(%eax)
 8048208:	14 00                	adc    $0x0,%al
 804820a:	00 00                	add    %al,(%eax)
 804820c:	00 00                	add    %al,(%eax)
 804820e:	00 00                	add    %al,(%eax)
 8048210:	15 00 00 00 12       	adc    $0x12000000,%eax
 8048215:	00 00                	add    %al,(%eax)
 8048217:	00 17                	add    %dl,(%edi)
 8048219:	00 00                	add    %al,(%eax)
 804821b:	00 0a                	add    %cl,(%edx)
 804821d:	00 00                	add    %al,(%eax)
 804821f:	00 0f                	add    %cl,(%edi)
 8048221:	00 00                	add    %al,(%eax)
 8048223:	00 00                	add    %al,(%eax)
 8048225:	00 00                	add    %al,(%eax)
 8048227:	00 10                	add    %dl,(%eax)
 8048229:	00 00                	add    %al,(%eax)
 804822b:	00 13                	add    %dl,(%ebx)
 804822d:	00 00                	add    %al,(%eax)
 804822f:	00 1c 00             	add    %bl,(%eax,%eax,1)
	...
 804823a:	00 00                	add    %al,(%eax)
 804823c:	0b 00                	or     (%eax),%eax
 804823e:	00 00                	add    %al,(%eax)
 8048240:	11 00                	adc    %eax,(%eax)
 8048242:	00 00                	add    %al,(%eax)
 8048244:	0d                   	.byte 0xd
 8048245:	00 00                	add    %al,(%eax)
	...

Disassembly of section .dynsym:

08048248 <.dynsym>:
	...
 8048258:	92                   	xchg   %eax,%edx
 8048259:	00 00                	add    %al,(%eax)
 804825b:	00 00                	add    %al,(%eax)
 804825d:	00 00                	add    %al,(%eax)
 804825f:	00 1d 00 00 00 12    	add    %bl,0x12000000
 8048265:	00 00                	add    %al,(%eax)
 8048267:	00 4b 00             	add    %cl,0x0(%ebx)
 804826a:	00 00                	add    %al,(%eax)
 804826c:	00 00                	add    %al,(%eax)
 804826e:	00 00                	add    %al,(%eax)
 8048270:	31 00                	xor    %eax,(%eax)
 8048272:	00 00                	add    %al,(%eax)
 8048274:	12 00                	adc    (%eax),%al
 8048276:	00 00                	add    %al,(%eax)
 8048278:	59                   	pop    %ecx
 8048279:	00 00                	add    %al,(%eax)
 804827b:	00 00                	add    %al,(%eax)
 804827d:	00 00                	add    %al,(%eax)
 804827f:	00 6c 00 00          	add    %ch,0x0(%eax,%eax,1)
 8048283:	00 12                	add    %dl,(%edx)
 8048285:	00 00                	add    %al,(%eax)
 8048287:	00 61 00             	add    %ah,0x0(%ecx)
 804828a:	00 00                	add    %al,(%eax)
 804828c:	00 00                	add    %al,(%eax)
 804828e:	00 00                	add    %al,(%eax)
 8048290:	de 00                	fiadd  (%eax)
 8048292:	00 00                	add    %al,(%eax)
 8048294:	12 00                	adc    (%eax),%al
 8048296:	00 00                	add    %al,(%eax)
 8048298:	01 00                	add    %eax,(%eax)
	...
 80482a2:	00 00                	add    %al,(%eax)
 80482a4:	20 00                	and    %al,(%eax)
 80482a6:	00 00                	add    %al,(%eax)
 80482a8:	7d 00                	jge    80482aa <_init-0x4d6>
 80482aa:	00 00                	add    %al,(%eax)
 80482ac:	00 00                	add    %al,(%eax)
 80482ae:	00 00                	add    %al,(%eax)
 80482b0:	fa                   	cli    
 80482b1:	00 00                	add    %al,(%eax)
 80482b3:	00 12                	add    %dl,(%edx)
 80482b5:	00 00                	add    %al,(%eax)
 80482b7:	00 be 00 00 00 00    	add    %bh,0x0(%esi)
 80482bd:	00 00                	add    %al,(%eax)
 80482bf:	00 f5                	add    %dh,%ch
 80482c1:	00 00                	add    %al,(%eax)
 80482c3:	00 12                	add    %dl,(%edx)
 80482c5:	00 00                	add    %al,(%eax)
 80482c7:	00 da                	add    %bl,%dl
 80482c9:	00 00                	add    %al,(%eax)
 80482cb:	00 00                	add    %al,(%eax)
 80482cd:	00 00                	add    %al,(%eax)
 80482cf:	00 5c 00 00          	add    %bl,0x0(%eax,%eax,1)
 80482d3:	00 12                	add    %dl,(%edx)
 80482d5:	00 00                	add    %al,(%eax)
 80482d7:	00 f4                	add    %dh,%ah
 80482d9:	00 00                	add    %al,(%eax)
 80482db:	00 00                	add    %al,(%eax)
 80482dd:	00 00                	add    %al,(%eax)
 80482df:	00 70 00             	add    %dh,0x0(%eax)
 80482e2:	00 00                	add    %al,(%eax)
 80482e4:	12 00                	adc    (%eax),%al
 80482e6:	00 00                	add    %al,(%eax)
 80482e8:	84 00                	test   %al,(%eax)
 80482ea:	00 00                	add    %al,(%eax)
 80482ec:	00 00                	add    %al,(%eax)
 80482ee:	00 00                	add    %al,(%eax)
 80482f0:	59                   	pop    %ecx
 80482f1:	01 00                	add    %eax,(%eax)
 80482f3:	00 12                	add    %dl,(%edx)
 80482f5:	00 00                	add    %al,(%eax)
 80482f7:	00 0e                	add    %cl,(%esi)
 80482f9:	01 00                	add    %eax,(%eax)
 80482fb:	00 00                	add    %al,(%eax)
 80482fd:	00 00                	add    %al,(%eax)
 80482ff:	00 b2 01 00 00 12    	add    %dh,0x12000001(%edx)
 8048305:	00 00                	add    %al,(%eax)
 8048307:	00 8a 00 00 00 00    	add    %cl,0x0(%edx)
 804830d:	00 00                	add    %al,(%eax)
 804830f:	00 a2 00 00 00 12    	add    %ah,0x12000000(%edx)
 8048315:	00 00                	add    %al,(%eax)
 8048317:	00 1a                	add    %bl,(%edx)
 8048319:	00 00                	add    %al,(%eax)
 804831b:	00 e4                	add    %ah,%ah
 804831d:	99                   	cltd   
 804831e:	04 08                	add    $0x8,%al
 8048320:	04 00                	add    $0x0,%al
 8048322:	00 00                	add    %al,(%eax)
 8048324:	11 00                	adc    %eax,(%eax)
 8048326:	0e                   	push   %cs
 8048327:	00 73 00             	add    %dh,0x0(%ebx)
 804832a:	00 00                	add    %al,(%eax)
 804832c:	00 00                	add    %al,(%eax)
 804832e:	00 00                	add    %al,(%eax)
 8048330:	c3                   	ret    
 8048331:	03 00                	add    (%eax),%eax
 8048333:	00 12                	add    %dl,(%edx)
 8048335:	00 00                	add    %al,(%eax)
 8048337:	00 38                	add    %bh,(%eax)
 8048339:	00 00                	add    %al,(%eax)
 804833b:	00 00                	add    %al,(%eax)
 804833d:	00 00                	add    %al,(%eax)
 804833f:	00 f9                	add    %bh,%cl
 8048341:	00 00                	add    %al,(%eax)
 8048343:	00 12                	add    %dl,(%edx)
 8048345:	00 00                	add    %al,(%eax)
 8048347:	00 29                	add    %ch,(%ecx)
 8048349:	00 00                	add    %al,(%eax)
 804834b:	00 00                	add    %al,(%eax)
 804834d:	00 00                	add    %al,(%eax)
 804834f:	00 37                	add    %dh,(%edi)
 8048351:	00 00                	add    %al,(%eax)
 8048353:	00 12                	add    %dl,(%edx)
 8048355:	00 00                	add    %al,(%eax)
 8048357:	00 c5                	add    %al,%ch
 8048359:	00 00                	add    %al,(%eax)
 804835b:	00 00                	add    %al,(%eax)
 804835d:	00 00                	add    %al,(%eax)
 804835f:	00 3c 00             	add    %bh,(%eax,%eax,1)
 8048362:	00 00                	add    %al,(%eax)
 8048364:	12 00                	adc    (%eax),%al
 8048366:	00 00                	add    %al,(%eax)
 8048368:	b0 00                	mov    $0x0,%al
 804836a:	00 00                	add    %al,(%eax)
 804836c:	00 00                	add    %al,(%eax)
 804836e:	00 00                	add    %al,(%eax)
 8048370:	fb                   	sti    
 8048371:	01 00                	add    %eax,(%eax)
 8048373:	00 12                	add    %dl,(%edx)
 8048375:	00 00                	add    %al,(%eax)
 8048377:	00 fa                	add    %bh,%dl
 8048379:	00 00                	add    %al,(%eax)
 804837b:	00 00                	add    %al,(%eax)
 804837d:	00 00                	add    %al,(%eax)
 804837f:	00 9b 00 00 00 12    	add    %bl,0x12000000(%ebx)
 8048385:	00 00                	add    %al,(%eax)
 8048387:	00 ef                	add    %ch,%bh
 8048389:	00 00                	add    %al,(%eax)
 804838b:	00 00                	add    %al,(%eax)
 804838d:	00 00                	add    %al,(%eax)
 804838f:	00 34 00             	add    %dh,(%eax,%eax,1)
 8048392:	00 00                	add    %al,(%eax)
 8048394:	12 00                	adc    (%eax),%al
 8048396:	00 00                	add    %al,(%eax)
 8048398:	53                   	push   %ebx
 8048399:	00 00                	add    %al,(%eax)
 804839b:	00 00                	add    %al,(%eax)
 804839d:	00 00                	add    %al,(%eax)
 804839f:	00 32                	add    %dh,(%edx)
 80483a1:	00 00                	add    %al,(%eax)
 80483a3:	00 12                	add    %dl,(%edx)
 80483a5:	00 00                	add    %al,(%eax)
 80483a7:	00 3f                	add    %bh,(%edi)
 80483a9:	00 00                	add    %al,(%eax)
 80483ab:	00 00                	add    %al,(%eax)
 80483ad:	00 00                	add    %al,(%eax)
 80483af:	00 25 00 00 00 12    	add    %ah,0x12000000
 80483b5:	00 00                	add    %al,(%eax)
 80483b7:	00 01                	add    %al,(%ecx)
 80483b9:	01 00                	add    %eax,(%eax)
 80483bb:	00 00                	add    %al,(%eax)
 80483bd:	00 00                	add    %al,(%eax)
 80483bf:	00 36                	add    %dh,(%esi)
 80483c1:	00 00                	add    %al,(%eax)
 80483c3:	00 12                	add    %dl,(%edx)
 80483c5:	00 00                	add    %al,(%eax)
 80483c7:	00 b1 00 00 00 00    	add    %dh,0x0(%ecx)
 80483cd:	00 00                	add    %al,(%eax)
 80483cf:	00 65 00             	add    %ah,0x0(%ebp)
 80483d2:	00 00                	add    %al,(%eax)
 80483d4:	12 00                	adc    (%eax),%al
 80483d6:	00 00                	add    %al,(%eax)
 80483d8:	f3 00 00             	repz add %al,(%eax)
 80483db:	00 00                	add    %al,(%eax)
 80483dd:	00 00                	add    %al,(%eax)
 80483df:	00 61 01             	add    %ah,0x1(%ecx)
 80483e2:	00 00                	add    %al,(%eax)
 80483e4:	12 00                	adc    (%eax),%al
 80483e6:	00 00                	add    %al,(%eax)
 80483e8:	00 01                	add    %al,(%ecx)
 80483ea:	00 00                	add    %al,(%eax)
 80483ec:	00 00                	add    %al,(%eax)
 80483ee:	00 00                	add    %al,(%eax)
 80483f0:	21 00                	and    %eax,(%eax)
 80483f2:	00 00                	add    %al,(%eax)
 80483f4:	12 00                	adc    (%eax),%al
 80483f6:	00 00                	add    %al,(%eax)
 80483f8:	30 00                	xor    %al,(%eax)
 80483fa:	00 00                	add    %al,(%eax)
 80483fc:	00 00                	add    %al,(%eax)
 80483fe:	00 00                	add    %al,(%eax)
 8048400:	93                   	xchg   %eax,%ebx
 8048401:	00 00                	add    %al,(%eax)
 8048403:	00 12                	add    %dl,(%edx)
 8048405:	00 00                	add    %al,(%eax)
 8048407:	00 aa 00 00 00 00    	add    %ch,0x0(%edx)
 804840d:	00 00                	add    %al,(%eax)
 804840f:	00 fa                	add    %bh,%dl
 8048411:	00 00                	add    %al,(%eax)
 8048413:	00 12                	add    %dl,(%edx)
 8048415:	00 00                	add    %al,(%eax)
 8048417:	00 6d 00             	add    %ch,0x0(%ebp)
 804841a:	00 00                	add    %al,(%eax)
 804841c:	c0 a5 04 08 04 00 00 	shlb   $0x0,0x40804(%ebp)
 8048423:	00 11                	add    %dl,(%ecx)
 8048425:	00 18                	add    %bl,(%eax)
 8048427:	00 08                	add    %cl,(%eax)
 8048429:	01 00                	add    %eax,(%eax)
 804842b:	00 00                	add    %al,(%eax)
 804842d:	00 00                	add    %al,(%eax)
 804842f:	00 59 02             	add    %bl,0x2(%ecx)
 8048432:	00 00                	add    %al,(%eax)
 8048434:	12 00                	adc    (%eax),%al
 8048436:	00 00                	add    %al,(%eax)
 8048438:	b7 00                	mov    $0x0,%bh
 804843a:	00 00                	add    %al,(%eax)
 804843c:	00 00                	add    %al,(%eax)
 804843e:	00 00                	add    %al,(%eax)
 8048440:	aa                   	stos   %al,%es:(%edi)
 8048441:	01 00                	add    %eax,(%eax)
 8048443:	00 12                	add    %dl,(%edx)
 8048445:	00 00                	add    %al,(%eax)
 8048447:	00 a3 00 00 00 e0    	add    %ah,-0x20000000(%ebx)
 804844d:	a5                   	movsl  %ds:(%esi),%es:(%edi)
 804844e:	04 08                	add    $0x8,%al
 8048450:	04 00                	add    $0x0,%al
 8048452:	00 00                	add    %al,(%eax)
 8048454:	11 00                	adc    %eax,(%eax)
 8048456:	18 00                	sbb    %al,(%eax)
 8048458:	68 00 00 00 00       	push   $0x0
 804845d:	00 00                	add    %al,(%eax)
 804845f:	00 b4 01 00 00 12 00 	add    %dh,0x120000(%ecx,%eax,1)
 8048466:	00 00                	add    %al,(%eax)
 8048468:	d3 00                	roll   %cl,(%eax)
 804846a:	00 00                	add    %al,(%eax)
 804846c:	00 00                	add    %al,(%eax)
 804846e:	00 00                	add    %al,(%eax)
 8048470:	31 00                	xor    %eax,(%eax)
 8048472:	00 00                	add    %al,(%eax)
 8048474:	12 00                	adc    (%eax),%al
 8048476:	00 00                	add    %al,(%eax)
 8048478:	e1 00                	loope  804847a <_init-0x306>
 804847a:	00 00                	add    %al,(%eax)
 804847c:	00 00                	add    %al,(%eax)
 804847e:	00 00                	add    %al,(%eax)
 8048480:	a8 01                	test   $0x1,%al
 8048482:	00 00                	add    %al,(%eax)
 8048484:	12 00                	adc    (%eax),%al
 8048486:	00 00                	add    %al,(%eax)
 8048488:	46                   	inc    %esi
 8048489:	00 00                	add    %al,(%eax)
 804848b:	00 00                	add    %al,(%eax)
 804848d:	00 00                	add    %al,(%eax)
 804848f:	00 e5                	add    %ah,%ch
 8048491:	00 00                	add    %al,(%eax)
 8048493:	00 12                	add    %dl,(%edx)
 8048495:	00 00                	add    %al,(%eax)
	...

Disassembly of section .dynstr:

08048498 <.dynstr>:
 8048498:	00 5f 5f             	add    %bl,0x5f(%edi)
 804849b:	67 6d                	insl   (%dx),%es:(%di)
 804849d:	6f                   	outsl  %ds:(%esi),(%dx)
 804849e:	6e                   	outsb  %ds:(%esi),(%dx)
 804849f:	5f                   	pop    %edi
 80484a0:	73 74                	jae    8048516 <_init-0x26a>
 80484a2:	61                   	popa   
 80484a3:	72 74                	jb     8048519 <_init-0x267>
 80484a5:	5f                   	pop    %edi
 80484a6:	5f                   	pop    %edi
 80484a7:	00 6c 69 62          	add    %ch,0x62(%ecx,%ebp,2)
 80484ab:	63 2e                	arpl   %bp,(%esi)
 80484ad:	73 6f                	jae    804851e <_init-0x262>
 80484af:	2e 36 00 5f 49       	cs add %bl,%cs:%ss:0x49(%edi)
 80484b4:	4f                   	dec    %edi
 80484b5:	5f                   	pop    %edi
 80484b6:	73 74                	jae    804852c <_init-0x254>
 80484b8:	64 69 6e 5f 75 73 65 	imul   $0x64657375,%fs:0x5f(%esi),%ebp
 80484bf:	64 
 80484c0:	00 73 6f             	add    %dh,0x6f(%ebx)
 80484c3:	63 6b 65             	arpl   %bp,0x65(%ebx)
 80484c6:	74 00                	je     80484c8 <_init-0x2b8>
 80484c8:	63 75 73             	arpl   %si,0x73(%ebp)
 80484cb:	65                   	gs
 80484cc:	72 69                	jb     8048537 <_init-0x249>
 80484ce:	64 00 66 66          	add    %ah,%fs:0x66(%esi)
 80484d2:	6c                   	insb   (%dx),%es:(%edi)
 80484d3:	75 73                	jne    8048548 <_init-0x238>
 80484d5:	68 00 73 74 72       	push   $0x72747300
 80484da:	63 70 79             	arpl   %si,0x79(%eax)
 80484dd:	00 65 78             	add    %ah,0x78(%ebp)
 80484e0:	69 74 00 73 70 72 69 	imul   $0x6e697270,0x73(%eax,%eax,1),%esi
 80484e7:	6e 
 80484e8:	74 66                	je     8048550 <_init-0x230>
 80484ea:	00 66 6f             	add    %ah,0x6f(%esi)
 80484ed:	70 65                	jo     8048554 <_init-0x22c>
 80484ef:	6e                   	outsb  %ds:(%esi),(%dx)
 80484f0:	00 63 6f             	add    %ah,0x6f(%ebx)
 80484f3:	6e                   	outsb  %ds:(%esi),(%dx)
 80484f4:	6e                   	outsb  %ds:(%esi),(%dx)
 80484f5:	65 63 74 00 73       	arpl   %si,%gs:0x73(%eax,%eax,1)
 80484fa:	69 67 6e 61 6c 00 70 	imul   $0x70006c61,0x6e(%edi),%esp
 8048501:	75 74                	jne    8048577 <_init-0x209>
 8048503:	73 00                	jae    8048505 <_init-0x27b>
 8048505:	73 74                	jae    804857b <_init-0x205>
 8048507:	64 69 6e 00 69 6e 65 	imul   $0x74656e69,%fs:0x0(%esi),%ebp
 804850e:	74 
 804850f:	5f                   	pop    %edi
 8048510:	70 74                	jo     8048586 <_init-0x1fa>
 8048512:	6f                   	outsl  %ds:(%esi),(%dx)
 8048513:	6e                   	outsb  %ds:(%esi),(%dx)
 8048514:	00 72 65             	add    %dh,0x65(%edx)
 8048517:	77 69                	ja     8048582 <_init-0x1fe>
 8048519:	6e                   	outsb  %ds:(%esi),(%dx)
 804851a:	64 00 66 67          	add    %ah,%fs:0x67(%esi)
 804851e:	65                   	gs
 804851f:	74 73                	je     8048594 <_init-0x1ec>
 8048521:	00 74 6d 70          	add    %dh,0x70(%ebp,%ebp,2)
 8048525:	66 69 6c 65 00 5f 5f 	imul   $0x5f5f,0x0(%ebp,%eiz,2),%bp
 804852c:	65                   	gs
 804852d:	72 72                	jb     80485a1 <_init-0x1df>
 804852f:	6e                   	outsb  %ds:(%esi),(%dx)
 8048530:	6f                   	outsl  %ds:(%esi),(%dx)
 8048531:	5f                   	pop    %edi
 8048532:	6c                   	insb   (%dx),%es:(%edi)
 8048533:	6f                   	outsl  %ds:(%esi),(%dx)
 8048534:	63 61 74             	arpl   %sp,0x74(%ecx)
 8048537:	69 6f 6e 00 73 74 64 	imul   $0x64747300,0x6e(%edi),%ebp
 804853e:	6f                   	outsl  %ds:(%esi),(%dx)
 804853f:	75 74                	jne    80485b5 <_init-0x1cb>
 8048541:	00 66 70             	add    %ah,0x70(%esi)
 8048544:	75 74                	jne    80485ba <_init-0x1c6>
 8048546:	63 00                	arpl   %ax,(%eax)
 8048548:	66                   	data16
 8048549:	63 6c 6f 73          	arpl   %bp,0x73(%edi,%ebp,2)
 804854d:	65 00 73 74          	add    %dh,%gs:0x74(%ebx)
 8048551:	72 63                	jb     80485b6 <_init-0x1ca>
 8048553:	61                   	popa   
 8048554:	74 00                	je     8048556 <_init-0x22a>
 8048556:	67                   	addr16
 8048557:	65                   	gs
 8048558:	74 65                	je     80485bf <_init-0x1c1>
 804855a:	6e                   	outsb  %ds:(%esi),(%dx)
 804855b:	76 00                	jbe    804855d <_init-0x223>
 804855d:	5f                   	pop    %edi
 804855e:	5f                   	pop    %edi
 804855f:	63 74 79 70          	arpl   %si,0x70(%ecx,%edi,2)
 8048563:	65                   	gs
 8048564:	5f                   	pop    %edi
 8048565:	62 5f 6c             	bound  %ebx,0x6c(%edi)
 8048568:	6f                   	outsl  %ds:(%esi),(%dx)
 8048569:	63 00                	arpl   %ax,(%eax)
 804856b:	73 73                	jae    80485e0 <_init-0x1a0>
 804856d:	63 61 6e             	arpl   %sp,0x6e(%ecx)
 8048570:	66                   	data16
 8048571:	00 73 79             	add    %dh,0x79(%ebx)
 8048574:	73 74                	jae    80485ea <_init-0x196>
 8048576:	65                   	gs
 8048577:	6d                   	insl   (%dx),%es:(%edi)
 8048578:	00 67 65             	add    %ah,0x65(%edi)
 804857b:	74 68                	je     80485e5 <_init-0x19b>
 804857d:	6f                   	outsl  %ds:(%esi),(%dx)
 804857e:	73 74                	jae    80485f4 <_init-0x18c>
 8048580:	62 79 6e             	bound  %edi,0x6e(%ecx)
 8048583:	61                   	popa   
 8048584:	6d                   	insl   (%dx),%es:(%edi)
 8048585:	65 00 64 75 70       	add    %ah,%gs:0x70(%ebp,%esi,2)
 804858a:	00 66 77             	add    %ah,0x77(%esi)
 804858d:	72 69                	jb     80485f8 <_init-0x188>
 804858f:	74 65                	je     80485f6 <_init-0x18a>
 8048591:	00 62 63             	add    %ah,0x63(%edx)
 8048594:	6f                   	outsl  %ds:(%esi),(%dx)
 8048595:	70 79                	jo     8048610 <_init-0x170>
 8048597:	00 66 70             	add    %ah,0x70(%esi)
 804859a:	72 69                	jb     8048605 <_init-0x17b>
 804859c:	6e                   	outsb  %ds:(%esi),(%dx)
 804859d:	74 66                	je     8048605 <_init-0x17b>
 804859f:	00 73 6c             	add    %dh,0x6c(%ebx)
 80485a2:	65                   	gs
 80485a3:	65                   	gs
 80485a4:	70 00                	jo     80485a6 <_init-0x1da>
 80485a6:	5f                   	pop    %edi
 80485a7:	5f                   	pop    %edi
 80485a8:	6c                   	insb   (%dx),%es:(%edi)
 80485a9:	69 62 63 5f 73 74 61 	imul   $0x6174735f,0x63(%edx),%esp
 80485b0:	72 74                	jb     8048626 <_init-0x15a>
 80485b2:	5f                   	pop    %edi
 80485b3:	6d                   	insl   (%dx),%es:(%edi)
 80485b4:	61                   	popa   
 80485b5:	69 6e 00 47 4c 49 42 	imul   $0x42494c47,0x0(%esi),%ebp
 80485bc:	43                   	inc    %ebx
 80485bd:	5f                   	pop    %edi
 80485be:	32 2e                	xor    (%esi),%ch
 80485c0:	33 00                	xor    (%eax),%eax
 80485c2:	47                   	inc    %edi
 80485c3:	4c                   	dec    %esp
 80485c4:	49                   	dec    %ecx
 80485c5:	42                   	inc    %edx
 80485c6:	43                   	inc    %ebx
 80485c7:	5f                   	pop    %edi
 80485c8:	32 2e                	xor    (%esi),%ch
 80485ca:	31 00                	xor    %eax,(%eax)
 80485cc:	47                   	inc    %edi
 80485cd:	4c                   	dec    %esp
 80485ce:	49                   	dec    %ecx
 80485cf:	42                   	inc    %edx
 80485d0:	43                   	inc    %ebx
 80485d1:	5f                   	pop    %edi
 80485d2:	32 2e                	xor    (%esi),%ch
 80485d4:	30 00                	xor    %al,(%eax)

Disassembly of section .gnu.version:

080485d6 <.gnu.version>:
 80485d6:	00 00                	add    %al,(%eax)
 80485d8:	02 00                	add    (%eax),%al
 80485da:	02 00                	add    (%eax),%al
 80485dc:	02 00                	add    (%eax),%al
 80485de:	02 00                	add    (%eax),%al
 80485e0:	00 00                	add    %al,(%eax)
 80485e2:	02 00                	add    (%eax),%al
 80485e4:	02 00                	add    (%eax),%al
 80485e6:	02 00                	add    (%eax),%al
 80485e8:	02 00                	add    (%eax),%al
 80485ea:	02 00                	add    (%eax),%al
 80485ec:	02 00                	add    (%eax),%al
 80485ee:	03 00                	add    (%eax),%eax
 80485f0:	01 00                	add    %eax,(%eax)
 80485f2:	02 00                	add    (%eax),%al
 80485f4:	02 00                	add    (%eax),%al
 80485f6:	02 00                	add    (%eax),%al
 80485f8:	04 00                	add    $0x0,%al
 80485fa:	03 00                	add    (%eax),%eax
 80485fc:	02 00                	add    (%eax),%al
 80485fe:	02 00                	add    (%eax),%al
 8048600:	03 00                	add    (%eax),%eax
 8048602:	02 00                	add    (%eax),%al
 8048604:	02 00                	add    (%eax),%al
 8048606:	02 00                	add    (%eax),%al
 8048608:	02 00                	add    (%eax),%al
 804860a:	02 00                	add    (%eax),%al
 804860c:	02 00                	add    (%eax),%al
 804860e:	02 00                	add    (%eax),%al
 8048610:	02 00                	add    (%eax),%al
 8048612:	02 00                	add    (%eax),%al
 8048614:	02 00                	add    (%eax),%al
 8048616:	02 00                	add    (%eax),%al
 8048618:	02 00                	add    (%eax),%al
 804861a:	02 00                	add    (%eax),%al
 804861c:	02 00                	add    (%eax),%al
 804861e:	02 00                	add    (%eax),%al

Disassembly of section .gnu.version_r:

08048620 <.gnu.version_r>:
 8048620:	01 00                	add    %eax,(%eax)
 8048622:	03 00                	add    (%eax),%eax
 8048624:	10 00                	adc    %al,(%eax)
 8048626:	00 00                	add    %al,(%eax)
 8048628:	10 00                	adc    %al,(%eax)
 804862a:	00 00                	add    %al,(%eax)
 804862c:	00 00                	add    %al,(%eax)
 804862e:	00 00                	add    %al,(%eax)
 8048630:	13 69 69             	adc    0x69(%ecx),%ebp
 8048633:	0d 00 00 04 00       	or     $0x40000,%eax
 8048638:	20 01                	and    %al,(%ecx)
 804863a:	00 00                	add    %al,(%eax)
 804863c:	10 00                	adc    %al,(%eax)
 804863e:	00 00                	add    %al,(%eax)
 8048640:	11 69 69             	adc    %ebp,0x69(%ecx)
 8048643:	0d 00 00 03 00       	or     $0x30000,%eax
 8048648:	2a 01                	sub    (%ecx),%al
 804864a:	00 00                	add    %al,(%eax)
 804864c:	10 00                	adc    %al,(%eax)
 804864e:	00 00                	add    %al,(%eax)
 8048650:	10 69 69             	adc    %ch,0x69(%ecx)
 8048653:	0d 00 00 02 00       	or     $0x20000,%eax
 8048658:	34 01                	xor    $0x1,%al
 804865a:	00 00                	add    %al,(%eax)
 804865c:	00 00                	add    %al,(%eax)
	...

Disassembly of section .rel.dyn:

08048660 <.rel.dyn>:
 8048660:	dc a0 04 08 06 05    	fsubl  0x5060804(%eax)
 8048666:	00 00                	add    %al,(%eax)
 8048668:	c0 a5 04 08 05 1d 00 	shlb   $0x0,0x1d050804(%ebp)
 804866f:	00 e0                	add    %ah,%al
 8048671:	a5                   	movsl  %ds:(%esi),%es:(%edi)
 8048672:	04 08                	add    $0x8,%al
 8048674:	05                   	.byte 0x5
 8048675:	20 00                	and    %al,(%eax)
	...

Disassembly of section .rel.plt:

08048678 <.rel.plt>:
 8048678:	ec                   	in     (%dx),%al
 8048679:	a0 04 08 07 01       	mov    0x1070804,%al
 804867e:	00 00                	add    %al,(%eax)
 8048680:	f0 a0 04 08 07 02    	lock mov 0x2070804,%al
 8048686:	00 00                	add    %al,(%eax)
 8048688:	f4                   	hlt    
 8048689:	a0 04 08 07 03       	mov    0x3070804,%al
 804868e:	00 00                	add    %al,(%eax)
 8048690:	f8                   	clc    
 8048691:	a0 04 08 07 04       	mov    0x4070804,%al
 8048696:	00 00                	add    %al,(%eax)
 8048698:	fc                   	cld    
 8048699:	a0 04 08 07 05       	mov    0x5070804,%al
 804869e:	00 00                	add    %al,(%eax)
 80486a0:	00 a1 04 08 07 06    	add    %ah,0x6070804(%ecx)
 80486a6:	00 00                	add    %al,(%eax)
 80486a8:	04 a1                	add    $0xa1,%al
 80486aa:	04 08                	add    $0x8,%al
 80486ac:	07                   	pop    %es
 80486ad:	07                   	pop    %es
 80486ae:	00 00                	add    %al,(%eax)
 80486b0:	08 a1 04 08 07 08    	or     %ah,0x8070804(%ecx)
 80486b6:	00 00                	add    %al,(%eax)
 80486b8:	0c a1                	or     $0xa1,%al
 80486ba:	04 08                	add    $0x8,%al
 80486bc:	07                   	pop    %es
 80486bd:	09 00                	or     %eax,(%eax)
 80486bf:	00 10                	add    %dl,(%eax)
 80486c1:	a1 04 08 07 0a       	mov    0xa070804,%eax
 80486c6:	00 00                	add    %al,(%eax)
 80486c8:	14 a1                	adc    $0xa1,%al
 80486ca:	04 08                	add    $0x8,%al
 80486cc:	07                   	pop    %es
 80486cd:	0b 00                	or     (%eax),%eax
 80486cf:	00 18                	add    %bl,(%eax)
 80486d1:	a1 04 08 07 0c       	mov    0xc070804,%eax
 80486d6:	00 00                	add    %al,(%eax)
 80486d8:	1c a1                	sbb    $0xa1,%al
 80486da:	04 08                	add    $0x8,%al
 80486dc:	07                   	pop    %es
 80486dd:	0e                   	push   %cs
 80486de:	00 00                	add    %al,(%eax)
 80486e0:	20 a1 04 08 07 0f    	and    %ah,0xf070804(%ecx)
 80486e6:	00 00                	add    %al,(%eax)
 80486e8:	24 a1                	and    $0xa1,%al
 80486ea:	04 08                	add    $0x8,%al
 80486ec:	07                   	pop    %es
 80486ed:	10 00                	adc    %al,(%eax)
 80486ef:	00 28                	add    %ch,(%eax)
 80486f1:	a1 04 08 07 11       	mov    0x11070804,%eax
 80486f6:	00 00                	add    %al,(%eax)
 80486f8:	2c a1                	sub    $0xa1,%al
 80486fa:	04 08                	add    $0x8,%al
 80486fc:	07                   	pop    %es
 80486fd:	12 00                	adc    (%eax),%al
 80486ff:	00 30                	add    %dh,(%eax)
 8048701:	a1 04 08 07 13       	mov    0x13070804,%eax
 8048706:	00 00                	add    %al,(%eax)
 8048708:	34 a1                	xor    $0xa1,%al
 804870a:	04 08                	add    $0x8,%al
 804870c:	07                   	pop    %es
 804870d:	14 00                	adc    $0x0,%al
 804870f:	00 38                	add    %bh,(%eax)
 8048711:	a1 04 08 07 15       	mov    0x15070804,%eax
 8048716:	00 00                	add    %al,(%eax)
 8048718:	3c a1                	cmp    $0xa1,%al
 804871a:	04 08                	add    $0x8,%al
 804871c:	07                   	pop    %es
 804871d:	16                   	push   %ss
 804871e:	00 00                	add    %al,(%eax)
 8048720:	40                   	inc    %eax
 8048721:	a1 04 08 07 17       	mov    0x17070804,%eax
 8048726:	00 00                	add    %al,(%eax)
 8048728:	44                   	inc    %esp
 8048729:	a1 04 08 07 18       	mov    0x18070804,%eax
 804872e:	00 00                	add    %al,(%eax)
 8048730:	48                   	dec    %eax
 8048731:	a1 04 08 07 19       	mov    0x19070804,%eax
 8048736:	00 00                	add    %al,(%eax)
 8048738:	4c                   	dec    %esp
 8048739:	a1 04 08 07 1a       	mov    0x1a070804,%eax
 804873e:	00 00                	add    %al,(%eax)
 8048740:	50                   	push   %eax
 8048741:	a1 04 08 07 1b       	mov    0x1b070804,%eax
 8048746:	00 00                	add    %al,(%eax)
 8048748:	54                   	push   %esp
 8048749:	a1 04 08 07 1c       	mov    0x1c070804,%eax
 804874e:	00 00                	add    %al,(%eax)
 8048750:	58                   	pop    %eax
 8048751:	a1 04 08 07 1e       	mov    0x1e070804,%eax
 8048756:	00 00                	add    %al,(%eax)
 8048758:	5c                   	pop    %esp
 8048759:	a1 04 08 07 1f       	mov    0x1f070804,%eax
 804875e:	00 00                	add    %al,(%eax)
 8048760:	60                   	pusha  
 8048761:	a1 04 08 07 21       	mov    0x21070804,%eax
 8048766:	00 00                	add    %al,(%eax)
 8048768:	64 a1 04 08 07 22    	mov    %fs:0x22070804,%eax
 804876e:	00 00                	add    %al,(%eax)
 8048770:	68 a1 04 08 07       	push   $0x70804a1
 8048775:	23 00                	and    (%eax),%eax
 8048777:	00 6c a1 04          	add    %ch,0x4(%ecx,%eiz,4)
 804877b:	08 07                	or     %al,(%edi)
 804877d:	24 00                	and    $0x0,%al
	...

Disassembly of section .init:

08048780 <_init>:
 8048780:	55                   	push   %ebp
 8048781:	89 e5                	mov    %esp,%ebp
 8048783:	53                   	push   %ebx
 8048784:	83 ec 04             	sub    $0x4,%esp
 8048787:	e8 00 00 00 00       	call   804878c <_init+0xc>
 804878c:	5b                   	pop    %ebx
 804878d:	81 c3 54 19 00 00    	add    $0x1954,%ebx
 8048793:	8b 93 fc ff ff ff    	mov    -0x4(%ebx),%edx
 8048799:	85 d2                	test   %edx,%edx
 804879b:	74 05                	je     80487a2 <_init+0x22>
 804879d:	e8 5e 00 00 00       	call   8048800 <__gmon_start__@plt>
 80487a2:	e8 b9 02 00 00       	call   8048a60 <frame_dummy>
 80487a7:	e8 e4 11 00 00       	call   8049990 <__do_global_ctors_aux>
 80487ac:	58                   	pop    %eax
 80487ad:	5b                   	pop    %ebx
 80487ae:	c9                   	leave  
 80487af:	c3                   	ret    

Disassembly of section .plt:

080487b0 <__errno_location@plt-0x10>:
 80487b0:	ff 35 e4 a0 04 08    	pushl  0x804a0e4
 80487b6:	ff 25 e8 a0 04 08    	jmp    *0x804a0e8
 80487bc:	00 00                	add    %al,(%eax)
	...

080487c0 <__errno_location@plt>:
 80487c0:	ff 25 ec a0 04 08    	jmp    *0x804a0ec
 80487c6:	68 00 00 00 00       	push   $0x0
 80487cb:	e9 e0 ff ff ff       	jmp    80487b0 <_init+0x30>

080487d0 <sprintf@plt>:
 80487d0:	ff 25 f0 a0 04 08    	jmp    *0x804a0f0
 80487d6:	68 08 00 00 00       	push   $0x8
 80487db:	e9 d0 ff ff ff       	jmp    80487b0 <_init+0x30>

080487e0 <connect@plt>:
 80487e0:	ff 25 f4 a0 04 08    	jmp    *0x804a0f4
 80487e6:	68 10 00 00 00       	push   $0x10
 80487eb:	e9 c0 ff ff ff       	jmp    80487b0 <_init+0x30>

080487f0 <signal@plt>:
 80487f0:	ff 25 f8 a0 04 08    	jmp    *0x804a0f8
 80487f6:	68 18 00 00 00       	push   $0x18
 80487fb:	e9 b0 ff ff ff       	jmp    80487b0 <_init+0x30>

08048800 <__gmon_start__@plt>:
 8048800:	ff 25 fc a0 04 08    	jmp    *0x804a0fc
 8048806:	68 20 00 00 00       	push   $0x20
 804880b:	e9 a0 ff ff ff       	jmp    80487b0 <_init+0x30>

08048810 <rewind@plt>:
 8048810:	ff 25 00 a1 04 08    	jmp    *0x804a100
 8048816:	68 28 00 00 00       	push   $0x28
 804881b:	e9 90 ff ff ff       	jmp    80487b0 <_init+0x30>

08048820 <getenv@plt>:
 8048820:	ff 25 04 a1 04 08    	jmp    *0x804a104
 8048826:	68 30 00 00 00       	push   $0x30
 804882b:	e9 80 ff ff ff       	jmp    80487b0 <_init+0x30>

08048830 <system@plt>:
 8048830:	ff 25 08 a1 04 08    	jmp    *0x804a108
 8048836:	68 38 00 00 00       	push   $0x38
 804883b:	e9 70 ff ff ff       	jmp    80487b0 <_init+0x30>

08048840 <write@plt>:
 8048840:	ff 25 0c a1 04 08    	jmp    *0x804a10c
 8048846:	68 40 00 00 00       	push   $0x40
 804884b:	e9 60 ff ff ff       	jmp    80487b0 <_init+0x30>

08048850 <fgets@plt>:
 8048850:	ff 25 10 a1 04 08    	jmp    *0x804a110
 8048856:	68 48 00 00 00       	push   $0x48
 804885b:	e9 50 ff ff ff       	jmp    80487b0 <_init+0x30>

08048860 <__libc_start_main@plt>:
 8048860:	ff 25 14 a1 04 08    	jmp    *0x804a114
 8048866:	68 50 00 00 00       	push   $0x50
 804886b:	e9 40 ff ff ff       	jmp    80487b0 <_init+0x30>

08048870 <tmpfile@plt>:
 8048870:	ff 25 18 a1 04 08    	jmp    *0x804a118
 8048876:	68 58 00 00 00       	push   $0x58
 804887b:	e9 30 ff ff ff       	jmp    80487b0 <_init+0x30>

08048880 <inet_pton@plt>:
 8048880:	ff 25 1c a1 04 08    	jmp    *0x804a11c
 8048886:	68 60 00 00 00       	push   $0x60
 804888b:	e9 20 ff ff ff       	jmp    80487b0 <_init+0x30>

08048890 <fflush@plt>:
 8048890:	ff 25 20 a1 04 08    	jmp    *0x804a120
 8048896:	68 68 00 00 00       	push   $0x68
 804889b:	e9 10 ff ff ff       	jmp    80487b0 <_init+0x30>

080488a0 <socket@plt>:
 80488a0:	ff 25 24 a1 04 08    	jmp    *0x804a124
 80488a6:	68 70 00 00 00       	push   $0x70
 80488ab:	e9 00 ff ff ff       	jmp    80487b0 <_init+0x30>

080488b0 <__ctype_b_loc@plt>:
 80488b0:	ff 25 28 a1 04 08    	jmp    *0x804a128
 80488b6:	68 78 00 00 00       	push   $0x78
 80488bb:	e9 f0 fe ff ff       	jmp    80487b0 <_init+0x30>

080488c0 <fclose@plt>:
 80488c0:	ff 25 2c a1 04 08    	jmp    *0x804a12c
 80488c6:	68 80 00 00 00       	push   $0x80
 80488cb:	e9 e0 fe ff ff       	jmp    80487b0 <_init+0x30>

080488d0 <bcopy@plt>:
 80488d0:	ff 25 30 a1 04 08    	jmp    *0x804a130
 80488d6:	68 88 00 00 00       	push   $0x88
 80488db:	e9 d0 fe ff ff       	jmp    80487b0 <_init+0x30>

080488e0 <dup@plt>:
 80488e0:	ff 25 34 a1 04 08    	jmp    *0x804a134
 80488e6:	68 90 00 00 00       	push   $0x90
 80488eb:	e9 c0 fe ff ff       	jmp    80487b0 <_init+0x30>

080488f0 <fopen@plt>:
 80488f0:	ff 25 38 a1 04 08    	jmp    *0x804a138
 80488f6:	68 98 00 00 00       	push   $0x98
 80488fb:	e9 b0 fe ff ff       	jmp    80487b0 <_init+0x30>

08048900 <strcpy@plt>:
 8048900:	ff 25 3c a1 04 08    	jmp    *0x804a13c
 8048906:	68 a0 00 00 00       	push   $0xa0
 804890b:	e9 a0 fe ff ff       	jmp    80487b0 <_init+0x30>

08048910 <printf@plt>:
 8048910:	ff 25 40 a1 04 08    	jmp    *0x804a140
 8048916:	68 a8 00 00 00       	push   $0xa8
 804891b:	e9 90 fe ff ff       	jmp    80487b0 <_init+0x30>

08048920 <close@plt>:
 8048920:	ff 25 44 a1 04 08    	jmp    *0x804a144
 8048926:	68 b0 00 00 00       	push   $0xb0
 804892b:	e9 80 fe ff ff       	jmp    80487b0 <_init+0x30>

08048930 <fwrite@plt>:
 8048930:	ff 25 48 a1 04 08    	jmp    *0x804a148
 8048936:	68 b8 00 00 00       	push   $0xb8
 804893b:	e9 70 fe ff ff       	jmp    80487b0 <_init+0x30>

08048940 <fprintf@plt>:
 8048940:	ff 25 4c a1 04 08    	jmp    *0x804a14c
 8048946:	68 c0 00 00 00       	push   $0xc0
 804894b:	e9 60 fe ff ff       	jmp    80487b0 <_init+0x30>

08048950 <cuserid@plt>:
 8048950:	ff 25 50 a1 04 08    	jmp    *0x804a150
 8048956:	68 c8 00 00 00       	push   $0xc8
 804895b:	e9 50 fe ff ff       	jmp    80487b0 <_init+0x30>

08048960 <fputc@plt>:
 8048960:	ff 25 54 a1 04 08    	jmp    *0x804a154
 8048966:	68 d0 00 00 00       	push   $0xd0
 804896b:	e9 40 fe ff ff       	jmp    80487b0 <_init+0x30>

08048970 <sleep@plt>:
 8048970:	ff 25 58 a1 04 08    	jmp    *0x804a158
 8048976:	68 d8 00 00 00       	push   $0xd8
 804897b:	e9 30 fe ff ff       	jmp    80487b0 <_init+0x30>

08048980 <strcat@plt>:
 8048980:	ff 25 5c a1 04 08    	jmp    *0x804a15c
 8048986:	68 e0 00 00 00       	push   $0xe0
 804898b:	e9 20 fe ff ff       	jmp    80487b0 <_init+0x30>

08048990 <puts@plt>:
 8048990:	ff 25 60 a1 04 08    	jmp    *0x804a160
 8048996:	68 e8 00 00 00       	push   $0xe8
 804899b:	e9 10 fe ff ff       	jmp    80487b0 <_init+0x30>

080489a0 <sscanf@plt>:
 80489a0:	ff 25 64 a1 04 08    	jmp    *0x804a164
 80489a6:	68 f0 00 00 00       	push   $0xf0
 80489ab:	e9 00 fe ff ff       	jmp    80487b0 <_init+0x30>

080489b0 <gethostbyname@plt>:
 80489b0:	ff 25 68 a1 04 08    	jmp    *0x804a168
 80489b6:	68 f8 00 00 00       	push   $0xf8
 80489bb:	e9 f0 fd ff ff       	jmp    80487b0 <_init+0x30>

080489c0 <exit@plt>:
 80489c0:	ff 25 6c a1 04 08    	jmp    *0x804a16c
 80489c6:	68 00 01 00 00       	push   $0x100
 80489cb:	e9 e0 fd ff ff       	jmp    80487b0 <_init+0x30>

Disassembly of section .text:

080489d0 <_start>:
 80489d0:	31 ed                	xor    %ebp,%ebp
 80489d2:	5e                   	pop    %esi
 80489d3:	89 e1                	mov    %esp,%ecx
 80489d5:	83 e4 f0             	and    $0xfffffff0,%esp
 80489d8:	50                   	push   %eax
 80489d9:	54                   	push   %esp
 80489da:	52                   	push   %edx
 80489db:	68 28 99 04 08       	push   $0x8049928
 80489e0:	68 2d 99 04 08       	push   $0x804992d
 80489e5:	51                   	push   %ecx
 80489e6:	56                   	push   %esi
 80489e7:	68 84 8a 04 08       	push   $0x8048a84
 80489ec:	e8 6f fe ff ff       	call   8048860 <__libc_start_main@plt>
 80489f1:	f4                   	hlt    
 80489f2:	90                   	nop
 80489f3:	90                   	nop
 80489f4:	90                   	nop
 80489f5:	90                   	nop
 80489f6:	90                   	nop
 80489f7:	90                   	nop
 80489f8:	90                   	nop
 80489f9:	90                   	nop
 80489fa:	90                   	nop
 80489fb:	90                   	nop
 80489fc:	90                   	nop
 80489fd:	90                   	nop
 80489fe:	90                   	nop
 80489ff:	90                   	nop

08048a00 <__do_global_dtors_aux>:
 8048a00:	55                   	push   %ebp
 8048a01:	89 e5                	mov    %esp,%ebp
 8048a03:	53                   	push   %ebx
 8048a04:	83 ec 04             	sub    $0x4,%esp
 8048a07:	80 3d e4 a5 04 08 00 	cmpb   $0x0,0x804a5e4
 8048a0e:	75 3f                	jne    8048a4f <__do_global_dtors_aux+0x4f>
 8048a10:	a1 e8 a5 04 08       	mov    0x804a5e8,%eax
 8048a15:	bb 0c a0 04 08       	mov    $0x804a00c,%ebx
 8048a1a:	81 eb 08 a0 04 08    	sub    $0x804a008,%ebx
 8048a20:	c1 fb 02             	sar    $0x2,%ebx
 8048a23:	83 eb 01             	sub    $0x1,%ebx
 8048a26:	39 d8                	cmp    %ebx,%eax
 8048a28:	73 1e                	jae    8048a48 <__do_global_dtors_aux+0x48>
 8048a2a:	8d b6 00 00 00 00    	lea    0x0(%esi),%esi
 8048a30:	83 c0 01             	add    $0x1,%eax
 8048a33:	a3 e8 a5 04 08       	mov    %eax,0x804a5e8
 8048a38:	ff 14 85 08 a0 04 08 	call   *0x804a008(,%eax,4)
 8048a3f:	a1 e8 a5 04 08       	mov    0x804a5e8,%eax
 8048a44:	39 d8                	cmp    %ebx,%eax
 8048a46:	72 e8                	jb     8048a30 <__do_global_dtors_aux+0x30>
 8048a48:	c6 05 e4 a5 04 08 01 	movb   $0x1,0x804a5e4
 8048a4f:	83 c4 04             	add    $0x4,%esp
 8048a52:	5b                   	pop    %ebx
 8048a53:	5d                   	pop    %ebp
 8048a54:	c3                   	ret    
 8048a55:	8d 74 26 00          	lea    0x0(%esi,%eiz,1),%esi
 8048a59:	8d bc 27 00 00 00 00 	lea    0x0(%edi,%eiz,1),%edi

08048a60 <frame_dummy>:
 8048a60:	55                   	push   %ebp
 8048a61:	89 e5                	mov    %esp,%ebp
 8048a63:	83 ec 18             	sub    $0x18,%esp
 8048a66:	a1 10 a0 04 08       	mov    0x804a010,%eax
 8048a6b:	85 c0                	test   %eax,%eax
 8048a6d:	74 12                	je     8048a81 <frame_dummy+0x21>
 8048a6f:	b8 00 00 00 00       	mov    $0x0,%eax
 8048a74:	85 c0                	test   %eax,%eax
 8048a76:	74 09                	je     8048a81 <frame_dummy+0x21>
 8048a78:	c7 04 24 10 a0 04 08 	movl   $0x804a010,(%esp)
 8048a7f:	ff d0                	call   *%eax
 8048a81:	c9                   	leave  
 8048a82:	c3                   	ret    
 8048a83:	90                   	nop

08048a84 <main>:
 8048a84:	55                   	push   %ebp
 8048a85:	89 e5                	mov    %esp,%ebp
 8048a87:	83 e4 f0             	and    $0xfffffff0,%esp
 8048a8a:	56                   	push   %esi
 8048a8b:	53                   	push   %ebx
 8048a8c:	83 ec 18             	sub    $0x18,%esp
 8048a8f:	8b 45 08             	mov    0x8(%ebp),%eax
 8048a92:	8b 75 0c             	mov    0xc(%ebp),%esi
 8048a95:	83 f8 01             	cmp    $0x1,%eax
 8048a98:	75 0e                	jne    8048aa8 <main+0x24>
 8048a9a:	8b 1d c0 a5 04 08    	mov    0x804a5c0,%ebx
 8048aa0:	89 1d f0 a5 04 08    	mov    %ebx,0x804a5f0
 8048aa6:	eb 65                	jmp    8048b0d <main+0x89>
 8048aa8:	83 f8 02             	cmp    $0x2,%eax
 8048aab:	75 42                	jne    8048aef <main+0x6b>
 8048aad:	8d 5e 04             	lea    0x4(%esi),%ebx
 8048ab0:	c7 44 24 04 7c 9b 04 	movl   $0x8049b7c,0x4(%esp)
 8048ab7:	08 
 8048ab8:	8b 03                	mov    (%ebx),%eax
 8048aba:	89 04 24             	mov    %eax,(%esp)
 8048abd:	e8 2e fe ff ff       	call   80488f0 <fopen@plt>
 8048ac2:	a3 f0 a5 04 08       	mov    %eax,0x804a5f0
 8048ac7:	85 c0                	test   %eax,%eax
 8048ac9:	75 42                	jne    8048b0d <main+0x89>
 8048acb:	8b 03                	mov    (%ebx),%eax
 8048acd:	89 44 24 08          	mov    %eax,0x8(%esp)
 8048ad1:	8b 06                	mov    (%esi),%eax
 8048ad3:	89 44 24 04          	mov    %eax,0x4(%esp)
 8048ad7:	c7 04 24 e8 99 04 08 	movl   $0x80499e8,(%esp)
 8048ade:	e8 2d fe ff ff       	call   8048910 <printf@plt>
 8048ae3:	c7 04 24 08 00 00 00 	movl   $0x8,(%esp)
 8048aea:	e8 d1 fe ff ff       	call   80489c0 <exit@plt>
 8048aef:	8b 06                	mov    (%esi),%eax
 8048af1:	89 44 24 04          	mov    %eax,0x4(%esp)
 8048af5:	c7 04 24 05 9a 04 08 	movl   $0x8049a05,(%esp)
 8048afc:	e8 0f fe ff ff       	call   8048910 <printf@plt>
 8048b01:	c7 04 24 08 00 00 00 	movl   $0x8,(%esp)
 8048b08:	e8 b3 fe ff ff       	call   80489c0 <exit@plt>
 8048b0d:	e8 dc 0d 00 00       	call   80498ee <initialize_bomb>
 8048b12:	c7 04 24 40 9a 04 08 	movl   $0x8049a40,(%esp)
 8048b19:	e8 72 fe ff ff       	call   8048990 <puts@plt>
 8048b1e:	c7 04 24 7c 9a 04 08 	movl   $0x8049a7c,(%esp)
 8048b25:	e8 66 fe ff ff       	call   8048990 <puts@plt>
 8048b2a:	e8 6b 0b 00 00       	call   804969a <read_line>
 8048b2f:	89 04 24             	mov    %eax,(%esp)
 8048b32:	e8 b6 02 00 00       	call   8048ded <phase_1>
 8048b37:	e8 7e 09 00 00       	call   80494ba <phase_defused>
 8048b3c:	c7 04 24 a8 9a 04 08 	movl   $0x8049aa8,(%esp)
 8048b43:	e8 48 fe ff ff       	call   8048990 <puts@plt>
 8048b48:	e8 4d 0b 00 00       	call   804969a <read_line>
 8048b4d:	89 04 24             	mov    %eax,(%esp)
 8048b50:	e8 4e 02 00 00       	call   8048da3 <phase_2>
 8048b55:	e8 60 09 00 00       	call   80494ba <phase_defused>
 8048b5a:	c7 04 24 1f 9a 04 08 	movl   $0x8049a1f,(%esp)
 8048b61:	e8 2a fe ff ff       	call   8048990 <puts@plt>
 8048b66:	e8 2f 0b 00 00       	call   804969a <read_line>
 8048b6b:	89 04 24             	mov    %eax,(%esp)
 8048b6e:	e8 7a 00 00 00       	call   8048bed <phase_3>
 8048b73:	e8 42 09 00 00       	call   80494ba <phase_defused>
 8048b78:	b8 00 00 00 00       	mov    $0x0,%eax
 8048b7d:	83 c4 18             	add    $0x18,%esp
 8048b80:	5b                   	pop    %ebx
 8048b81:	5e                   	pop    %esi
 8048b82:	89 ec                	mov    %ebp,%esp
 8048b84:	5d                   	pop    %ebp
 8048b85:	c3                   	ret    
 8048b86:	90                   	nop
 8048b87:	90                   	nop
 8048b88:	90                   	nop
 8048b89:	90                   	nop
 8048b8a:	90                   	nop
 8048b8b:	90                   	nop
 8048b8c:	90                   	nop
 8048b8d:	90                   	nop
 8048b8e:	90                   	nop
 8048b8f:	90                   	nop

08048b90 <secret_phase>:
 8048b90:	55                   	push   %ebp
 8048b91:	89 e5                	mov    %esp,%ebp
 8048b93:	57                   	push   %edi
 8048b94:	56                   	push   %esi
 8048b95:	53                   	push   %ebx
 8048b96:	83 ec 1c             	sub    $0x1c,%esp
 8048b99:	e8 fc 0a 00 00       	call   804969a <read_line>
 8048b9e:	89 c7                	mov    %eax,%edi
 8048ba0:	89 04 24             	mov    %eax,(%esp)
 8048ba3:	e8 78 02 00 00       	call   8048e20 <string_length>
 8048ba8:	83 f8 06             	cmp    $0x6,%eax
 8048bab:	74 05                	je     8048bb2 <secret_phase+0x22>
 8048bad:	e8 ca 09 00 00       	call   804957c <explode_bomb>
 8048bb2:	be 00 00 00 00       	mov    $0x0,%esi
 8048bb7:	bb 00 00 00 00       	mov    $0x0,%ebx
 8048bbc:	b8 00 9b 04 08       	mov    $0x8049b00,%eax
 8048bc1:	0f be 14 1f          	movsbl (%edi,%ebx,1),%edx
 8048bc5:	83 e2 0f             	and    $0xf,%edx
 8048bc8:	03 34 90             	add    (%eax,%edx,4),%esi
 8048bcb:	83 c3 01             	add    $0x1,%ebx
 8048bce:	83 fb 06             	cmp    $0x6,%ebx
 8048bd1:	75 ee                	jne    8048bc1 <secret_phase+0x31>
 8048bd3:	83 fe 45             	cmp    $0x45,%esi
 8048bd6:	74 05                	je     8048bdd <secret_phase+0x4d>
 8048bd8:	e8 9f 09 00 00       	call   804957c <explode_bomb>
 8048bdd:	8d 76 00             	lea    0x0(%esi),%esi
 8048be0:	e8 d5 08 00 00       	call   80494ba <phase_defused>
 8048be5:	83 c4 1c             	add    $0x1c,%esp
 8048be8:	5b                   	pop    %ebx
 8048be9:	5e                   	pop    %esi
 8048bea:	5f                   	pop    %edi
 8048beb:	5d                   	pop    %ebp
 8048bec:	c3                   	ret    

08048bed <phase_3>:
 8048bed:	55                   	push   %ebp
 8048bee:	89 e5                	mov    %esp,%ebp
 8048bf0:	53                   	push   %ebx
 8048bf1:	83 ec 34             	sub    $0x34,%esp
 8048bf4:	8d 45 f0             	lea    -0x10(%ebp),%eax
 8048bf7:	89 44 24 10          	mov    %eax,0x10(%esp)
 8048bfb:	8d 45 ef             	lea    -0x11(%ebp),%eax
 8048bfe:	89 44 24 0c          	mov    %eax,0xc(%esp)
 8048c02:	8d 45 f4             	lea    -0xc(%ebp),%eax
 8048c05:	89 44 24 08          	mov    %eax,0x8(%esp)
 8048c09:	c7 44 24 04 d1 9a 04 	movl   $0x8049ad1,0x4(%esp)
 8048c10:	08 
 8048c11:	8b 45 08             	mov    0x8(%ebp),%eax
 8048c14:	89 04 24             	mov    %eax,(%esp)
 8048c17:	e8 84 fd ff ff       	call   80489a0 <sscanf@plt>
 8048c1c:	83 f8 02             	cmp    $0x2,%eax
 8048c1f:	7f 05                	jg     8048c26 <phase_3+0x39>
 8048c21:	e8 56 09 00 00       	call   804957c <explode_bomb>
 8048c26:	83 7d f4 07          	cmpl   $0x7,-0xc(%ebp)
 8048c2a:	8d b6 00 00 00 00    	lea    0x0(%esi),%esi
 8048c30:	0f 87 34 01 00 00    	ja     8048d6a <phase_3+0x17d>
 8048c36:	8b 5d f4             	mov    -0xc(%ebp),%ebx
 8048c39:	8d b4 26 00 00 00 00 	lea    0x0(%esi,%eiz,1),%esi
 8048c40:	ff 24 9d e0 9a 04 08 	jmp    *0x8049ae0(,%ebx,4)
 8048c47:	81 7d f0 9e 03 00 00 	cmpl   $0x39e,-0x10(%ebp)
 8048c4e:	66 90                	xchg   %ax,%ax
 8048c50:	0f 84 2c 01 00 00    	je     8048d82 <phase_3+0x195>
 8048c56:	66 90                	xchg   %ax,%ax
 8048c58:	e8 1f 09 00 00       	call   804957c <explode_bomb>
 8048c5d:	bb 6c 00 00 00       	mov    $0x6c,%ebx
 8048c62:	8d b6 00 00 00 00    	lea    0x0(%esi),%esi
 8048c68:	e9 1a 01 00 00       	jmp    8048d87 <phase_3+0x19a>
 8048c6d:	bb 68 00 00 00       	mov    $0x68,%ebx
 8048c72:	81 7d f0 67 03 00 00 	cmpl   $0x367,-0x10(%ebp)
 8048c79:	8d b4 26 00 00 00 00 	lea    0x0(%esi,%eiz,1),%esi
 8048c80:	0f 84 01 01 00 00    	je     8048d87 <phase_3+0x19a>
 8048c86:	66 90                	xchg   %ax,%ax
 8048c88:	e8 ef 08 00 00       	call   804957c <explode_bomb>
 8048c8d:	8d 76 00             	lea    0x0(%esi),%esi
 8048c90:	e9 f2 00 00 00       	jmp    8048d87 <phase_3+0x19a>
 8048c95:	81 7d f0 5a 02 00 00 	cmpl   $0x25a,-0x10(%ebp)
 8048c9c:	8d 74 26 00          	lea    0x0(%esi,%eiz,1),%esi
 8048ca0:	0f 84 dc 00 00 00    	je     8048d82 <phase_3+0x195>
 8048ca6:	66 90                	xchg   %ax,%ax
 8048ca8:	e8 cf 08 00 00       	call   804957c <explode_bomb>
 8048cad:	bb 6c 00 00 00       	mov    $0x6c,%ebx
 8048cb2:	8d b6 00 00 00 00    	lea    0x0(%esi),%esi
 8048cb8:	e9 ca 00 00 00       	jmp    8048d87 <phase_3+0x19a>
 8048cbd:	bb 76 00 00 00       	mov    $0x76,%ebx
 8048cc2:	81 7d f0 4e 02 00 00 	cmpl   $0x24e,-0x10(%ebp)
 8048cc9:	8d b4 26 00 00 00 00 	lea    0x0(%esi,%eiz,1),%esi
 8048cd0:	0f 84 b1 00 00 00    	je     8048d87 <phase_3+0x19a>
 8048cd6:	66 90                	xchg   %ax,%ax
 8048cd8:	e8 9f 08 00 00       	call   804957c <explode_bomb>
 8048cdd:	8d 76 00             	lea    0x0(%esi),%esi
 8048ce0:	e9 a2 00 00 00       	jmp    8048d87 <phase_3+0x19a>
 8048ce5:	bb 6a 00 00 00       	mov    $0x6a,%ebx
 8048cea:	81 7d f0 3e 01 00 00 	cmpl   $0x13e,-0x10(%ebp)
 8048cf1:	8d b4 26 00 00 00 00 	lea    0x0(%esi,%eiz,1),%esi
 8048cf8:	0f 84 89 00 00 00    	je     8048d87 <phase_3+0x19a>
 8048cfe:	66 90                	xchg   %ax,%ax
 8048d00:	e8 77 08 00 00       	call   804957c <explode_bomb>
 8048d05:	8d 76 00             	lea    0x0(%esi),%esi
 8048d08:	eb 7d                	jmp    8048d87 <phase_3+0x19a>
 8048d0a:	bb 66 00 00 00       	mov    $0x66,%ebx
 8048d0f:	81 7d f0 97 03 00 00 	cmpl   $0x397,-0x10(%ebp)
 8048d16:	66 90                	xchg   %ax,%ax
 8048d18:	74 6d                	je     8048d87 <phase_3+0x19a>
 8048d1a:	8d b6 00 00 00 00    	lea    0x0(%esi),%esi
 8048d20:	e8 57 08 00 00       	call   804957c <explode_bomb>
 8048d25:	8d 76 00             	lea    0x0(%esi),%esi
 8048d28:	eb 5d                	jmp    8048d87 <phase_3+0x19a>
 8048d2a:	bb 67 00 00 00       	mov    $0x67,%ebx
 8048d2f:	81 7d f0 bb 03 00 00 	cmpl   $0x3bb,-0x10(%ebp)
 8048d36:	66 90                	xchg   %ax,%ax
 8048d38:	74 4d                	je     8048d87 <phase_3+0x19a>
 8048d3a:	8d b6 00 00 00 00    	lea    0x0(%esi),%esi
 8048d40:	e8 37 08 00 00       	call   804957c <explode_bomb>
 8048d45:	8d 76 00             	lea    0x0(%esi),%esi
 8048d48:	eb 3d                	jmp    8048d87 <phase_3+0x19a>
 8048d4a:	bb 7a 00 00 00       	mov    $0x7a,%ebx
 8048d4f:	81 7d f0 be 03 00 00 	cmpl   $0x3be,-0x10(%ebp)
 8048d56:	66 90                	xchg   %ax,%ax
 8048d58:	74 2d                	je     8048d87 <phase_3+0x19a>
 8048d5a:	8d b6 00 00 00 00    	lea    0x0(%esi),%esi
 8048d60:	e8 17 08 00 00       	call   804957c <explode_bomb>
 8048d65:	8d 76 00             	lea    0x0(%esi),%esi
 8048d68:	eb 1d                	jmp    8048d87 <phase_3+0x19a>
 8048d6a:	8d b6 00 00 00 00    	lea    0x0(%esi),%esi
 8048d70:	e8 07 08 00 00       	call   804957c <explode_bomb>
 8048d75:	bb 72 00 00 00       	mov    $0x72,%ebx
 8048d7a:	8d b6 00 00 00 00    	lea    0x0(%esi),%esi
 8048d80:	eb 05                	jmp    8048d87 <phase_3+0x19a>
 8048d82:	bb 6c 00 00 00       	mov    $0x6c,%ebx
 8048d87:	3a 5d ef             	cmp    -0x11(%ebp),%bl
 8048d8a:	8d b6 00 00 00 00    	lea    0x0(%esi),%esi
 8048d90:	74 0b                	je     8048d9d <phase_3+0x1b0>
 8048d92:	8d b6 00 00 00 00    	lea    0x0(%esi),%esi
 8048d98:	e8 df 07 00 00       	call   804957c <explode_bomb>
 8048d9d:	83 c4 34             	add    $0x34,%esp
 8048da0:	5b                   	pop    %ebx
 8048da1:	5d                   	pop    %ebp
 8048da2:	c3                   	ret    

08048da3 <phase_2>:
 8048da3:	55                   	push   %ebp
 8048da4:	89 e5                	mov    %esp,%ebp
 8048da6:	57                   	push   %edi
 8048da7:	56                   	push   %esi
 8048da8:	53                   	push   %ebx
 8048da9:	83 ec 3c             	sub    $0x3c,%esp
 8048dac:	8d 45 d0             	lea    -0x30(%ebp),%eax
 8048daf:	89 44 24 04          	mov    %eax,0x4(%esp)
 8048db3:	8b 45 08             	mov    0x8(%ebp),%eax
 8048db6:	89 04 24             	mov    %eax,(%esp)
 8048db9:	e8 00 08 00 00       	call   80495be <read_six_numbers>
 8048dbe:	bb 01 00 00 00       	mov    $0x1,%ebx
 8048dc3:	8d 75 d0             	lea    -0x30(%ebp),%esi
 8048dc6:	bf 04 00 00 00       	mov    $0x4,%edi
 8048dcb:	89 f8                	mov    %edi,%eax
 8048dcd:	29 d8                	sub    %ebx,%eax
 8048dcf:	03 44 9e fc          	add    -0x4(%esi,%ebx,4),%eax
 8048dd3:	39 04 9e             	cmp    %eax,(%esi,%ebx,4)
 8048dd6:	74 05                	je     8048ddd <phase_2+0x3a>
 8048dd8:	e8 9f 07 00 00       	call   804957c <explode_bomb>
 8048ddd:	83 c3 01             	add    $0x1,%ebx
 8048de0:	83 fb 06             	cmp    $0x6,%ebx
 8048de3:	75 e6                	jne    8048dcb <phase_2+0x28>
 8048de5:	83 c4 3c             	add    $0x3c,%esp
 8048de8:	5b                   	pop    %ebx
 8048de9:	5e                   	pop    %esi
 8048dea:	5f                   	pop    %edi
 8048deb:	5d                   	pop    %ebp
 8048dec:	c3                   	ret    

08048ded <phase_1>:
 8048ded:	55                   	push   %ebp
 8048dee:	89 e5                	mov    %esp,%ebp
 8048df0:	83 ec 18             	sub    $0x18,%esp
 8048df3:	c7 44 24 04 40 9b 04 	movl   $0x8049b40,0x4(%esp)
 8048dfa:	08 
 8048dfb:	8b 45 08             	mov    0x8(%ebp),%eax
 8048dfe:	89 04 24             	mov    %eax,(%esp)
 8048e01:	e8 39 00 00 00       	call   8048e3f <strings_not_equal>
 8048e06:	85 c0                	test   %eax,%eax
 8048e08:	74 05                	je     8048e0f <phase_1+0x22>
 8048e0a:	e8 6d 07 00 00       	call   804957c <explode_bomb>
 8048e0f:	c9                   	leave  
 8048e10:	c3                   	ret    
 8048e11:	90                   	nop
 8048e12:	90                   	nop
 8048e13:	90                   	nop
 8048e14:	90                   	nop
 8048e15:	90                   	nop
 8048e16:	90                   	nop
 8048e17:	90                   	nop
 8048e18:	90                   	nop
 8048e19:	90                   	nop
 8048e1a:	90                   	nop
 8048e1b:	90                   	nop
 8048e1c:	90                   	nop
 8048e1d:	90                   	nop
 8048e1e:	90                   	nop
 8048e1f:	90                   	nop

08048e20 <string_length>:
 8048e20:	55                   	push   %ebp
 8048e21:	89 e5                	mov    %esp,%ebp
 8048e23:	53                   	push   %ebx
 8048e24:	8b 45 08             	mov    0x8(%ebp),%eax
 8048e27:	bb 00 00 00 00       	mov    $0x0,%ebx
 8048e2c:	80 38 00             	cmpb   $0x0,(%eax)
 8048e2f:	74 09                	je     8048e3a <string_length+0x1a>
 8048e31:	83 c3 01             	add    $0x1,%ebx
 8048e34:	80 3c 18 00          	cmpb   $0x0,(%eax,%ebx,1)
 8048e38:	75 f7                	jne    8048e31 <string_length+0x11>
 8048e3a:	89 d8                	mov    %ebx,%eax
 8048e3c:	5b                   	pop    %ebx
 8048e3d:	5d                   	pop    %ebp
 8048e3e:	c3                   	ret    

08048e3f <strings_not_equal>:
 8048e3f:	55                   	push   %ebp
 8048e40:	89 e5                	mov    %esp,%ebp
 8048e42:	57                   	push   %edi
 8048e43:	56                   	push   %esi
 8048e44:	53                   	push   %ebx
 8048e45:	83 ec 04             	sub    $0x4,%esp
 8048e48:	8b 5d 08             	mov    0x8(%ebp),%ebx
 8048e4b:	8b 75 0c             	mov    0xc(%ebp),%esi
 8048e4e:	89 1c 24             	mov    %ebx,(%esp)
 8048e51:	e8 ca ff ff ff       	call   8048e20 <string_length>
 8048e56:	89 c7                	mov    %eax,%edi
 8048e58:	89 34 24             	mov    %esi,(%esp)
 8048e5b:	e8 c0 ff ff ff       	call   8048e20 <string_length>
 8048e60:	39 c7                	cmp    %eax,%edi
 8048e62:	75 2d                	jne    8048e91 <strings_not_equal+0x52>
 8048e64:	0f b6 13             	movzbl (%ebx),%edx
 8048e67:	84 d2                	test   %dl,%dl
 8048e69:	74 2f                	je     8048e9a <strings_not_equal+0x5b>
 8048e6b:	b8 00 00 00 00       	mov    $0x0,%eax
 8048e70:	3a 16                	cmp    (%esi),%dl
 8048e72:	74 12                	je     8048e86 <strings_not_equal+0x47>
 8048e74:	8d 74 26 00          	lea    0x0(%esi,%eiz,1),%esi
 8048e78:	eb 17                	jmp    8048e91 <strings_not_equal+0x52>
 8048e7a:	0f b6 4c 06 01       	movzbl 0x1(%esi,%eax,1),%ecx
 8048e7f:	83 c0 01             	add    $0x1,%eax
 8048e82:	38 ca                	cmp    %cl,%dl
 8048e84:	75 0b                	jne    8048e91 <strings_not_equal+0x52>
 8048e86:	0f b6 54 03 01       	movzbl 0x1(%ebx,%eax,1),%edx
 8048e8b:	84 d2                	test   %dl,%dl
 8048e8d:	75 eb                	jne    8048e7a <strings_not_equal+0x3b>
 8048e8f:	eb 09                	jmp    8048e9a <strings_not_equal+0x5b>
 8048e91:	b8 01 00 00 00       	mov    $0x1,%eax
 8048e96:	66 90                	xchg   %ax,%ax
 8048e98:	eb 05                	jmp    8048e9f <strings_not_equal+0x60>
 8048e9a:	b8 00 00 00 00       	mov    $0x0,%eax
 8048e9f:	83 c4 04             	add    $0x4,%esp
 8048ea2:	5b                   	pop    %ebx
 8048ea3:	5e                   	pop    %esi
 8048ea4:	5f                   	pop    %edi
 8048ea5:	5d                   	pop    %ebp
 8048ea6:	66 90                	xchg   %ax,%ax
 8048ea8:	c3                   	ret    

08048ea9 <send_msg_2>:
 8048ea9:	55                   	push   %ebp
 8048eaa:	89 e5                	mov    %esp,%ebp
 8048eac:	57                   	push   %edi
 8048ead:	56                   	push   %esi
 8048eae:	53                   	push   %ebx
 8048eaf:	81 ec 8c 00 00 00    	sub    $0x8c,%esp
 8048eb5:	c7 04 24 00 00 00 00 	movl   $0x0,(%esp)
 8048ebc:	e8 1f fa ff ff       	call   80488e0 <dup@plt>
 8048ec1:	89 45 94             	mov    %eax,-0x6c(%ebp)
 8048ec4:	83 f8 ff             	cmp    $0xffffffff,%eax
 8048ec7:	75 18                	jne    8048ee1 <send_msg_2+0x38>
 8048ec9:	c7 04 24 6a 9b 04 08 	movl   $0x8049b6a,(%esp)
 8048ed0:	e8 bb fa ff ff       	call   8048990 <puts@plt>
 8048ed5:	c7 04 24 08 00 00 00 	movl   $0x8,(%esp)
 8048edc:	e8 df fa ff ff       	call   80489c0 <exit@plt>
 8048ee1:	c7 04 24 00 00 00 00 	movl   $0x0,(%esp)
 8048ee8:	e8 33 fa ff ff       	call   8048920 <close@plt>
 8048eed:	83 f8 ff             	cmp    $0xffffffff,%eax
 8048ef0:	75 18                	jne    8048f0a <send_msg_2+0x61>
 8048ef2:	c7 04 24 7e 9b 04 08 	movl   $0x8049b7e,(%esp)
 8048ef9:	e8 92 fa ff ff       	call   8048990 <puts@plt>
 8048efe:	c7 04 24 08 00 00 00 	movl   $0x8,(%esp)
 8048f05:	e8 b6 fa ff ff       	call   80489c0 <exit@plt>
 8048f0a:	e8 61 f9 ff ff       	call   8048870 <tmpfile@plt>
 8048f0f:	89 c7                	mov    %eax,%edi
 8048f11:	85 c0                	test   %eax,%eax
 8048f13:	75 18                	jne    8048f2d <send_msg_2+0x84>
 8048f15:	c7 04 24 91 9b 04 08 	movl   $0x8049b91,(%esp)
 8048f1c:	e8 6f fa ff ff       	call   8048990 <puts@plt>
 8048f21:	c7 04 24 08 00 00 00 	movl   $0x8,(%esp)
 8048f28:	e8 93 fa ff ff       	call   80489c0 <exit@plt>
 8048f2d:	89 44 24 0c          	mov    %eax,0xc(%esp)
 8048f31:	c7 44 24 08 1b 00 00 	movl   $0x1b,0x8(%esp)
 8048f38:	00 
 8048f39:	c7 44 24 04 01 00 00 	movl   $0x1,0x4(%esp)
 8048f40:	00 
 8048f41:	c7 04 24 a6 9b 04 08 	movl   $0x8049ba6,(%esp)
 8048f48:	e8 e3 f9 ff ff       	call   8048930 <fwrite@plt>
 8048f4d:	89 7c 24 04          	mov    %edi,0x4(%esp)
 8048f51:	c7 04 24 0a 00 00 00 	movl   $0xa,(%esp)
 8048f58:	e8 03 fa ff ff       	call   8048960 <fputc@plt>
 8048f5d:	c7 04 24 00 00 00 00 	movl   $0x0,(%esp)
 8048f64:	e8 e7 f9 ff ff       	call   8048950 <cuserid@plt>
 8048f69:	85 c0                	test   %eax,%eax
 8048f6b:	75 15                	jne    8048f82 <send_msg_2+0xd9>
 8048f6d:	8d 45 98             	lea    -0x68(%ebp),%eax
 8048f70:	c7 00 6e 6f 62 6f    	movl   $0x6f626f6e,(%eax)
 8048f76:	66 c7 40 04 64 79    	movw   $0x7964,0x4(%eax)
 8048f7c:	c6 40 06 00          	movb   $0x0,0x6(%eax)
 8048f80:	eb 0f                	jmp    8048f91 <send_msg_2+0xe8>
 8048f82:	89 44 24 04          	mov    %eax,0x4(%esp)
 8048f86:	8d 45 98             	lea    -0x68(%ebp),%eax
 8048f89:	89 04 24             	mov    %eax,(%esp)
 8048f8c:	e8 6f f9 ff ff       	call   8048900 <strcpy@plt>
 8048f91:	8b 15 ec a5 04 08    	mov    0x804a5ec,%edx
 8048f97:	b8 cb 9b 04 08       	mov    $0x8049bcb,%eax
 8048f9c:	83 7d 08 00          	cmpl   $0x0,0x8(%ebp)
 8048fa0:	75 05                	jne    8048fa7 <send_msg_2+0xfe>
 8048fa2:	b8 c2 9b 04 08       	mov    $0x8049bc2,%eax
 8048fa7:	89 54 24 18          	mov    %edx,0x18(%esp)
 8048fab:	89 44 24 14          	mov    %eax,0x14(%esp)
 8048faf:	8d 45 98             	lea    -0x68(%ebp),%eax
 8048fb2:	89 44 24 10          	mov    %eax,0x10(%esp)
 8048fb6:	8b 1d a0 a1 04 08    	mov    0x804a1a0,%ebx
 8048fbc:	89 5c 24 0c          	mov    %ebx,0xc(%esp)
 8048fc0:	c7 44 24 08 c0 a1 04 	movl   $0x804a1c0,0x8(%esp)
 8048fc7:	08 
 8048fc8:	c7 44 24 04 d3 9b 04 	movl   $0x8049bd3,0x4(%esp)
 8048fcf:	08 
 8048fd0:	89 3c 24             	mov    %edi,(%esp)
 8048fd3:	e8 68 f9 ff ff       	call   8048940 <fprintf@plt>
 8048fd8:	83 3d ec a5 04 08 00 	cmpl   $0x0,0x804a5ec
 8048fdf:	7e 48                	jle    8049029 <send_msg_2+0x180>
 8048fe1:	be 00 a6 04 08       	mov    $0x804a600,%esi
 8048fe6:	bb 00 00 00 00       	mov    $0x0,%ebx
 8048feb:	83 c3 01             	add    $0x1,%ebx
 8048fee:	89 74 24 18          	mov    %esi,0x18(%esp)
 8048ff2:	89 5c 24 14          	mov    %ebx,0x14(%esp)
 8048ff6:	8d 45 98             	lea    -0x68(%ebp),%eax
 8048ff9:	89 44 24 10          	mov    %eax,0x10(%esp)
 8048ffd:	a1 a0 a1 04 08       	mov    0x804a1a0,%eax
 8049002:	89 44 24 0c          	mov    %eax,0xc(%esp)
 8049006:	c7 44 24 08 c0 a1 04 	movl   $0x804a1c0,0x8(%esp)
 804900d:	08 
 804900e:	c7 44 24 04 ef 9b 04 	movl   $0x8049bef,0x4(%esp)
 8049015:	08 
 8049016:	89 3c 24             	mov    %edi,(%esp)
 8049019:	e8 22 f9 ff ff       	call   8048940 <fprintf@plt>
 804901e:	83 c6 50             	add    $0x50,%esi
 8049021:	39 1d ec a5 04 08    	cmp    %ebx,0x804a5ec
 8049027:	7f c2                	jg     8048feb <send_msg_2+0x142>
 8049029:	89 3c 24             	mov    %edi,(%esp)
 804902c:	e8 df f7 ff ff       	call   8048810 <rewind@plt>
 8049031:	c7 44 24 10 0b 9c 04 	movl   $0x8049c0b,0x10(%esp)
 8049038:	08 
 8049039:	c7 44 24 0c 15 9c 04 	movl   $0x8049c15,0xc(%esp)
 8049040:	08 
 8049041:	c7 44 24 08 20 9c 04 	movl   $0x8049c20,0x8(%esp)
 8049048:	08 
 8049049:	c7 44 24 04 37 9c 04 	movl   $0x8049c37,0x4(%esp)
 8049050:	08 
 8049051:	c7 04 24 40 ac 04 08 	movl   $0x804ac40,(%esp)
 8049058:	e8 73 f7 ff ff       	call   80487d0 <sprintf@plt>
 804905d:	c7 04 24 40 ac 04 08 	movl   $0x804ac40,(%esp)
 8049064:	e8 c7 f7 ff ff       	call   8048830 <system@plt>
 8049069:	85 c0                	test   %eax,%eax
 804906b:	74 18                	je     8049085 <send_msg_2+0x1dc>
 804906d:	c7 04 24 40 9c 04 08 	movl   $0x8049c40,(%esp)
 8049074:	e8 17 f9 ff ff       	call   8048990 <puts@plt>
 8049079:	c7 04 24 08 00 00 00 	movl   $0x8,(%esp)
 8049080:	e8 3b f9 ff ff       	call   80489c0 <exit@plt>
 8049085:	89 3c 24             	mov    %edi,(%esp)
 8049088:	e8 33 f8 ff ff       	call   80488c0 <fclose@plt>
 804908d:	85 c0                	test   %eax,%eax
 804908f:	74 18                	je     80490a9 <send_msg_2+0x200>
 8049091:	c7 04 24 5a 9c 04 08 	movl   $0x8049c5a,(%esp)
 8049098:	e8 f3 f8 ff ff       	call   8048990 <puts@plt>
 804909d:	c7 04 24 08 00 00 00 	movl   $0x8,(%esp)
 80490a4:	e8 17 f9 ff ff       	call   80489c0 <exit@plt>
 80490a9:	8b 45 94             	mov    -0x6c(%ebp),%eax
 80490ac:	89 04 24             	mov    %eax,(%esp)
 80490af:	e8 2c f8 ff ff       	call   80488e0 <dup@plt>
 80490b4:	85 c0                	test   %eax,%eax
 80490b6:	74 18                	je     80490d0 <send_msg_2+0x227>
 80490b8:	c7 04 24 73 9c 04 08 	movl   $0x8049c73,(%esp)
 80490bf:	e8 cc f8 ff ff       	call   8048990 <puts@plt>
 80490c4:	c7 04 24 08 00 00 00 	movl   $0x8,(%esp)
 80490cb:	e8 f0 f8 ff ff       	call   80489c0 <exit@plt>
 80490d0:	8b 45 94             	mov    -0x6c(%ebp),%eax
 80490d3:	89 04 24             	mov    %eax,(%esp)
 80490d6:	e8 45 f8 ff ff       	call   8048920 <close@plt>
 80490db:	85 c0                	test   %eax,%eax
 80490dd:	74 18                	je     80490f7 <send_msg_2+0x24e>
 80490df:	c7 04 24 8e 9c 04 08 	movl   $0x8049c8e,(%esp)
 80490e6:	e8 a5 f8 ff ff       	call   8048990 <puts@plt>
 80490eb:	c7 04 24 08 00 00 00 	movl   $0x8,(%esp)
 80490f2:	e8 c9 f8 ff ff       	call   80489c0 <exit@plt>
 80490f7:	81 c4 8c 00 00 00    	add    $0x8c,%esp
 80490fd:	5b                   	pop    %ebx
 80490fe:	5e                   	pop    %esi
 80490ff:	5f                   	pop    %edi
 8049100:	5d                   	pop    %ebp
 8049101:	c3                   	ret    

08049102 <writen>:
 8049102:	55                   	push   %ebp
 8049103:	89 e5                	mov    %esp,%ebp
 8049105:	57                   	push   %edi
 8049106:	56                   	push   %esi
 8049107:	53                   	push   %ebx
 8049108:	83 ec 1c             	sub    $0x1c,%esp
 804910b:	83 7d 10 00          	cmpl   $0x0,0x10(%ebp)
 804910f:	74 49                	je     804915a <writen+0x58>
 8049111:	8b 7d 0c             	mov    0xc(%ebp),%edi
 8049114:	8b 75 10             	mov    0x10(%ebp),%esi
 8049117:	89 74 24 08          	mov    %esi,0x8(%esp)
 804911b:	89 7c 24 04          	mov    %edi,0x4(%esp)
 804911f:	8b 45 08             	mov    0x8(%ebp),%eax
 8049122:	89 04 24             	mov    %eax,(%esp)
 8049125:	e8 16 f7 ff ff       	call   8048840 <write@plt>
 804912a:	89 c3                	mov    %eax,%ebx
 804912c:	85 c0                	test   %eax,%eax
 804912e:	7f 17                	jg     8049147 <writen+0x45>
 8049130:	e8 8b f6 ff ff       	call   80487c0 <__errno_location@plt>
 8049135:	83 38 04             	cmpl   $0x4,(%eax)
 8049138:	74 08                	je     8049142 <writen+0x40>
 804913a:	b8 ff ff ff ff       	mov    $0xffffffff,%eax
 804913f:	90                   	nop
 8049140:	eb 1b                	jmp    804915d <writen+0x5b>
 8049142:	bb 00 00 00 00       	mov    $0x0,%ebx
 8049147:	29 de                	sub    %ebx,%esi
 8049149:	8d b4 26 00 00 00 00 	lea    0x0(%esi,%eiz,1),%esi
 8049150:	74 08                	je     804915a <writen+0x58>
 8049152:	01 df                	add    %ebx,%edi
 8049154:	8d 74 26 00          	lea    0x0(%esi,%eiz,1),%esi
 8049158:	eb bd                	jmp    8049117 <writen+0x15>
 804915a:	8b 45 10             	mov    0x10(%ebp),%eax
 804915d:	83 c4 1c             	add    $0x1c,%esp
 8049160:	5b                   	pop    %ebx
 8049161:	5e                   	pop    %esi
 8049162:	5f                   	pop    %edi
 8049163:	5d                   	pop    %ebp
 8049164:	c3                   	ret    

08049165 <send_msg>:
 8049165:	55                   	push   %ebp
 8049166:	89 e5                	mov    %esp,%ebp
 8049168:	57                   	push   %edi
 8049169:	56                   	push   %esi
 804916a:	53                   	push   %ebx
 804916b:	81 ec 9c 24 00 00    	sub    $0x249c,%esp
 8049171:	c7 44 24 08 00 00 00 	movl   $0x0,0x8(%esp)
 8049178:	00 
 8049179:	c7 44 24 04 01 00 00 	movl   $0x1,0x4(%esp)
 8049180:	00 
 8049181:	c7 04 24 02 00 00 00 	movl   $0x2,(%esp)
 8049188:	e8 13 f7 ff ff       	call   80488a0 <socket@plt>
 804918d:	89 85 84 db ff ff    	mov    %eax,-0x247c(%ebp)
 8049193:	85 c0                	test   %eax,%eax
 8049195:	79 38                	jns    80491cf <send_msg+0x6a>
 8049197:	c7 44 24 08 a5 9c 04 	movl   $0x8049ca5,0x8(%esp)
 804919e:	08 
 804919f:	c7 44 24 04 01 9a 04 	movl   $0x8049a01,0x4(%esp)
 80491a6:	08 
 80491a7:	8b 1d e0 a5 04 08    	mov    0x804a5e0,%ebx
 80491ad:	89 1c 24             	mov    %ebx,(%esp)
 80491b0:	e8 8b f7 ff ff       	call   8048940 <fprintf@plt>
 80491b5:	8b 85 84 db ff ff    	mov    -0x247c(%ebp),%eax
 80491bb:	89 04 24             	mov    %eax,(%esp)
 80491be:	e8 5d f7 ff ff       	call   8048920 <close@plt>
 80491c3:	c7 04 24 01 00 00 00 	movl   $0x1,(%esp)
 80491ca:	e8 f1 f7 ff ff       	call   80489c0 <exit@plt>
 80491cf:	8d 45 d8             	lea    -0x28(%ebp),%eax
 80491d2:	c7 40 04 00 00 00 00 	movl   $0x0,0x4(%eax)
 80491d9:	c7 40 08 00 00 00 00 	movl   $0x0,0x8(%eax)
 80491e0:	c7 40 0c 00 00 00 00 	movl   $0x0,0xc(%eax)
 80491e7:	66 c7 45 d8 02 00    	movw   $0x2,-0x28(%ebp)
 80491ed:	66 c7 45 da cc 62    	movw   $0x62cc,-0x26(%ebp)
 80491f3:	8d 45 dc             	lea    -0x24(%ebp),%eax
 80491f6:	89 44 24 08          	mov    %eax,0x8(%esp)
 80491fa:	c7 44 24 04 b2 9c 04 	movl   $0x8049cb2,0x4(%esp)
 8049201:	08 
 8049202:	c7 04 24 02 00 00 00 	movl   $0x2,(%esp)
 8049209:	e8 72 f6 ff ff       	call   8048880 <inet_pton@plt>
 804920e:	85 c0                	test   %eax,%eax
 8049210:	79 41                	jns    8049253 <send_msg+0xee>
 8049212:	c7 44 24 08 78 9b 04 	movl   $0x8049b78,0x8(%esp)
 8049219:	08 
 804921a:	c7 44 24 04 01 9a 04 	movl   $0x8049a01,0x4(%esp)
 8049221:	08 
 8049222:	8b 1d e0 a5 04 08    	mov    0x804a5e0,%ebx
 8049228:	89 1c 24             	mov    %ebx,(%esp)
 804922b:	e8 10 f7 ff ff       	call   8048940 <fprintf@plt>
 8049230:	83 bd 84 db ff ff 00 	cmpl   $0x0,-0x247c(%ebp)
 8049237:	74 0e                	je     8049247 <send_msg+0xe2>
 8049239:	8b 8d 84 db ff ff    	mov    -0x247c(%ebp),%ecx
 804923f:	89 0c 24             	mov    %ecx,(%esp)
 8049242:	e8 d9 f6 ff ff       	call   8048920 <close@plt>
 8049247:	c7 04 24 01 00 00 00 	movl   $0x1,(%esp)
 804924e:	e8 6d f7 ff ff       	call   80489c0 <exit@plt>
 8049253:	c7 44 24 08 10 00 00 	movl   $0x10,0x8(%esp)
 804925a:	00 
 804925b:	8d 45 d8             	lea    -0x28(%ebp),%eax
 804925e:	89 44 24 04          	mov    %eax,0x4(%esp)
 8049262:	8b 85 84 db ff ff    	mov    -0x247c(%ebp),%eax
 8049268:	89 04 24             	mov    %eax,(%esp)
 804926b:	e8 70 f5 ff ff       	call   80487e0 <connect@plt>
 8049270:	85 c0                	test   %eax,%eax
 8049272:	79 41                	jns    80492b5 <send_msg+0x150>
 8049274:	c7 44 24 08 c1 9c 04 	movl   $0x8049cc1,0x8(%esp)
 804927b:	08 
 804927c:	c7 44 24 04 01 9a 04 	movl   $0x8049a01,0x4(%esp)
 8049283:	08 
 8049284:	8b 1d e0 a5 04 08    	mov    0x804a5e0,%ebx
 804928a:	89 1c 24             	mov    %ebx,(%esp)
 804928d:	e8 ae f6 ff ff       	call   8048940 <fprintf@plt>
 8049292:	83 bd 84 db ff ff 00 	cmpl   $0x0,-0x247c(%ebp)
 8049299:	74 0e                	je     80492a9 <send_msg+0x144>
 804929b:	8b 8d 84 db ff ff    	mov    -0x247c(%ebp),%ecx
 80492a1:	89 0c 24             	mov    %ecx,(%esp)
 80492a4:	e8 77 f6 ff ff       	call   8048920 <close@plt>
 80492a9:	c7 04 24 01 00 00 00 	movl   $0x1,(%esp)
 80492b0:	e8 0b f7 ff ff       	call   80489c0 <exit@plt>
 80492b5:	8d bd d8 db ff ff    	lea    -0x2428(%ebp),%edi
 80492bb:	c7 07 53 75 62 6a    	movl   $0x6a627553,(%edi)
 80492c1:	c7 47 04 65 63 74 3a 	movl   $0x3a746365,0x4(%edi)
 80492c8:	c7 47 08 20 42 6f 6d 	movl   $0x6d6f4220,0x8(%edi)
 80492cf:	c7 47 0c 62 20 6e 6f 	movl   $0x6f6e2062,0xc(%edi)
 80492d6:	c7 47 10 74 69 66 69 	movl   $0x69666974,0x10(%edi)
 80492dd:	c7 47 14 63 61 74 69 	movl   $0x69746163,0x14(%edi)
 80492e4:	c7 47 18 6f 6e 0a 00 	movl   $0xa6e6f,0x18(%edi)
 80492eb:	89 7c 24 04          	mov    %edi,0x4(%esp)
 80492ef:	8d 9d d8 df ff ff    	lea    -0x2028(%ebp),%ebx
 80492f5:	89 1c 24             	mov    %ebx,(%esp)
 80492f8:	e8 83 f6 ff ff       	call   8048980 <strcat@plt>
 80492fd:	66 c7 07 0a 00       	movw   $0xa,(%edi)
 8049302:	89 7c 24 04          	mov    %edi,0x4(%esp)
 8049306:	89 1c 24             	mov    %ebx,(%esp)
 8049309:	e8 72 f6 ff ff       	call   8048980 <strcat@plt>
 804930e:	c7 04 24 00 00 00 00 	movl   $0x0,(%esp)
 8049315:	e8 36 f6 ff ff       	call   8048950 <cuserid@plt>
 804931a:	85 c0                	test   %eax,%eax
 804931c:	75 18                	jne    8049336 <send_msg+0x1d1>
 804931e:	8d 85 88 db ff ff    	lea    -0x2478(%ebp),%eax
 8049324:	c7 00 6e 6f 62 6f    	movl   $0x6f626f6e,(%eax)
 804932a:	66 c7 40 04 64 79    	movw   $0x7964,0x4(%eax)
 8049330:	c6 40 06 00          	movb   $0x0,0x6(%eax)
 8049334:	eb 12                	jmp    8049348 <send_msg+0x1e3>
 8049336:	89 44 24 04          	mov    %eax,0x4(%esp)
 804933a:	8d 85 88 db ff ff    	lea    -0x2478(%ebp),%eax
 8049340:	89 04 24             	mov    %eax,(%esp)
 8049343:	e8 b8 f5 ff ff       	call   8048900 <strcpy@plt>
 8049348:	8b 15 ec a5 04 08    	mov    0x804a5ec,%edx
 804934e:	b8 cb 9b 04 08       	mov    $0x8049bcb,%eax
 8049353:	83 7d 08 00          	cmpl   $0x0,0x8(%ebp)
 8049357:	75 05                	jne    804935e <send_msg+0x1f9>
 8049359:	b8 c2 9b 04 08       	mov    $0x8049bc2,%eax
 804935e:	89 54 24 18          	mov    %edx,0x18(%esp)
 8049362:	89 44 24 14          	mov    %eax,0x14(%esp)
 8049366:	8d 85 88 db ff ff    	lea    -0x2478(%ebp),%eax
 804936c:	89 44 24 10          	mov    %eax,0x10(%esp)
 8049370:	8b 1d a0 a1 04 08    	mov    0x804a1a0,%ebx
 8049376:	89 5c 24 0c          	mov    %ebx,0xc(%esp)
 804937a:	c7 44 24 08 c0 a1 04 	movl   $0x804a1c0,0x8(%esp)
 8049381:	08 
 8049382:	c7 44 24 04 d3 9b 04 	movl   $0x8049bd3,0x4(%esp)
 8049389:	08 
 804938a:	8d 85 d8 db ff ff    	lea    -0x2428(%ebp),%eax
 8049390:	89 04 24             	mov    %eax,(%esp)
 8049393:	e8 38 f4 ff ff       	call   80487d0 <sprintf@plt>
 8049398:	89 7c 24 04          	mov    %edi,0x4(%esp)
 804939c:	8d 85 d8 df ff ff    	lea    -0x2028(%ebp),%eax
 80493a2:	89 04 24             	mov    %eax,(%esp)
 80493a5:	e8 d6 f5 ff ff       	call   8048980 <strcat@plt>
 80493aa:	83 3d ec a5 04 08 00 	cmpl   $0x0,0x804a5ec
 80493b1:	7e 64                	jle    8049417 <send_msg+0x2b2>
 80493b3:	be 00 a6 04 08       	mov    $0x804a600,%esi
 80493b8:	bb 00 00 00 00       	mov    $0x0,%ebx
 80493bd:	83 c3 01             	add    $0x1,%ebx
 80493c0:	89 74 24 18          	mov    %esi,0x18(%esp)
 80493c4:	89 5c 24 14          	mov    %ebx,0x14(%esp)
 80493c8:	8d 85 88 db ff ff    	lea    -0x2478(%ebp),%eax
 80493ce:	89 44 24 10          	mov    %eax,0x10(%esp)
 80493d2:	8b 0d a0 a1 04 08    	mov    0x804a1a0,%ecx
 80493d8:	89 4c 24 0c          	mov    %ecx,0xc(%esp)
 80493dc:	c7 44 24 08 c0 a1 04 	movl   $0x804a1c0,0x8(%esp)
 80493e3:	08 
 80493e4:	c7 44 24 04 ef 9b 04 	movl   $0x8049bef,0x4(%esp)
 80493eb:	08 
 80493ec:	8d 85 d8 db ff ff    	lea    -0x2428(%ebp),%eax
 80493f2:	89 04 24             	mov    %eax,(%esp)
 80493f5:	e8 d6 f3 ff ff       	call   80487d0 <sprintf@plt>
 80493fa:	89 7c 24 04          	mov    %edi,0x4(%esp)
 80493fe:	8d 8d d8 df ff ff    	lea    -0x2028(%ebp),%ecx
 8049404:	89 0c 24             	mov    %ecx,(%esp)
 8049407:	e8 74 f5 ff ff       	call   8048980 <strcat@plt>
 804940c:	83 c6 50             	add    $0x50,%esi
 804940f:	39 1d ec a5 04 08    	cmp    %ebx,0x804a5ec
 8049415:	7f a6                	jg     80493bd <send_msg+0x258>
 8049417:	8d 9d d8 df ff ff    	lea    -0x2028(%ebp),%ebx
 804941d:	be ff ff ff ff       	mov    $0xffffffff,%esi
 8049422:	89 df                	mov    %ebx,%edi
 8049424:	89 f1                	mov    %esi,%ecx
 8049426:	b8 00 00 00 00       	mov    $0x0,%eax
 804942b:	f2 ae                	repnz scas %es:(%edi),%al
 804942d:	f7 d1                	not    %ecx
 804942f:	83 e9 01             	sub    $0x1,%ecx
 8049432:	89 4c 24 08          	mov    %ecx,0x8(%esp)
 8049436:	89 5c 24 04          	mov    %ebx,0x4(%esp)
 804943a:	8b 8d 84 db ff ff    	mov    -0x247c(%ebp),%ecx
 8049440:	89 0c 24             	mov    %ecx,(%esp)
 8049443:	e8 ba fc ff ff       	call   8049102 <writen>
 8049448:	89 c2                	mov    %eax,%edx
 804944a:	89 df                	mov    %ebx,%edi
 804944c:	89 f1                	mov    %esi,%ecx
 804944e:	b8 00 00 00 00       	mov    $0x0,%eax
 8049453:	f2 ae                	repnz scas %es:(%edi),%al
 8049455:	89 ce                	mov    %ecx,%esi
 8049457:	f7 d6                	not    %esi
 8049459:	83 ee 01             	sub    $0x1,%esi
 804945c:	39 f2                	cmp    %esi,%edx
 804945e:	73 41                	jae    80494a1 <send_msg+0x33c>
 8049460:	c7 44 24 08 cf 9c 04 	movl   $0x8049ccf,0x8(%esp)
 8049467:	08 
 8049468:	c7 44 24 04 01 9a 04 	movl   $0x8049a01,0x4(%esp)
 804946f:	08 
 8049470:	8b 1d e0 a5 04 08    	mov    0x804a5e0,%ebx
 8049476:	89 1c 24             	mov    %ebx,(%esp)
 8049479:	e8 c2 f4 ff ff       	call   8048940 <fprintf@plt>
 804947e:	83 bd 84 db ff ff 00 	cmpl   $0x0,-0x247c(%ebp)
 8049485:	74 0e                	je     8049495 <send_msg+0x330>
 8049487:	8b 85 84 db ff ff    	mov    -0x247c(%ebp),%eax
 804948d:	89 04 24             	mov    %eax,(%esp)
 8049490:	e8 8b f4 ff ff       	call   8048920 <close@plt>
 8049495:	c7 04 24 01 00 00 00 	movl   $0x1,(%esp)
 804949c:	e8 1f f5 ff ff       	call   80489c0 <exit@plt>
 80494a1:	8b 8d 84 db ff ff    	mov    -0x247c(%ebp),%ecx
 80494a7:	89 0c 24             	mov    %ecx,(%esp)
 80494aa:	e8 71 f4 ff ff       	call   8048920 <close@plt>
 80494af:	81 c4 9c 24 00 00    	add    $0x249c,%esp
 80494b5:	5b                   	pop    %ebx
 80494b6:	5e                   	pop    %esi
 80494b7:	5f                   	pop    %edi
 80494b8:	5d                   	pop    %ebp
 80494b9:	c3                   	ret    

080494ba <phase_defused>:
 80494ba:	55                   	push   %ebp
 80494bb:	89 e5                	mov    %esp,%ebp
 80494bd:	53                   	push   %ebx
 80494be:	81 ec a4 00 00 00    	sub    $0xa4,%esp
 80494c4:	c7 04 24 01 00 00 00 	movl   $0x1,(%esp)
 80494cb:	e8 95 fc ff ff       	call   8049165 <send_msg>
 80494d0:	83 3d ec a5 04 08 03 	cmpl   $0x3,0x804a5ec
 80494d7:	0f 85 96 00 00 00    	jne    8049573 <phase_defused+0xb9>
 80494dd:	8d 45 a8             	lea    -0x58(%ebp),%eax
 80494e0:	89 44 24 20          	mov    %eax,0x20(%esp)
 80494e4:	8d 45 90             	lea    -0x70(%ebp),%eax
 80494e7:	89 44 24 1c          	mov    %eax,0x1c(%esp)
 80494eb:	8d 45 94             	lea    -0x6c(%ebp),%eax
 80494ee:	89 44 24 18          	mov    %eax,0x18(%esp)
 80494f2:	8d 45 98             	lea    -0x68(%ebp),%eax
 80494f5:	89 44 24 14          	mov    %eax,0x14(%esp)
 80494f9:	8d 45 9c             	lea    -0x64(%ebp),%eax
 80494fc:	89 44 24 10          	mov    %eax,0x10(%esp)
 8049500:	8d 45 a0             	lea    -0x60(%ebp),%eax
 8049503:	89 44 24 0c          	mov    %eax,0xc(%esp)
 8049507:	8d 45 a4             	lea    -0x5c(%ebp),%eax
 804950a:	89 44 24 08          	mov    %eax,0x8(%esp)
 804950e:	c7 44 24 04 e2 9c 04 	movl   $0x8049ce2,0x4(%esp)
 8049515:	08 
 8049516:	c7 04 24 50 a6 04 08 	movl   $0x804a650,(%esp)
 804951d:	e8 7e f4 ff ff       	call   80489a0 <sscanf@plt>
 8049522:	83 f8 07             	cmp    $0x7,%eax
 8049525:	75 34                	jne    804955b <phase_defused+0xa1>
 8049527:	c7 44 24 04 f7 9c 04 	movl   $0x8049cf7,0x4(%esp)
 804952e:	08 
 804952f:	8d 45 a8             	lea    -0x58(%ebp),%eax
 8049532:	89 04 24             	mov    %eax,(%esp)
 8049535:	e8 05 f9 ff ff       	call   8048e3f <strings_not_equal>
 804953a:	85 c0                	test   %eax,%eax
 804953c:	75 1d                	jne    804955b <phase_defused+0xa1>
 804953e:	c7 04 24 bc 9d 04 08 	movl   $0x8049dbc,(%esp)
 8049545:	e8 46 f4 ff ff       	call   8048990 <puts@plt>
 804954a:	c7 04 24 e4 9d 04 08 	movl   $0x8049de4,(%esp)
 8049551:	e8 3a f4 ff ff       	call   8048990 <puts@plt>
 8049556:	e8 35 f6 ff ff       	call   8048b90 <secret_phase>
 804955b:	c7 04 24 1c 9e 04 08 	movl   $0x8049e1c,(%esp)
 8049562:	e8 29 f4 ff ff       	call   8048990 <puts@plt>
 8049567:	c7 04 24 48 9e 04 08 	movl   $0x8049e48,(%esp)
 804956e:	e8 1d f4 ff ff       	call   8048990 <puts@plt>
 8049573:	81 c4 a4 00 00 00    	add    $0xa4,%esp
 8049579:	5b                   	pop    %ebx
 804957a:	5d                   	pop    %ebp
 804957b:	c3                   	ret    

0804957c <explode_bomb>:
 804957c:	55                   	push   %ebp
 804957d:	89 e5                	mov    %esp,%ebp
 804957f:	83 ec 18             	sub    $0x18,%esp
 8049582:	c7 04 24 fa 9c 04 08 	movl   $0x8049cfa,(%esp)
 8049589:	e8 02 f4 ff ff       	call   8048990 <puts@plt>
 804958e:	c7 04 24 03 9d 04 08 	movl   $0x8049d03,(%esp)
 8049595:	e8 f6 f3 ff ff       	call   8048990 <puts@plt>
 804959a:	c7 04 24 00 00 00 00 	movl   $0x0,(%esp)
 80495a1:	e8 bf fb ff ff       	call   8049165 <send_msg>
 80495a6:	c7 04 24 8c 9e 04 08 	movl   $0x8049e8c,(%esp)
 80495ad:	e8 de f3 ff ff       	call   8048990 <puts@plt>
 80495b2:	c7 04 24 08 00 00 00 	movl   $0x8,(%esp)
 80495b9:	e8 02 f4 ff ff       	call   80489c0 <exit@plt>

080495be <read_six_numbers>:
 80495be:	55                   	push   %ebp
 80495bf:	89 e5                	mov    %esp,%ebp
 80495c1:	53                   	push   %ebx
 80495c2:	83 ec 24             	sub    $0x24,%esp
 80495c5:	8b 45 0c             	mov    0xc(%ebp),%eax
 80495c8:	8d 50 14             	lea    0x14(%eax),%edx
 80495cb:	89 54 24 1c          	mov    %edx,0x1c(%esp)
 80495cf:	8d 50 10             	lea    0x10(%eax),%edx
 80495d2:	89 54 24 18          	mov    %edx,0x18(%esp)
 80495d6:	8d 50 0c             	lea    0xc(%eax),%edx
 80495d9:	89 54 24 14          	mov    %edx,0x14(%esp)
 80495dd:	8d 50 08             	lea    0x8(%eax),%edx
 80495e0:	89 54 24 10          	mov    %edx,0x10(%esp)
 80495e4:	8d 50 04             	lea    0x4(%eax),%edx
 80495e7:	89 54 24 0c          	mov    %edx,0xc(%esp)
 80495eb:	89 44 24 08          	mov    %eax,0x8(%esp)
 80495ef:	c7 44 24 04 1a 9d 04 	movl   $0x8049d1a,0x4(%esp)
 80495f6:	08 
 80495f7:	8b 45 08             	mov    0x8(%ebp),%eax
 80495fa:	89 04 24             	mov    %eax,(%esp)
 80495fd:	e8 9e f3 ff ff       	call   80489a0 <sscanf@plt>
 8049602:	83 f8 05             	cmp    $0x5,%eax
 8049605:	7f 05                	jg     804960c <read_six_numbers+0x4e>
 8049607:	e8 70 ff ff ff       	call   804957c <explode_bomb>
 804960c:	83 c4 24             	add    $0x24,%esp
 804960f:	5b                   	pop    %ebx
 8049610:	5d                   	pop    %ebp
 8049611:	8d b4 26 00 00 00 00 	lea    0x0(%esi,%eiz,1),%esi
 8049618:	c3                   	ret    

08049619 <blank_line>:
 8049619:	55                   	push   %ebp
 804961a:	89 e5                	mov    %esp,%ebp
 804961c:	56                   	push   %esi
 804961d:	53                   	push   %ebx
 804961e:	8b 75 08             	mov    0x8(%ebp),%esi
 8049621:	eb 1b                	jmp    804963e <blank_line+0x25>
 8049623:	e8 88 f2 ff ff       	call   80488b0 <__ctype_b_loc@plt>
 8049628:	0f be db             	movsbl %bl,%ebx
 804962b:	8b 00                	mov    (%eax),%eax
 804962d:	f6 44 58 01 20       	testb  $0x20,0x1(%eax,%ebx,2)
 8049632:	75 07                	jne    804963b <blank_line+0x22>
 8049634:	b8 00 00 00 00       	mov    $0x0,%eax
 8049639:	eb 0f                	jmp    804964a <blank_line+0x31>
 804963b:	83 c6 01             	add    $0x1,%esi
 804963e:	0f b6 1e             	movzbl (%esi),%ebx
 8049641:	84 db                	test   %bl,%bl
 8049643:	75 de                	jne    8049623 <blank_line+0xa>
 8049645:	b8 01 00 00 00       	mov    $0x1,%eax
 804964a:	5b                   	pop    %ebx
 804964b:	5e                   	pop    %esi
 804964c:	5d                   	pop    %ebp
 804964d:	c3                   	ret    

0804964e <skip>:
 804964e:	55                   	push   %ebp
 804964f:	89 e5                	mov    %esp,%ebp
 8049651:	53                   	push   %ebx
 8049652:	83 ec 14             	sub    $0x14,%esp
 8049655:	8b 1d f0 a5 04 08    	mov    0x804a5f0,%ebx
 804965b:	89 5c 24 08          	mov    %ebx,0x8(%esp)
 804965f:	c7 44 24 04 50 00 00 	movl   $0x50,0x4(%esp)
 8049666:	00 
 8049667:	8b 1d ec a5 04 08    	mov    0x804a5ec,%ebx
 804966d:	8d 04 9b             	lea    (%ebx,%ebx,4),%eax
 8049670:	c1 e0 04             	shl    $0x4,%eax
 8049673:	05 00 a6 04 08       	add    $0x804a600,%eax
 8049678:	89 04 24             	mov    %eax,(%esp)
 804967b:	e8 d0 f1 ff ff       	call   8048850 <fgets@plt>
 8049680:	89 c3                	mov    %eax,%ebx
 8049682:	85 c0                	test   %eax,%eax
 8049684:	74 0c                	je     8049692 <skip+0x44>
 8049686:	89 04 24             	mov    %eax,(%esp)
 8049689:	e8 8b ff ff ff       	call   8049619 <blank_line>
 804968e:	85 c0                	test   %eax,%eax
 8049690:	75 c3                	jne    8049655 <skip+0x7>
 8049692:	89 d8                	mov    %ebx,%eax
 8049694:	83 c4 14             	add    $0x14,%esp
 8049697:	5b                   	pop    %ebx
 8049698:	5d                   	pop    %ebp
 8049699:	c3                   	ret    

0804969a <read_line>:
 804969a:	55                   	push   %ebp
 804969b:	89 e5                	mov    %esp,%ebp
 804969d:	57                   	push   %edi
 804969e:	53                   	push   %ebx
 804969f:	83 ec 10             	sub    $0x10,%esp
 80496a2:	e8 a7 ff ff ff       	call   804964e <skip>
 80496a7:	85 c0                	test   %eax,%eax
 80496a9:	75 63                	jne    804970e <read_line+0x74>
 80496ab:	8b 1d f0 a5 04 08    	mov    0x804a5f0,%ebx
 80496b1:	3b 1d c0 a5 04 08    	cmp    0x804a5c0,%ebx
 80496b7:	75 13                	jne    80496cc <read_line+0x32>
 80496b9:	c7 04 24 2c 9d 04 08 	movl   $0x8049d2c,(%esp)
 80496c0:	e8 cb f2 ff ff       	call   8048990 <puts@plt>
 80496c5:	e8 b2 fe ff ff       	call   804957c <explode_bomb>
 80496ca:	eb 42                	jmp    804970e <read_line+0x74>
 80496cc:	c7 04 24 4a 9d 04 08 	movl   $0x8049d4a,(%esp)
 80496d3:	e8 48 f1 ff ff       	call   8048820 <getenv@plt>
 80496d8:	85 c0                	test   %eax,%eax
 80496da:	74 0c                	je     80496e8 <read_line+0x4e>
 80496dc:	c7 04 24 00 00 00 00 	movl   $0x0,(%esp)
 80496e3:	e8 d8 f2 ff ff       	call   80489c0 <exit@plt>
 80496e8:	8b 1d c0 a5 04 08    	mov    0x804a5c0,%ebx
 80496ee:	89 1d f0 a5 04 08    	mov    %ebx,0x804a5f0
 80496f4:	e8 55 ff ff ff       	call   804964e <skip>
 80496f9:	85 c0                	test   %eax,%eax
 80496fb:	75 11                	jne    804970e <read_line+0x74>
 80496fd:	c7 04 24 2c 9d 04 08 	movl   $0x8049d2c,(%esp)
 8049704:	e8 87 f2 ff ff       	call   8048990 <puts@plt>
 8049709:	e8 6e fe ff ff       	call   804957c <explode_bomb>
 804970e:	8b 1d ec a5 04 08    	mov    0x804a5ec,%ebx
 8049714:	8d 04 9b             	lea    (%ebx,%ebx,4),%eax
 8049717:	c1 e0 04             	shl    $0x4,%eax
 804971a:	8d b8 00 a6 04 08    	lea    0x804a600(%eax),%edi
 8049720:	b8 00 00 00 00       	mov    $0x0,%eax
 8049725:	b9 ff ff ff ff       	mov    $0xffffffff,%ecx
 804972a:	f2 ae                	repnz scas %es:(%edi),%al
 804972c:	f7 d1                	not    %ecx
 804972e:	8d 59 ff             	lea    -0x1(%ecx),%ebx
 8049731:	83 fb 4f             	cmp    $0x4f,%ebx
 8049734:	75 11                	jne    8049747 <read_line+0xad>
 8049736:	c7 04 24 55 9d 04 08 	movl   $0x8049d55,(%esp)
 804973d:	e8 4e f2 ff ff       	call   8048990 <puts@plt>
 8049742:	e8 35 fe ff ff       	call   804957c <explode_bomb>
 8049747:	8b 15 ec a5 04 08    	mov    0x804a5ec,%edx
 804974d:	8d 04 92             	lea    (%edx,%edx,4),%eax
 8049750:	c1 e0 04             	shl    $0x4,%eax
 8049753:	c6 84 03 ff a5 04 08 	movb   $0x0,0x804a5ff(%ebx,%eax,1)
 804975a:	00 
 804975b:	83 c2 01             	add    $0x1,%edx
 804975e:	89 15 ec a5 04 08    	mov    %edx,0x804a5ec
 8049764:	05 00 a6 04 08       	add    $0x804a600,%eax
 8049769:	83 c4 10             	add    $0x10,%esp
 804976c:	5b                   	pop    %ebx
 804976d:	5f                   	pop    %edi
 804976e:	5d                   	pop    %ebp
 804976f:	c3                   	ret    

08049770 <invalid_phase>:
 8049770:	55                   	push   %ebp
 8049771:	89 e5                	mov    %esp,%ebp
 8049773:	83 ec 18             	sub    $0x18,%esp
 8049776:	8b 45 08             	mov    0x8(%ebp),%eax
 8049779:	89 44 24 04          	mov    %eax,0x4(%esp)
 804977d:	c7 04 24 70 9d 04 08 	movl   $0x8049d70,(%esp)
 8049784:	e8 87 f1 ff ff       	call   8048910 <printf@plt>
 8049789:	c7 04 24 08 00 00 00 	movl   $0x8,(%esp)
 8049790:	e8 2b f2 ff ff       	call   80489c0 <exit@plt>

08049795 <sig_handler>:
 8049795:	55                   	push   %ebp
 8049796:	89 e5                	mov    %esp,%ebp
 8049798:	53                   	push   %ebx
 8049799:	83 ec 14             	sub    $0x14,%esp
 804979c:	c7 04 24 b0 9e 04 08 	movl   $0x8049eb0,(%esp)
 80497a3:	e8 e8 f1 ff ff       	call   8048990 <puts@plt>
 80497a8:	c7 04 24 03 00 00 00 	movl   $0x3,(%esp)
 80497af:	e8 bc f1 ff ff       	call   8048970 <sleep@plt>
 80497b4:	c7 04 24 81 9d 04 08 	movl   $0x8049d81,(%esp)
 80497bb:	e8 50 f1 ff ff       	call   8048910 <printf@plt>
 80497c0:	8b 1d e0 a5 04 08    	mov    0x804a5e0,%ebx
 80497c6:	89 1c 24             	mov    %ebx,(%esp)
 80497c9:	e8 c2 f0 ff ff       	call   8048890 <fflush@plt>
 80497ce:	c7 04 24 01 00 00 00 	movl   $0x1,(%esp)
 80497d5:	e8 96 f1 ff ff       	call   8048970 <sleep@plt>
 80497da:	c7 04 24 89 9d 04 08 	movl   $0x8049d89,(%esp)
 80497e1:	e8 aa f1 ff ff       	call   8048990 <puts@plt>
 80497e6:	c7 04 24 10 00 00 00 	movl   $0x10,(%esp)
 80497ed:	e8 ce f1 ff ff       	call   80489c0 <exit@plt>

080497f2 <open_clientfd>:
 80497f2:	55                   	push   %ebp
 80497f3:	89 e5                	mov    %esp,%ebp
 80497f5:	83 ec 38             	sub    $0x38,%esp
 80497f8:	89 5d f4             	mov    %ebx,-0xc(%ebp)
 80497fb:	89 75 f8             	mov    %esi,-0x8(%ebp)
 80497fe:	89 7d fc             	mov    %edi,-0x4(%ebp)
 8049801:	c7 44 24 08 00 00 00 	movl   $0x0,0x8(%esp)
 8049808:	00 
 8049809:	c7 44 24 04 01 00 00 	movl   $0x1,0x4(%esp)
 8049810:	00 
 8049811:	c7 04 24 02 00 00 00 	movl   $0x2,(%esp)
 8049818:	e8 83 f0 ff ff       	call   80488a0 <socket@plt>
 804981d:	89 c7                	mov    %eax,%edi
 804981f:	85 c0                	test   %eax,%eax
 8049821:	79 18                	jns    804983b <open_clientfd+0x49>
 8049823:	c7 04 24 91 9d 04 08 	movl   $0x8049d91,(%esp)
 804982a:	e8 61 f1 ff ff       	call   8048990 <puts@plt>
 804982f:	c7 04 24 08 00 00 00 	movl   $0x8,(%esp)
 8049836:	e8 85 f1 ff ff       	call   80489c0 <exit@plt>
 804983b:	8b 45 08             	mov    0x8(%ebp),%eax
 804983e:	89 04 24             	mov    %eax,(%esp)
 8049841:	e8 6a f1 ff ff       	call   80489b0 <gethostbyname@plt>
 8049846:	89 c3                	mov    %eax,%ebx
 8049848:	85 c0                	test   %eax,%eax
 804984a:	75 18                	jne    8049864 <open_clientfd+0x72>
 804984c:	c7 04 24 9f 9d 04 08 	movl   $0x8049d9f,(%esp)
 8049853:	e8 38 f1 ff ff       	call   8048990 <puts@plt>
 8049858:	c7 04 24 08 00 00 00 	movl   $0x8,(%esp)
 804985f:	e8 5c f1 ff ff       	call   80489c0 <exit@plt>
 8049864:	8d 75 d8             	lea    -0x28(%ebp),%esi
 8049867:	c7 06 00 00 00 00    	movl   $0x0,(%esi)
 804986d:	c7 46 04 00 00 00 00 	movl   $0x0,0x4(%esi)
 8049874:	c7 46 08 00 00 00 00 	movl   $0x0,0x8(%esi)
 804987b:	c7 46 0c 00 00 00 00 	movl   $0x0,0xc(%esi)
 8049882:	66 c7 45 d8 02 00    	movw   $0x2,-0x28(%ebp)
 8049888:	8b 40 0c             	mov    0xc(%eax),%eax
 804988b:	89 44 24 08          	mov    %eax,0x8(%esp)
 804988f:	8d 45 dc             	lea    -0x24(%ebp),%eax
 8049892:	89 44 24 04          	mov    %eax,0x4(%esp)
 8049896:	8b 43 10             	mov    0x10(%ebx),%eax
 8049899:	8b 00                	mov    (%eax),%eax
 804989b:	89 04 24             	mov    %eax,(%esp)
 804989e:	e8 2d f0 ff ff       	call   80488d0 <bcopy@plt>
 80498a3:	0f b7 5d 0c          	movzwl 0xc(%ebp),%ebx
 80498a7:	66 c1 cb 08          	ror    $0x8,%bx
 80498ab:	66 89 5d da          	mov    %bx,-0x26(%ebp)
 80498af:	c7 44 24 08 10 00 00 	movl   $0x10,0x8(%esp)
 80498b6:	00 
 80498b7:	89 74 24 04          	mov    %esi,0x4(%esp)
 80498bb:	89 3c 24             	mov    %edi,(%esp)
 80498be:	e8 1d ef ff ff       	call   80487e0 <connect@plt>
 80498c3:	85 c0                	test   %eax,%eax
 80498c5:	79 18                	jns    80498df <open_clientfd+0xed>
 80498c7:	c7 04 24 ad 9d 04 08 	movl   $0x8049dad,(%esp)
 80498ce:	e8 bd f0 ff ff       	call   8048990 <puts@plt>
 80498d3:	c7 04 24 08 00 00 00 	movl   $0x8,(%esp)
 80498da:	e8 e1 f0 ff ff       	call   80489c0 <exit@plt>
 80498df:	89 f8                	mov    %edi,%eax
 80498e1:	8b 5d f4             	mov    -0xc(%ebp),%ebx
 80498e4:	8b 75 f8             	mov    -0x8(%ebp),%esi
 80498e7:	8b 7d fc             	mov    -0x4(%ebp),%edi
 80498ea:	89 ec                	mov    %ebp,%esp
 80498ec:	5d                   	pop    %ebp
 80498ed:	c3                   	ret    

080498ee <initialize_bomb>:
 80498ee:	55                   	push   %ebp
 80498ef:	89 e5                	mov    %esp,%ebp
 80498f1:	83 ec 18             	sub    $0x18,%esp
 80498f4:	c7 44 24 04 95 97 04 	movl   $0x8049795,0x4(%esp)
 80498fb:	08 
 80498fc:	c7 04 24 02 00 00 00 	movl   $0x2,(%esp)
 8049903:	e8 e8 ee ff ff       	call   80487f0 <signal@plt>
 8049908:	c7 44 24 04 50 00 00 	movl   $0x50,0x4(%esp)
 804990f:	00 
 8049910:	c7 04 24 b2 9c 04 08 	movl   $0x8049cb2,(%esp)
 8049917:	e8 d6 fe ff ff       	call   80497f2 <open_clientfd>
 804991c:	89 04 24             	mov    %eax,(%esp)
 804991f:	e8 fc ef ff ff       	call   8048920 <close@plt>
 8049924:	c9                   	leave  
 8049925:	c3                   	ret    
 8049926:	90                   	nop
 8049927:	90                   	nop

08049928 <__libc_csu_fini>:
 8049928:	55                   	push   %ebp
 8049929:	89 e5                	mov    %esp,%ebp
 804992b:	5d                   	pop    %ebp
 804992c:	c3                   	ret    

0804992d <__libc_csu_init>:
 804992d:	55                   	push   %ebp
 804992e:	89 e5                	mov    %esp,%ebp
 8049930:	57                   	push   %edi
 8049931:	56                   	push   %esi
 8049932:	53                   	push   %ebx
 8049933:	83 ec 0c             	sub    $0xc,%esp
 8049936:	e8 4c 00 00 00       	call   8049987 <__i686.get_pc_thunk.bx>
 804993b:	81 c3 a5 07 00 00    	add    $0x7a5,%ebx
 8049941:	e8 3a ee ff ff       	call   8048780 <_init>
 8049946:	8d 83 20 ff ff ff    	lea    -0xe0(%ebx),%eax
 804994c:	8d 93 20 ff ff ff    	lea    -0xe0(%ebx),%edx
 8049952:	29 d0                	sub    %edx,%eax
 8049954:	89 c7                	mov    %eax,%edi
 8049956:	c1 ff 02             	sar    $0x2,%edi
 8049959:	74 24                	je     804997f <__libc_csu_init+0x52>
 804995b:	31 f6                	xor    %esi,%esi
 804995d:	8b 45 10             	mov    0x10(%ebp),%eax
 8049960:	89 44 24 08          	mov    %eax,0x8(%esp)
 8049964:	8b 45 0c             	mov    0xc(%ebp),%eax
 8049967:	89 44 24 04          	mov    %eax,0x4(%esp)
 804996b:	8b 45 08             	mov    0x8(%ebp),%eax
 804996e:	89 04 24             	mov    %eax,(%esp)
 8049971:	ff 94 b3 20 ff ff ff 	call   *-0xe0(%ebx,%esi,4)
 8049978:	83 c6 01             	add    $0x1,%esi
 804997b:	39 fe                	cmp    %edi,%esi
 804997d:	72 de                	jb     804995d <__libc_csu_init+0x30>
 804997f:	83 c4 0c             	add    $0xc,%esp
 8049982:	5b                   	pop    %ebx
 8049983:	5e                   	pop    %esi
 8049984:	5f                   	pop    %edi
 8049985:	5d                   	pop    %ebp
 8049986:	c3                   	ret    

08049987 <__i686.get_pc_thunk.bx>:
 8049987:	8b 1c 24             	mov    (%esp),%ebx
 804998a:	c3                   	ret    
 804998b:	90                   	nop
 804998c:	90                   	nop
 804998d:	90                   	nop
 804998e:	90                   	nop
 804998f:	90                   	nop

08049990 <__do_global_ctors_aux>:
 8049990:	55                   	push   %ebp
 8049991:	89 e5                	mov    %esp,%ebp
 8049993:	53                   	push   %ebx
 8049994:	83 ec 04             	sub    $0x4,%esp
 8049997:	a1 00 a0 04 08       	mov    0x804a000,%eax
 804999c:	83 f8 ff             	cmp    $0xffffffff,%eax
 804999f:	74 13                	je     80499b4 <__do_global_ctors_aux+0x24>
 80499a1:	bb 00 a0 04 08       	mov    $0x804a000,%ebx
 80499a6:	66 90                	xchg   %ax,%ax
 80499a8:	83 eb 04             	sub    $0x4,%ebx
 80499ab:	ff d0                	call   *%eax
 80499ad:	8b 03                	mov    (%ebx),%eax
 80499af:	83 f8 ff             	cmp    $0xffffffff,%eax
 80499b2:	75 f4                	jne    80499a8 <__do_global_ctors_aux+0x18>
 80499b4:	83 c4 04             	add    $0x4,%esp
 80499b7:	5b                   	pop    %ebx
 80499b8:	5d                   	pop    %ebp
 80499b9:	c3                   	ret    
 80499ba:	90                   	nop
 80499bb:	90                   	nop

Disassembly of section .fini:

080499bc <_fini>:
 80499bc:	55                   	push   %ebp
 80499bd:	89 e5                	mov    %esp,%ebp
 80499bf:	53                   	push   %ebx
 80499c0:	83 ec 04             	sub    $0x4,%esp
 80499c3:	e8 00 00 00 00       	call   80499c8 <_fini+0xc>
 80499c8:	5b                   	pop    %ebx
 80499c9:	81 c3 18 07 00 00    	add    $0x718,%ebx
 80499cf:	e8 2c f0 ff ff       	call   8048a00 <__do_global_dtors_aux>
 80499d4:	59                   	pop    %ecx
 80499d5:	5b                   	pop    %ebx
 80499d6:	c9                   	leave  
 80499d7:	c3                   	ret    

Disassembly of section .rodata:

080499e0 <_fp_hw>:
 80499e0:	03 00                	add    (%eax),%eax
	...

080499e4 <_IO_stdin_used>:
 80499e4:	01 00                	add    %eax,(%eax)
 80499e6:	02 00                	add    (%eax),%al
 80499e8:	25 73 3a 20 45       	and    $0x45203a73,%eax
 80499ed:	72 72                	jb     8049a61 <_IO_stdin_used+0x7d>
 80499ef:	6f                   	outsl  %ds:(%esi),(%dx)
 80499f0:	72 3a                	jb     8049a2c <_IO_stdin_used+0x48>
 80499f2:	20 43 6f             	and    %al,0x6f(%ebx)
 80499f5:	75 6c                	jne    8049a63 <_IO_stdin_used+0x7f>
 80499f7:	64 6e                	outsb  %fs:(%esi),(%dx)
 80499f9:	27                   	daa    
 80499fa:	74 20                	je     8049a1c <_IO_stdin_used+0x38>
 80499fc:	6f                   	outsl  %ds:(%esi),(%dx)
 80499fd:	70 65                	jo     8049a64 <_IO_stdin_used+0x80>
 80499ff:	6e                   	outsb  %ds:(%esi),(%dx)
 8049a00:	20 25 73 0a 00 55    	and    %ah,0x55000a73
 8049a06:	73 61                	jae    8049a69 <_IO_stdin_used+0x85>
 8049a08:	67 65 3a 20          	cmp    %gs:(%bx,%si),%ah
 8049a0c:	25 73 20 5b 3c       	and    $0x3c5b2073,%eax
 8049a11:	69 6e 70 75 74 5f 66 	imul   $0x665f7475,0x70(%esi),%ebp
 8049a18:	69 6c 65 3e 5d 0a 00 	imul   $0x54000a5d,0x3e(%ebp,%eiz,2),%ebp
 8049a1f:	54 
 8049a20:	68 61 74 27 73       	push   $0x73277461
 8049a25:	20 6e 75             	and    %ch,0x75(%esi)
 8049a28:	6d                   	insl   (%dx),%es:(%edi)
 8049a29:	62 65 72             	bound  %esp,0x72(%ebp)
 8049a2c:	20 32                	and    %dh,(%edx)
 8049a2e:	2e 20 20             	and    %ah,%cs:(%eax)
 8049a31:	4b                   	dec    %ebx
 8049a32:	65                   	gs
 8049a33:	65                   	gs
 8049a34:	70 20                	jo     8049a56 <_IO_stdin_used+0x72>
 8049a36:	67 6f                	outsl  %ds:(%si),(%dx)
 8049a38:	69 6e 67 21 00 00 00 	imul   $0x21,0x67(%esi),%ebp
 8049a3f:	00 57 65             	add    %dl,0x65(%edi)
 8049a42:	6c                   	insb   (%dx),%es:(%edi)
 8049a43:	63 6f 6d             	arpl   %bp,0x6d(%edi)
 8049a46:	65 20 74 6f 20       	and    %dh,%gs:0x20(%edi,%ebp,2)
 8049a4b:	6d                   	insl   (%dx),%es:(%edi)
 8049a4c:	79 20                	jns    8049a6e <_IO_stdin_used+0x8a>
 8049a4e:	66 69 65 6e 64 69    	imul   $0x6964,0x6e(%ebp),%sp
 8049a54:	73 68                	jae    8049abe <_IO_stdin_used+0xda>
 8049a56:	20 6c 69 74          	and    %ch,0x74(%ecx,%ebp,2)
 8049a5a:	74 6c                	je     8049ac8 <_IO_stdin_used+0xe4>
 8049a5c:	65 20 62 6f          	and    %ah,%gs:0x6f(%edx)
 8049a60:	6d                   	insl   (%dx),%es:(%edi)
 8049a61:	62 2e                	bound  %ebp,(%esi)
 8049a63:	20 59 6f             	and    %bl,0x6f(%ecx)
 8049a66:	75 20                	jne    8049a88 <_IO_stdin_used+0xa4>
 8049a68:	68 61 76 65 20       	push   $0x20657661
 8049a6d:	33 20                	xor    (%eax),%esp
 8049a6f:	70 68                	jo     8049ad9 <_IO_stdin_used+0xf5>
 8049a71:	61                   	popa   
 8049a72:	73 65                	jae    8049ad9 <_IO_stdin_used+0xf5>
 8049a74:	73 20                	jae    8049a96 <_IO_stdin_used+0xb2>
 8049a76:	77 69                	ja     8049ae1 <_IO_stdin_used+0xfd>
 8049a78:	74 68                	je     8049ae2 <_IO_stdin_used+0xfe>
 8049a7a:	00 00                	add    %al,(%eax)
 8049a7c:	77 68                	ja     8049ae6 <_IO_stdin_used+0x102>
 8049a7e:	69 63 68 20 74 6f 20 	imul   $0x206f7420,0x68(%ebx),%esp
 8049a85:	62 6c 6f 77          	bound  %ebp,0x77(%edi,%ebp,2)
 8049a89:	20 79 6f             	and    %bh,0x6f(%ecx)
 8049a8c:	75 72                	jne    8049b00 <array.2782>
 8049a8e:	73 65                	jae    8049af5 <_IO_stdin_used+0x111>
 8049a90:	6c                   	insb   (%dx),%es:(%edi)
 8049a91:	66                   	data16
 8049a92:	20 75 70             	and    %dh,0x70(%ebp)
 8049a95:	2e 20 48 61          	and    %cl,%cs:0x61(%eax)
 8049a99:	76 65                	jbe    8049b00 <array.2782>
 8049a9b:	20 61 20             	and    %ah,0x20(%ecx)
 8049a9e:	6e                   	outsb  %ds:(%esi),(%dx)
 8049a9f:	69 63 65 20 64 61 79 	imul   $0x79616420,0x65(%ebx),%esp
 8049aa6:	21 00                	and    %eax,(%eax)
 8049aa8:	50                   	push   %eax
 8049aa9:	68 61 73 65 20       	push   $0x20657361
 8049aae:	31 20                	xor    %esp,(%eax)
 8049ab0:	64                   	fs
 8049ab1:	65                   	gs
 8049ab2:	66                   	data16
 8049ab3:	75 73                	jne    8049b28 <array.2782+0x28>
 8049ab5:	65 64 2e 20 48 6f    	gs fs and %cl,%cs:%fs:%gs:0x6f(%eax)
 8049abb:	77 20                	ja     8049add <_IO_stdin_used+0xf9>
 8049abd:	61                   	popa   
 8049abe:	62 6f 75             	bound  %ebp,0x75(%edi)
 8049ac1:	74 20                	je     8049ae3 <_IO_stdin_used+0xff>
 8049ac3:	74 68                	je     8049b2d <array.2782+0x2d>
 8049ac5:	65 20 6e 65          	and    %ch,%gs:0x65(%esi)
 8049ac9:	78 74                	js     8049b3f <array.2782+0x3f>
 8049acb:	20 6f 6e             	and    %ch,0x6e(%edi)
 8049ace:	65                   	gs
 8049acf:	3f                   	aas    
 8049ad0:	00 25 64 20 25 63    	add    %ah,0x63252064
 8049ad6:	20 25 64 00 00 00    	and    %ah,0x64
 8049adc:	00 00                	add    %al,(%eax)
 8049ade:	00 00                	add    %al,(%eax)
 8049ae0:	47                   	inc    %edi
 8049ae1:	8c 04 08             	mov    %es,(%eax,%ecx,1)
 8049ae4:	6d                   	insl   (%dx),%es:(%edi)
 8049ae5:	8c 04 08             	mov    %es,(%eax,%ecx,1)
 8049ae8:	95                   	xchg   %eax,%ebp
 8049ae9:	8c 04 08             	mov    %es,(%eax,%ecx,1)
 8049aec:	bd 8c 04 08 e5       	mov    $0xe508048c,%ebp
 8049af1:	8c 04 08             	mov    %es,(%eax,%ecx,1)
 8049af4:	0a 8d 04 08 2a 8d    	or     -0x72d5f7fc(%ebp),%cl
 8049afa:	04 08                	add    $0x8,%al
 8049afc:	4a                   	dec    %edx
 8049afd:	8d 04 08             	lea    (%eax,%ecx,1),%eax

08049b00 <array.2782>:
 8049b00:	02 00                	add    (%eax),%al
 8049b02:	00 00                	add    %al,(%eax)
 8049b04:	0a 00                	or     (%eax),%al
 8049b06:	00 00                	add    %al,(%eax)
 8049b08:	06                   	push   %es
 8049b09:	00 00                	add    %al,(%eax)
 8049b0b:	00 01                	add    %al,(%ecx)
 8049b0d:	00 00                	add    %al,(%eax)
 8049b0f:	00 0c 00             	add    %cl,(%eax,%eax,1)
 8049b12:	00 00                	add    %al,(%eax)
 8049b14:	10 00                	adc    %al,(%eax)
 8049b16:	00 00                	add    %al,(%eax)
 8049b18:	09 00                	or     %eax,(%eax)
 8049b1a:	00 00                	add    %al,(%eax)
 8049b1c:	03 00                	add    (%eax),%eax
 8049b1e:	00 00                	add    %al,(%eax)
 8049b20:	04 00                	add    $0x0,%al
 8049b22:	00 00                	add    %al,(%eax)
 8049b24:	07                   	pop    %es
 8049b25:	00 00                	add    %al,(%eax)
 8049b27:	00 0e                	add    %cl,(%esi)
 8049b29:	00 00                	add    %al,(%eax)
 8049b2b:	00 05 00 00 00 0b    	add    %al,0xb000000
 8049b31:	00 00                	add    %al,(%eax)
 8049b33:	00 08                	add    %cl,(%eax)
 8049b35:	00 00                	add    %al,(%eax)
 8049b37:	00 0f                	add    %cl,(%edi)
 8049b39:	00 00                	add    %al,(%eax)
 8049b3b:	00 0d 00 00 00 46    	add    %cl,0x46000000
 8049b41:	6f                   	outsl  %ds:(%esi),(%dx)
 8049b42:	72 20                	jb     8049b64 <array.2782+0x64>
 8049b44:	4e                   	dec    %esi
 8049b45:	41                   	inc    %ecx
 8049b46:	53                   	push   %ebx
 8049b47:	41                   	inc    %ecx
 8049b48:	2c 20                	sub    $0x20,%al
 8049b4a:	73 70                	jae    8049bbc <array.2782+0xbc>
 8049b4c:	61                   	popa   
 8049b4d:	63 65 20             	arpl   %sp,0x20(%ebp)
 8049b50:	69 73 20 73 74 69 6c 	imul   $0x6c697473,0x20(%ebx),%esi
 8049b57:	6c                   	insb   (%dx),%es:(%edi)
 8049b58:	20 61 20             	and    %ah,0x20(%ecx)
 8049b5b:	68 69 67 68 20       	push   $0x20686769
 8049b60:	70 72                	jo     8049bd4 <array.2782+0xd4>
 8049b62:	69 6f 72 69 74 79 2e 	imul   $0x2e797469,0x72(%edi),%ebp
 8049b69:	00 45 52             	add    %al,0x52(%ebp)
 8049b6c:	52                   	push   %edx
 8049b6d:	4f                   	dec    %edi
 8049b6e:	52                   	push   %edx
 8049b6f:	3a 20                	cmp    (%eax),%ah
 8049b71:	64                   	fs
 8049b72:	75 70                	jne    8049be4 <array.2782+0xe4>
 8049b74:	28 30                	sub    %dh,(%eax)
 8049b76:	29 20                	sub    %esp,(%eax)
 8049b78:	65                   	gs
 8049b79:	72 72                	jb     8049bed <array.2782+0xed>
 8049b7b:	6f                   	outsl  %ds:(%esi),(%dx)
 8049b7c:	72 00                	jb     8049b7e <array.2782+0x7e>
 8049b7e:	45                   	inc    %ebp
 8049b7f:	52                   	push   %edx
 8049b80:	52                   	push   %edx
 8049b81:	4f                   	dec    %edi
 8049b82:	52                   	push   %edx
 8049b83:	3a 20                	cmp    (%eax),%ah
 8049b85:	63 6c 6f 73          	arpl   %bp,0x73(%edi,%ebp,2)
 8049b89:	65 20 65 72          	and    %ah,%gs:0x72(%ebp)
 8049b8d:	72 6f                	jb     8049bfe <array.2782+0xfe>
 8049b8f:	72 00                	jb     8049b91 <array.2782+0x91>
 8049b91:	45                   	inc    %ebp
 8049b92:	52                   	push   %edx
 8049b93:	52                   	push   %edx
 8049b94:	4f                   	dec    %edi
 8049b95:	52                   	push   %edx
 8049b96:	3a 20                	cmp    (%eax),%ah
 8049b98:	74 6d                	je     8049c07 <array.2782+0x107>
 8049b9a:	70 66                	jo     8049c02 <array.2782+0x102>
 8049b9c:	69 6c 65 20 65 72 72 	imul   $0x6f727265,0x20(%ebp,%eiz,2),%ebp
 8049ba3:	6f 
 8049ba4:	72 00                	jb     8049ba6 <array.2782+0xa6>
 8049ba6:	53                   	push   %ebx
 8049ba7:	75 62                	jne    8049c0b <array.2782+0x10b>
 8049ba9:	6a 65                	push   $0x65
 8049bab:	63 74 3a 20          	arpl   %si,0x20(%edx,%edi,1)
 8049baf:	42                   	inc    %edx
 8049bb0:	6f                   	outsl  %ds:(%esi),(%dx)
 8049bb1:	6d                   	insl   (%dx),%es:(%edi)
 8049bb2:	62 20                	bound  %esp,(%eax)
 8049bb4:	6e                   	outsb  %ds:(%esi),(%dx)
 8049bb5:	6f                   	outsl  %ds:(%esi),(%dx)
 8049bb6:	74 69                	je     8049c21 <array.2782+0x121>
 8049bb8:	66 69 63 61 74 69    	imul   $0x6974,0x61(%ebx),%sp
 8049bbe:	6f                   	outsl  %ds:(%esi),(%dx)
 8049bbf:	6e                   	outsb  %ds:(%esi),(%dx)
 8049bc0:	0a 00                	or     (%eax),%al
 8049bc2:	65                   	gs
 8049bc3:	78 70                	js     8049c35 <array.2782+0x135>
 8049bc5:	6c                   	insb   (%dx),%es:(%edi)
 8049bc6:	6f                   	outsl  %ds:(%esi),(%dx)
 8049bc7:	64 65 64 00 64 65 66 	fs gs add %ah,%fs:%gs:0x66(%ebp,%eiz,2)
 8049bce:	75 73                	jne    8049c43 <array.2782+0x143>
 8049bd0:	65 64 00 62 6f       	gs add %ah,%fs:%gs:0x6f(%edx)
 8049bd5:	6d                   	insl   (%dx),%es:(%edi)
 8049bd6:	62 2d 68 65 61 64    	bound  %ebp,0x64616568
 8049bdc:	65                   	gs
 8049bdd:	72 3a                	jb     8049c19 <array.2782+0x119>
 8049bdf:	25 73 3a 25 64       	and    $0x64253a73,%eax
 8049be4:	3a 25 73 3a 25 73    	cmp    0x73253a73,%ah
 8049bea:	3a 25 64 0a 00 62    	cmp    0x62000a64,%ah
 8049bf0:	6f                   	outsl  %ds:(%esi),(%dx)
 8049bf1:	6d                   	insl   (%dx),%es:(%edi)
 8049bf2:	62 2d 73 74 72 69    	bound  %ebp,0x69727473
 8049bf8:	6e                   	outsb  %ds:(%esi),(%dx)
 8049bf9:	67 3a 25             	cmp    (%di),%ah
 8049bfc:	73 3a                	jae    8049c38 <array.2782+0x138>
 8049bfe:	25 64 3a 25 73       	and    $0x73253a64,%eax
 8049c03:	3a 25 64 3a 25 73    	cmp    0x73253a64,%ah
 8049c09:	0a 00                	or     (%eax),%al
 8049c0b:	6c                   	insb   (%dx),%es:(%edi)
 8049c0c:	6f                   	outsl  %ds:(%esi),(%dx)
 8049c0d:	63 61 6c             	arpl   %sp,0x6c(%ecx)
 8049c10:	68 6f 73 74 00       	push   $0x74736f
 8049c15:	6f                   	outsl  %ds:(%esi),(%dx)
 8049c16:	6e                   	outsb  %ds:(%esi),(%dx)
 8049c17:	6c                   	insb   (%dx),%es:(%edi)
 8049c18:	69 6e 65 62 6f 6d 62 	imul   $0x626d6f62,0x65(%esi),%ebp
 8049c1f:	00 2f                	add    %ch,(%edi)
 8049c21:	75 73                	jne    8049c96 <array.2782+0x196>
 8049c23:	72 2f                	jb     8049c54 <array.2782+0x154>
 8049c25:	73 62                	jae    8049c89 <array.2782+0x189>
 8049c27:	69 6e 2f 73 65 6e 64 	imul   $0x646e6573,0x2f(%esi),%ebp
 8049c2e:	6d                   	insl   (%dx),%es:(%edi)
 8049c2f:	61                   	popa   
 8049c30:	69 6c 20 2d 62 6d 00 	imul   $0x25006d62,0x2d(%eax,%eiz,1),%ebp
 8049c37:	25 
 8049c38:	73 20                	jae    8049c5a <array.2782+0x15a>
 8049c3a:	25 73 40 25 73       	and    $0x73254073,%eax
 8049c3f:	00 45 52             	add    %al,0x52(%ebp)
 8049c42:	52                   	push   %edx
 8049c43:	4f                   	dec    %edi
 8049c44:	52                   	push   %edx
 8049c45:	3a 20                	cmp    (%eax),%ah
 8049c47:	6e                   	outsb  %ds:(%esi),(%dx)
 8049c48:	6f                   	outsl  %ds:(%esi),(%dx)
 8049c49:	74 69                	je     8049cb4 <array.2782+0x1b4>
 8049c4b:	66 69 63 61 74 69    	imul   $0x6974,0x61(%ebx),%sp
 8049c51:	6f                   	outsl  %ds:(%esi),(%dx)
 8049c52:	6e                   	outsb  %ds:(%esi),(%dx)
 8049c53:	20 65 72             	and    %ah,0x72(%ebp)
 8049c56:	72 6f                	jb     8049cc7 <array.2782+0x1c7>
 8049c58:	72 00                	jb     8049c5a <array.2782+0x15a>
 8049c5a:	45                   	inc    %ebp
 8049c5b:	52                   	push   %edx
 8049c5c:	52                   	push   %edx
 8049c5d:	4f                   	dec    %edi
 8049c5e:	52                   	push   %edx
 8049c5f:	3a 20                	cmp    (%eax),%ah
 8049c61:	66                   	data16
 8049c62:	63 6c 6f 73          	arpl   %bp,0x73(%edi,%ebp,2)
 8049c66:	65 28 74 6d 70       	sub    %dh,%gs:0x70(%ebp,%ebp,2)
 8049c6b:	29 20                	sub    %esp,(%eax)
 8049c6d:	65                   	gs
 8049c6e:	72 72                	jb     8049ce2 <array.2782+0x1e2>
 8049c70:	6f                   	outsl  %ds:(%esi),(%dx)
 8049c71:	72 00                	jb     8049c73 <array.2782+0x173>
 8049c73:	45                   	inc    %ebp
 8049c74:	52                   	push   %edx
 8049c75:	52                   	push   %edx
 8049c76:	4f                   	dec    %edi
 8049c77:	52                   	push   %edx
 8049c78:	3a 20                	cmp    (%eax),%ah
 8049c7a:	64                   	fs
 8049c7b:	75 70                	jne    8049ced <array.2782+0x1ed>
 8049c7d:	28 74 6d 70          	sub    %dh,0x70(%ebp,%ebp,2)
 8049c81:	73 74                	jae    8049cf7 <array.2782+0x1f7>
 8049c83:	64 69 6e 29 20 65 72 	imul   $0x72726520,%fs:0x29(%esi),%ebp
 8049c8a:	72 
 8049c8b:	6f                   	outsl  %ds:(%esi),(%dx)
 8049c8c:	72 00                	jb     8049c8e <array.2782+0x18e>
 8049c8e:	45                   	inc    %ebp
 8049c8f:	52                   	push   %edx
 8049c90:	52                   	push   %edx
 8049c91:	4f                   	dec    %edi
 8049c92:	52                   	push   %edx
 8049c93:	3a 20                	cmp    (%eax),%ah
 8049c95:	63 6c 6f 73          	arpl   %bp,0x73(%edi,%ebp,2)
 8049c99:	65 28 74 6d 70       	sub    %dh,%gs:0x70(%ebp,%ebp,2)
 8049c9e:	73 74                	jae    8049d14 <array.2782+0x214>
 8049ca0:	64 69 6e 29 00 73 6f 	imul   $0x636f7300,%fs:0x29(%esi),%ebp
 8049ca7:	63 
 8049ca8:	6b 65 74 20          	imul   $0x20,0x74(%ebp),%esp
 8049cac:	65                   	gs
 8049cad:	72 72                	jb     8049d21 <array.2782+0x221>
 8049caf:	6f                   	outsl  %ds:(%esi),(%dx)
 8049cb0:	72 00                	jb     8049cb2 <array.2782+0x1b2>
 8049cb2:	32 30                	xor    (%eax),%dh
 8049cb4:	32 2e                	xor    (%esi),%ch
 8049cb6:	31 32                	xor    %esi,(%edx)
 8049cb8:	30 2e                	xor    %ch,(%esi)
 8049cba:	34 30                	xor    $0x30,%al
 8049cbc:	2e 31 38             	xor    %edi,%cs:(%eax)
 8049cbf:	38 00                	cmp    %al,(%eax)
 8049cc1:	63 6f 6e             	arpl   %bp,0x6e(%edi)
 8049cc4:	6e                   	outsb  %ds:(%esi),(%dx)
 8049cc5:	65 63 74 20 65       	arpl   %si,%gs:0x65(%eax,%eiz,1)
 8049cca:	72 72                	jb     8049d3e <array.2782+0x23e>
 8049ccc:	6f                   	outsl  %ds:(%esi),(%dx)
 8049ccd:	72 00                	jb     8049ccf <array.2782+0x1cf>
 8049ccf:	73 6f                	jae    8049d40 <array.2782+0x240>
 8049cd1:	63 6b 65             	arpl   %bp,0x65(%ebx)
 8049cd4:	74 20                	je     8049cf6 <array.2782+0x1f6>
 8049cd6:	77 72                	ja     8049d4a <array.2782+0x24a>
 8049cd8:	69 74 65 20 65 72 72 	imul   $0x6f727265,0x20(%ebp,%eiz,2),%esi
 8049cdf:	6f 
 8049ce0:	72 00                	jb     8049ce2 <array.2782+0x1e2>
 8049ce2:	25 64 20 25 64       	and    $0x64252064,%eax
 8049ce7:	20 25 64 20 25 64    	and    %ah,0x64252064
 8049ced:	20 25 64 20 25 64    	and    %ah,0x64252064
 8049cf3:	20 25 73 00 66 70    	and    %ah,0x70660073
 8049cf9:	00 0a                	add    %cl,(%edx)
 8049cfb:	42                   	inc    %edx
 8049cfc:	4f                   	dec    %edi
 8049cfd:	4f                   	dec    %edi
 8049cfe:	4d                   	dec    %ebp
 8049cff:	21 21                	and    %esp,(%ecx)
 8049d01:	21 00                	and    %eax,(%eax)
 8049d03:	54                   	push   %esp
 8049d04:	68 65 20 62 6f       	push   $0x6f622065
 8049d09:	6d                   	insl   (%dx),%es:(%edi)
 8049d0a:	62 20                	bound  %esp,(%eax)
 8049d0c:	68 61 73 20 62       	push   $0x62207361
 8049d11:	6c                   	insb   (%dx),%es:(%edi)
 8049d12:	6f                   	outsl  %ds:(%esi),(%dx)
 8049d13:	77 6e                	ja     8049d83 <array.2782+0x283>
 8049d15:	20 75 70             	and    %dh,0x70(%ebp)
 8049d18:	2e 00 25 64 20 25 64 	add    %ah,%cs:0x64252064
 8049d1f:	20 25 64 20 25 64    	and    %ah,0x64252064
 8049d25:	20 25 64 20 25 64    	and    %ah,0x64252064
 8049d2b:	00 45 72             	add    %al,0x72(%ebp)
 8049d2e:	72 6f                	jb     8049d9f <array.2782+0x29f>
 8049d30:	72 3a                	jb     8049d6c <array.2782+0x26c>
 8049d32:	20 50 72             	and    %dl,0x72(%eax)
 8049d35:	65                   	gs
 8049d36:	6d                   	insl   (%dx),%es:(%edi)
 8049d37:	61                   	popa   
 8049d38:	74 75                	je     8049daf <array.2782+0x2af>
 8049d3a:	72 65                	jb     8049da1 <array.2782+0x2a1>
 8049d3c:	20 45 4f             	and    %al,0x4f(%ebp)
 8049d3f:	46                   	inc    %esi
 8049d40:	20 6f 6e             	and    %ch,0x6e(%edi)
 8049d43:	20 73 74             	and    %dh,0x74(%ebx)
 8049d46:	64 69 6e 00 47 52 41 	imul   $0x44415247,%fs:0x0(%esi),%ebp
 8049d4d:	44 
 8049d4e:	45                   	inc    %ebp
 8049d4f:	5f                   	pop    %edi
 8049d50:	42                   	inc    %edx
 8049d51:	4f                   	dec    %edi
 8049d52:	4d                   	dec    %ebp
 8049d53:	42                   	inc    %edx
 8049d54:	00 45 72             	add    %al,0x72(%ebp)
 8049d57:	72 6f                	jb     8049dc8 <array.2782+0x2c8>
 8049d59:	72 3a                	jb     8049d95 <array.2782+0x295>
 8049d5b:	20 49 6e             	and    %cl,0x6e(%ecx)
 8049d5e:	70 75                	jo     8049dd5 <array.2782+0x2d5>
 8049d60:	74 20                	je     8049d82 <array.2782+0x282>
 8049d62:	6c                   	insb   (%dx),%es:(%edi)
 8049d63:	69 6e 65 20 74 6f 6f 	imul   $0x6f6f7420,0x65(%esi),%ebp
 8049d6a:	20 6c 6f 6e          	and    %ch,0x6e(%edi,%ebp,2)
 8049d6e:	67 00 49 6e          	add    %cl,0x6e(%bx,%di)
 8049d72:	76 61                	jbe    8049dd5 <array.2782+0x2d5>
 8049d74:	6c                   	insb   (%dx),%es:(%edi)
 8049d75:	69 64 20 70 68 61 73 	imul   $0x65736168,0x70(%eax,%eiz,1),%esp
 8049d7c:	65 
 8049d7d:	25 73 0a 00 57       	and    $0x57000a73,%eax
 8049d82:	65                   	gs
 8049d83:	6c                   	insb   (%dx),%es:(%edi)
 8049d84:	6c                   	insb   (%dx),%es:(%edi)
 8049d85:	2e 2e 2e 00 4f 4b    	cs cs add %cl,%cs:0x4b(%edi)
 8049d8b:	2e 20 3a             	and    %bh,%cs:(%edx)
 8049d8e:	2d 29 00 42 61       	sub    $0x61420029,%eax
 8049d93:	64 20 68 6f          	and    %ch,%fs:0x6f(%eax)
 8049d97:	73 74                	jae    8049e0d <array.2782+0x30d>
 8049d99:	20 28                	and    %ch,(%eax)
 8049d9b:	31 29                	xor    %ebp,(%ecx)
 8049d9d:	2e 00 42 61          	add    %al,%cs:0x61(%edx)
 8049da1:	64 20 68 6f          	and    %ch,%fs:0x6f(%eax)
 8049da5:	73 74                	jae    8049e1b <array.2782+0x31b>
 8049da7:	20 28                	and    %ch,(%eax)
 8049da9:	32 29                	xor    (%ecx),%ch
 8049dab:	2e 00 42 61          	add    %al,%cs:0x61(%edx)
 8049daf:	64 20 68 6f          	and    %ch,%fs:0x6f(%eax)
 8049db3:	73 74                	jae    8049e29 <array.2782+0x329>
 8049db5:	20 28                	and    %ch,(%eax)
 8049db7:	33 29                	xor    (%ecx),%ebp
 8049db9:	2e 00 00             	add    %al,%cs:(%eax)
 8049dbc:	43                   	inc    %ebx
 8049dbd:	75 72                	jne    8049e31 <array.2782+0x331>
 8049dbf:	73 65                	jae    8049e26 <array.2782+0x326>
 8049dc1:	73 2c                	jae    8049def <array.2782+0x2ef>
 8049dc3:	20 79 6f             	and    %bh,0x6f(%ecx)
 8049dc6:	75 27                	jne    8049def <array.2782+0x2ef>
 8049dc8:	76 65                	jbe    8049e2f <array.2782+0x32f>
 8049dca:	20 66 6f             	and    %ah,0x6f(%esi)
 8049dcd:	75 6e                	jne    8049e3d <array.2782+0x33d>
 8049dcf:	64 20 74 68 65       	and    %dh,%fs:0x65(%eax,%ebp,2)
 8049dd4:	20 73 65             	and    %dh,0x65(%ebx)
 8049dd7:	63 72 65             	arpl   %si,0x65(%edx)
 8049dda:	74 20                	je     8049dfc <array.2782+0x2fc>
 8049ddc:	70 68                	jo     8049e46 <array.2782+0x346>
 8049dde:	61                   	popa   
 8049ddf:	73 65                	jae    8049e46 <array.2782+0x346>
 8049de1:	21 00                	and    %eax,(%eax)
 8049de3:	00 42 75             	add    %al,0x75(%edx)
 8049de6:	74 20                	je     8049e08 <array.2782+0x308>
 8049de8:	66 69 6e 64 69 6e    	imul   $0x6e69,0x64(%esi),%bp
 8049dee:	67 20 69 74          	and    %ch,0x74(%bx,%di)
 8049df2:	20 61 6e             	and    %ah,0x6e(%ecx)
 8049df5:	64 20 73 6f          	and    %dh,%fs:0x6f(%ebx)
 8049df9:	6c                   	insb   (%dx),%es:(%edi)
 8049dfa:	76 69                	jbe    8049e65 <array.2782+0x365>
 8049dfc:	6e                   	outsb  %ds:(%esi),(%dx)
 8049dfd:	67 20 69 74          	and    %ch,0x74(%bx,%di)
 8049e01:	20 61 72             	and    %ah,0x72(%ecx)
 8049e04:	65 20 71 75          	and    %dh,%gs:0x75(%ecx)
 8049e08:	69 74 65 20 64 69 66 	imul   $0x66666964,0x20(%ebp,%eiz,2),%esi
 8049e0f:	66 
 8049e10:	65                   	gs
 8049e11:	72 65                	jb     8049e78 <array.2782+0x378>
 8049e13:	6e                   	outsb  %ds:(%esi),(%dx)
 8049e14:	74 2e                	je     8049e44 <array.2782+0x344>
 8049e16:	2e 2e 00 00          	cs add %al,%cs:(%eax)
 8049e1a:	00 00                	add    %al,(%eax)
 8049e1c:	43                   	inc    %ebx
 8049e1d:	6f                   	outsl  %ds:(%esi),(%dx)
 8049e1e:	6e                   	outsb  %ds:(%esi),(%dx)
 8049e1f:	67 72 61             	addr16 jb 8049e83 <array.2782+0x383>
 8049e22:	74 75                	je     8049e99 <array.2782+0x399>
 8049e24:	6c                   	insb   (%dx),%es:(%edi)
 8049e25:	61                   	popa   
 8049e26:	74 69                	je     8049e91 <array.2782+0x391>
 8049e28:	6f                   	outsl  %ds:(%esi),(%dx)
 8049e29:	6e                   	outsb  %ds:(%esi),(%dx)
 8049e2a:	73 21                	jae    8049e4d <array.2782+0x34d>
 8049e2c:	20 59 6f             	and    %bl,0x6f(%ecx)
 8049e2f:	75 27                	jne    8049e58 <array.2782+0x358>
 8049e31:	76 65                	jbe    8049e98 <array.2782+0x398>
 8049e33:	20 64 65 66          	and    %ah,0x66(%ebp,%eiz,2)
 8049e37:	75 73                	jne    8049eac <array.2782+0x3ac>
 8049e39:	65 64 20 74 68 65    	gs and %dh,%fs:%gs:0x65(%eax,%ebp,2)
 8049e3f:	20 62 6f             	and    %ah,0x6f(%edx)
 8049e42:	6d                   	insl   (%dx),%es:(%edi)
 8049e43:	62 21                	bound  %esp,(%ecx)
 8049e45:	00 00                	add    %al,(%eax)
 8049e47:	00 59 6f             	add    %bl,0x6f(%ecx)
 8049e4a:	75 72                	jne    8049ebe <array.2782+0x3be>
 8049e4c:	20 69 6e             	and    %ch,0x6e(%ecx)
 8049e4f:	73 74                	jae    8049ec5 <array.2782+0x3c5>
 8049e51:	72 75                	jb     8049ec8 <array.2782+0x3c8>
 8049e53:	63 74 6f 72          	arpl   %si,0x72(%edi,%ebp,2)
 8049e57:	20 68 61             	and    %ch,0x61(%eax)
 8049e5a:	73 20                	jae    8049e7c <array.2782+0x37c>
 8049e5c:	62 65 65             	bound  %esp,0x65(%ebp)
 8049e5f:	6e                   	outsb  %ds:(%esi),(%dx)
 8049e60:	20 6e 6f             	and    %ch,0x6f(%esi)
 8049e63:	74 69                	je     8049ece <array.2782+0x3ce>
 8049e65:	66 69 65 64 20 61    	imul   $0x6120,0x64(%ebp),%sp
 8049e6b:	6e                   	outsb  %ds:(%esi),(%dx)
 8049e6c:	64 20 77 69          	and    %dh,%fs:0x69(%edi)
 8049e70:	6c                   	insb   (%dx),%es:(%edi)
 8049e71:	6c                   	insb   (%dx),%es:(%edi)
 8049e72:	20 76 65             	and    %dh,0x65(%esi)
 8049e75:	72 69                	jb     8049ee0 <array.2782+0x3e0>
 8049e77:	66                   	data16
 8049e78:	79 20                	jns    8049e9a <array.2782+0x39a>
 8049e7a:	79 6f                	jns    8049eeb <array.2782+0x3eb>
 8049e7c:	75 72                	jne    8049ef0 <array.2782+0x3f0>
 8049e7e:	20 73 6f             	and    %dh,0x6f(%ebx)
 8049e81:	6c                   	insb   (%dx),%es:(%edi)
 8049e82:	75 74                	jne    8049ef8 <array.2782+0x3f8>
 8049e84:	69 6f 6e 2e 00 00 00 	imul   $0x2e,0x6e(%edi),%ebp
 8049e8b:	00 59 6f             	add    %bl,0x6f(%ecx)
 8049e8e:	75 72                	jne    8049f02 <array.2782+0x402>
 8049e90:	20 69 6e             	and    %ch,0x6e(%ecx)
 8049e93:	73 74                	jae    8049f09 <array.2782+0x409>
 8049e95:	72 75                	jb     8049f0c <array.2782+0x40c>
 8049e97:	63 74 6f 72          	arpl   %si,0x72(%edi,%ebp,2)
 8049e9b:	20 68 61             	and    %ch,0x61(%eax)
 8049e9e:	73 20                	jae    8049ec0 <array.2782+0x3c0>
 8049ea0:	62 65 65             	bound  %esp,0x65(%ebp)
 8049ea3:	6e                   	outsb  %ds:(%esi),(%dx)
 8049ea4:	20 6e 6f             	and    %ch,0x6f(%esi)
 8049ea7:	74 69                	je     8049f12 <array.2782+0x412>
 8049ea9:	66 69 65 64 2e 00    	imul   $0x2e,0x64(%ebp),%sp
 8049eaf:	00 53 6f             	add    %dl,0x6f(%ebx)
 8049eb2:	20 79 6f             	and    %bh,0x6f(%ecx)
 8049eb5:	75 20                	jne    8049ed7 <array.2782+0x3d7>
 8049eb7:	74 68                	je     8049f21 <array.2782+0x421>
 8049eb9:	69 6e 6b 20 79 6f 75 	imul   $0x756f7920,0x6b(%esi),%ebp
 8049ec0:	20 63 61             	and    %ah,0x61(%ebx)
 8049ec3:	6e                   	outsb  %ds:(%esi),(%dx)
 8049ec4:	20 73 74             	and    %dh,0x74(%ebx)
 8049ec7:	6f                   	outsl  %ds:(%esi),(%dx)
 8049ec8:	70 20                	jo     8049eea <array.2782+0x3ea>
 8049eca:	74 68                	je     8049f34 <array.2782+0x434>
 8049ecc:	65 20 62 6f          	and    %ah,%gs:0x6f(%edx)
 8049ed0:	6d                   	insl   (%dx),%es:(%edi)
 8049ed1:	62 20                	bound  %esp,(%eax)
 8049ed3:	77 69                	ja     8049f3e <array.2782+0x43e>
 8049ed5:	74 68                	je     8049f3f <array.2782+0x43f>
 8049ed7:	20 63 74             	and    %ah,0x74(%ebx)
 8049eda:	72 6c                	jb     8049f48 <__FRAME_END__+0x4>
 8049edc:	2d 63 2c 20 64       	sub    $0x64202c63,%eax
 8049ee1:	6f                   	outsl  %ds:(%esi),(%dx)
 8049ee2:	20 79 6f             	and    %bh,0x6f(%ecx)
 8049ee5:	75 3f                	jne    8049f26 <array.2782+0x426>
	...

Disassembly of section .eh_frame_hdr:

08049ee8 <.eh_frame_hdr>:
 8049ee8:	01 1b                	add    %ebx,(%ebx)
 8049eea:	03 3b                	add    (%ebx),%edi
 8049eec:	10 00                	adc    %al,(%eax)
 8049eee:	00 00                	add    %al,(%eax)
 8049ef0:	01 00                	add    %eax,(%eax)
 8049ef2:	00 00                	add    %al,(%eax)
 8049ef4:	9c                   	pushf  
 8049ef5:	eb ff                	jmp    8049ef6 <array.2782+0x3f6>
 8049ef7:	ff 2c 00             	ljmp   *(%eax,%eax,1)
	...

Disassembly of section .eh_frame:

08049efc <__FRAME_END__-0x48>:
 8049efc:	14 00                	adc    $0x0,%al
 8049efe:	00 00                	add    %al,(%eax)
 8049f00:	00 00                	add    %al,(%eax)
 8049f02:	00 00                	add    %al,(%eax)
 8049f04:	01 7a 52             	add    %edi,0x52(%edx)
 8049f07:	00 01                	add    %al,(%ecx)
 8049f09:	7c 08                	jl     8049f13 <array.2782+0x413>
 8049f0b:	01 1b                	add    %ebx,(%ebx)
 8049f0d:	0c 04                	or     $0x4,%al
 8049f0f:	04 88                	add    $0x88,%al
 8049f11:	01 00                	add    %eax,(%eax)
 8049f13:	00 2c 00             	add    %ch,(%eax,%eax,1)
 8049f16:	00 00                	add    %al,(%eax)
 8049f18:	1c 00                	sbb    $0x0,%al
 8049f1a:	00 00                	add    %al,(%eax)
 8049f1c:	68 eb ff ff 02       	push   $0x2ffffeb
 8049f21:	01 00                	add    %eax,(%eax)
 8049f23:	00 00                	add    %al,(%eax)
 8049f25:	41                   	inc    %ecx
 8049f26:	0e                   	push   %cs
 8049f27:	08 42 85             	or     %al,-0x7b(%edx)
 8049f2a:	02 0d 05 4e 10 03    	add    0x3104e05,%cl
 8049f30:	07                   	pop    %es
 8049f31:	55                   	push   %ebp
 8049f32:	09 f0                	or     %esi,%eax
 8049f34:	1a 09                	sbb    (%ecx),%cl
 8049f36:	f8                   	clc    
 8049f37:	22 10                	and    (%eax),%dl
 8049f39:	06                   	push   %es
 8049f3a:	07                   	pop    %es
 8049f3b:	55                   	push   %ebp
 8049f3c:	09 f0                	or     %esi,%eax
 8049f3e:	1a 09                	sbb    (%ecx),%cl
 8049f40:	fc                   	cld    
 8049f41:	22 00                	and    (%eax),%al
	...

08049f44 <__FRAME_END__>:
 8049f44:	00 00                	add    %al,(%eax)
	...

Disassembly of section .ctors:

0804a000 <__CTOR_LIST__>:
 804a000:	ff                   	(bad)  
 804a001:	ff                   	(bad)  
 804a002:	ff                   	(bad)  
 804a003:	ff 00                	incl   (%eax)

0804a004 <__CTOR_END__>:
 804a004:	00 00                	add    %al,(%eax)
	...

Disassembly of section .dtors:

0804a008 <__DTOR_LIST__>:
 804a008:	ff                   	(bad)  
 804a009:	ff                   	(bad)  
 804a00a:	ff                   	(bad)  
 804a00b:	ff 00                	incl   (%eax)

0804a00c <__DTOR_END__>:
 804a00c:	00 00                	add    %al,(%eax)
	...

Disassembly of section .jcr:

0804a010 <__JCR_END__>:
 804a010:	00 00                	add    %al,(%eax)
	...

Disassembly of section .dynamic:

0804a014 <_DYNAMIC>:
 804a014:	01 00                	add    %eax,(%eax)
 804a016:	00 00                	add    %al,(%eax)
 804a018:	10 00                	adc    %al,(%eax)
 804a01a:	00 00                	add    %al,(%eax)
 804a01c:	0c 00                	or     $0x0,%al
 804a01e:	00 00                	add    %al,(%eax)
 804a020:	80 87 04 08 0d 00 00 	addb   $0x0,0xd0804(%edi)
 804a027:	00 bc 99 04 08 04 00 	add    %bh,0x40804(%ecx,%ebx,4)
 804a02e:	00 00                	add    %al,(%eax)
 804a030:	68 81 04 08 05       	push   $0x5080481
 804a035:	00 00                	add    %al,(%eax)
 804a037:	00 98 84 04 08 06    	add    %bl,0x6080484(%eax)
 804a03d:	00 00                	add    %al,(%eax)
 804a03f:	00 48 82             	add    %cl,-0x7e(%eax)
 804a042:	04 08                	add    $0x8,%al
 804a044:	0a 00                	or     (%eax),%al
 804a046:	00 00                	add    %al,(%eax)
 804a048:	3e 01 00             	add    %eax,%ds:(%eax)
 804a04b:	00 0b                	add    %cl,(%ebx)
 804a04d:	00 00                	add    %al,(%eax)
 804a04f:	00 10                	add    %dl,(%eax)
 804a051:	00 00                	add    %al,(%eax)
 804a053:	00 15 00 00 00 00    	add    %dl,0x0
 804a059:	00 00                	add    %al,(%eax)
 804a05b:	00 03                	add    %al,(%ebx)
 804a05d:	00 00                	add    %al,(%eax)
 804a05f:	00 e0                	add    %ah,%al
 804a061:	a0 04 08 02 00       	mov    0x20804,%al
 804a066:	00 00                	add    %al,(%eax)
 804a068:	08 01                	or     %al,(%ecx)
 804a06a:	00 00                	add    %al,(%eax)
 804a06c:	14 00                	adc    $0x0,%al
 804a06e:	00 00                	add    %al,(%eax)
 804a070:	11 00                	adc    %eax,(%eax)
 804a072:	00 00                	add    %al,(%eax)
 804a074:	17                   	pop    %ss
 804a075:	00 00                	add    %al,(%eax)
 804a077:	00 78 86             	add    %bh,-0x7a(%eax)
 804a07a:	04 08                	add    $0x8,%al
 804a07c:	11 00                	adc    %eax,(%eax)
 804a07e:	00 00                	add    %al,(%eax)
 804a080:	60                   	pusha  
 804a081:	86 04 08             	xchg   %al,(%eax,%ecx,1)
 804a084:	12 00                	adc    (%eax),%al
 804a086:	00 00                	add    %al,(%eax)
 804a088:	18 00                	sbb    %al,(%eax)
 804a08a:	00 00                	add    %al,(%eax)
 804a08c:	13 00                	adc    (%eax),%eax
 804a08e:	00 00                	add    %al,(%eax)
 804a090:	08 00                	or     %al,(%eax)
 804a092:	00 00                	add    %al,(%eax)
 804a094:	fe                   	(bad)  
 804a095:	ff                   	(bad)  
 804a096:	ff 6f 20             	ljmp   *0x20(%edi)
 804a099:	86 04 08             	xchg   %al,(%eax,%ecx,1)
 804a09c:	ff                   	(bad)  
 804a09d:	ff                   	(bad)  
 804a09e:	ff 6f 01             	ljmp   *0x1(%edi)
 804a0a1:	00 00                	add    %al,(%eax)
 804a0a3:	00 f0                	add    %dh,%al
 804a0a5:	ff                   	(bad)  
 804a0a6:	ff 6f d6             	ljmp   *-0x2a(%edi)
 804a0a9:	85 04 08             	test   %eax,(%eax,%ecx,1)
	...

Disassembly of section .got:

0804a0dc <.got>:
 804a0dc:	00 00                	add    %al,(%eax)
	...

Disassembly of section .got.plt:

0804a0e0 <_GLOBAL_OFFSET_TABLE_>:
 804a0e0:	14 a0                	adc    $0xa0,%al
 804a0e2:	04 08                	add    $0x8,%al
	...
 804a0ec:	c6 87 04 08 d6 87 04 	movb   $0x4,-0x7829f7fc(%edi)
 804a0f3:	08 e6                	or     %ah,%dh
 804a0f5:	87 04 08             	xchg   %eax,(%eax,%ecx,1)
 804a0f8:	f6 87 04 08 06 88 04 	testb  $0x4,-0x77f9f7fc(%edi)
 804a0ff:	08 16                	or     %dl,(%esi)
 804a101:	88 04 08             	mov    %al,(%eax,%ecx,1)
 804a104:	26 88 04 08          	mov    %al,%es:(%eax,%ecx,1)
 804a108:	36 88 04 08          	mov    %al,%ss:(%eax,%ecx,1)
 804a10c:	46                   	inc    %esi
 804a10d:	88 04 08             	mov    %al,(%eax,%ecx,1)
 804a110:	56                   	push   %esi
 804a111:	88 04 08             	mov    %al,(%eax,%ecx,1)
 804a114:	66                   	data16
 804a115:	88 04 08             	mov    %al,(%eax,%ecx,1)
 804a118:	76 88                	jbe    804a0a2 <_DYNAMIC+0x8e>
 804a11a:	04 08                	add    $0x8,%al
 804a11c:	86 88 04 08 96 88    	xchg   %cl,-0x7769f7fc(%eax)
 804a122:	04 08                	add    $0x8,%al
 804a124:	a6                   	cmpsb  %es:(%edi),%ds:(%esi)
 804a125:	88 04 08             	mov    %al,(%eax,%ecx,1)
 804a128:	b6 88                	mov    $0x88,%dh
 804a12a:	04 08                	add    $0x8,%al
 804a12c:	c6                   	(bad)  
 804a12d:	88 04 08             	mov    %al,(%eax,%ecx,1)
 804a130:	d6                   	(bad)  
 804a131:	88 04 08             	mov    %al,(%eax,%ecx,1)
 804a134:	e6 88                	out    %al,$0x88
 804a136:	04 08                	add    $0x8,%al
 804a138:	f6                   	(bad)  
 804a139:	88 04 08             	mov    %al,(%eax,%ecx,1)
 804a13c:	06                   	push   %es
 804a13d:	89 04 08             	mov    %eax,(%eax,%ecx,1)
 804a140:	16                   	push   %ss
 804a141:	89 04 08             	mov    %eax,(%eax,%ecx,1)
 804a144:	26 89 04 08          	mov    %eax,%es:(%eax,%ecx,1)
 804a148:	36 89 04 08          	mov    %eax,%ss:(%eax,%ecx,1)
 804a14c:	46                   	inc    %esi
 804a14d:	89 04 08             	mov    %eax,(%eax,%ecx,1)
 804a150:	56                   	push   %esi
 804a151:	89 04 08             	mov    %eax,(%eax,%ecx,1)
 804a154:	66 89 04 08          	mov    %ax,(%eax,%ecx,1)
 804a158:	76 89                	jbe    804a0e3 <_GLOBAL_OFFSET_TABLE_+0x3>
 804a15a:	04 08                	add    $0x8,%al
 804a15c:	86 89 04 08 96 89    	xchg   %cl,-0x7669f7fc(%ecx)
 804a162:	04 08                	add    $0x8,%al
 804a164:	a6                   	cmpsb  %es:(%edi),%ds:(%esi)
 804a165:	89 04 08             	mov    %eax,(%eax,%ecx,1)
 804a168:	b6 89                	mov    $0x89,%dh
 804a16a:	04 08                	add    $0x8,%al
 804a16c:	c6                   	(bad)  
 804a16d:	89 04 08             	mov    %eax,(%eax,%ecx,1)

Disassembly of section .data:

0804a180 <__data_start>:
 804a180:	00 00                	add    %al,(%eax)
	...

0804a184 <__dso_handle>:
	...

0804a1a0 <bomb_id>:
 804a1a0:	90                   	nop
 804a1a1:	63 33                	arpl   %si,(%ebx)
 804a1a3:	01 00                	add    %eax,(%eax)
	...

0804a1c0 <lab_id>:
 804a1c0:	53                   	push   %ebx
 804a1c1:	45                   	inc    %ebp
 804a1c2:	32 30                	xor    (%eax),%dh
 804a1c4:	31 34 4f             	xor    %esi,(%edi,%ecx,2)
 804a1c7:	6e                   	outsb  %ds:(%esi),(%dx)
 804a1c8:	6c                   	insb   (%dx),%es:(%edi)
 804a1c9:	69 6e 65 00 00 00 00 	imul   $0x0,0x65(%esi),%ebp
	...

Disassembly of section .bss:

0804a5c0 <stdin@@GLIBC_2.0>:
	...

0804a5e0 <stdout@@GLIBC_2.0>:
 804a5e0:	00 00                	add    %al,(%eax)
	...

0804a5e4 <completed.5877>:
 804a5e4:	00 00                	add    %al,(%eax)
	...

0804a5e8 <dtor_idx.5879>:
 804a5e8:	00 00                	add    %al,(%eax)
	...

0804a5ec <num_input_strings>:
 804a5ec:	00 00                	add    %al,(%eax)
	...

0804a5f0 <infile>:
	...

0804a600 <input_strings>:
	...

0804ac40 <scratch>:
	...

Disassembly of section .comment:

00000000 <.comment>:
   0:	00 47 43             	add    %al,0x43(%edi)
   3:	43                   	inc    %ebx
   4:	3a 20                	cmp    (%eax),%ah
   6:	28 44 65 62          	sub    %al,0x62(%ebp,%eiz,2)
   a:	69 61 6e 20 34 2e 33 	imul   $0x332e3420,0x6e(%ecx),%esp
  11:	2e 32 2d 31 2e 31 29 	xor    %cs:0x29312e31,%ch
  18:	20 34 2e             	and    %dh,(%esi,%ebp,1)
  1b:	33 2e                	xor    (%esi),%ebp
  1d:	32 00                	xor    (%eax),%al
  1f:	00 47 43             	add    %al,0x43(%edi)
  22:	43                   	inc    %ebx
  23:	3a 20                	cmp    (%eax),%ah
  25:	28 44 65 62          	sub    %al,0x62(%ebp,%eiz,2)
  29:	69 61 6e 20 34 2e 33 	imul   $0x332e3420,0x6e(%ecx),%esp
  30:	2e 32 2d 31 2e 31 29 	xor    %cs:0x29312e31,%ch
  37:	20 34 2e             	and    %dh,(%esi,%ebp,1)
  3a:	33 2e                	xor    (%esi),%ebp
  3c:	32 00                	xor    (%eax),%al
  3e:	00 47 43             	add    %al,0x43(%edi)
  41:	43                   	inc    %ebx
  42:	3a 20                	cmp    (%eax),%ah
  44:	28 47 4e             	sub    %al,0x4e(%edi)
  47:	55                   	push   %ebp
  48:	29 20                	sub    %esp,(%eax)
  4a:	34 2e                	xor    $0x2e,%al
  4c:	34 2e                	xor    $0x2e,%al
  4e:	30 00                	xor    %al,(%eax)
  50:	00 47 43             	add    %al,0x43(%edi)
  53:	43                   	inc    %ebx
  54:	3a 20                	cmp    (%eax),%ah
  56:	28 47 4e             	sub    %al,0x4e(%edi)
  59:	55                   	push   %ebp
  5a:	29 20                	sub    %esp,(%eax)
  5c:	34 2e                	xor    $0x2e,%al
  5e:	34 2e                	xor    $0x2e,%al
  60:	30 00                	xor    %al,(%eax)
  62:	00 47 43             	add    %al,0x43(%edi)
  65:	43                   	inc    %ebx
  66:	3a 20                	cmp    (%eax),%ah
  68:	28 47 4e             	sub    %al,0x4e(%edi)
  6b:	55                   	push   %ebp
  6c:	29 20                	sub    %esp,(%eax)
  6e:	34 2e                	xor    $0x2e,%al
  70:	34 2e                	xor    $0x2e,%al
  72:	30 00                	xor    %al,(%eax)
  74:	00 47 43             	add    %al,0x43(%edi)
  77:	43                   	inc    %ebx
  78:	3a 20                	cmp    (%eax),%ah
  7a:	28 47 4e             	sub    %al,0x4e(%edi)
  7d:	55                   	push   %ebp
  7e:	29 20                	sub    %esp,(%eax)
  80:	34 2e                	xor    $0x2e,%al
  82:	34 2e                	xor    $0x2e,%al
  84:	30 00                	xor    %al,(%eax)
  86:	00 47 43             	add    %al,0x43(%edi)
  89:	43                   	inc    %ebx
  8a:	3a 20                	cmp    (%eax),%ah
  8c:	28 44 65 62          	sub    %al,0x62(%ebp,%eiz,2)
  90:	69 61 6e 20 34 2e 33 	imul   $0x332e3420,0x6e(%ecx),%esp
  97:	2e 32 2d 31 2e 31 29 	xor    %cs:0x29312e31,%ch
  9e:	20 34 2e             	and    %dh,(%esi,%ebp,1)
  a1:	33 2e                	xor    (%esi),%ebp
  a3:	32 00                	xor    (%eax),%al
  a5:	00 47 43             	add    %al,0x43(%edi)
  a8:	43                   	inc    %ebx
  a9:	3a 20                	cmp    (%eax),%ah
  ab:	28 47 4e             	sub    %al,0x4e(%edi)
  ae:	55                   	push   %ebp
  af:	29 20                	sub    %esp,(%eax)
  b1:	34 2e                	xor    $0x2e,%al
  b3:	34 2e                	xor    $0x2e,%al
  b5:	30 00                	xor    %al,(%eax)
  b7:	00 47 43             	add    %al,0x43(%edi)
  ba:	43                   	inc    %ebx
  bb:	3a 20                	cmp    (%eax),%ah
  bd:	28 44 65 62          	sub    %al,0x62(%ebp,%eiz,2)
  c1:	69 61 6e 20 34 2e 33 	imul   $0x332e3420,0x6e(%ecx),%esp
  c8:	2e 32 2d 31 2e 31 29 	xor    %cs:0x29312e31,%ch
  cf:	20 34 2e             	and    %dh,(%esi,%ebp,1)
  d2:	33 2e                	xor    (%esi),%ebp
  d4:	32 00                	xor    (%eax),%al

Disassembly of section .debug_aranges:

00000000 <.debug_aranges>:
   0:	24 00                	and    $0x0,%al
   2:	00 00                	add    %al,(%eax)
   4:	02 00                	add    (%eax),%al
   6:	8d 00                	lea    (%eax),%eax
   8:	00 00                	add    %al,(%eax)
   a:	04 00                	add    $0x0,%al
   c:	00 00                	add    %al,(%eax)
   e:	00 00                	add    %al,(%eax)
  10:	80 87 04 08 22 00 00 	addb   $0x0,0x220804(%edi)
  17:	00 bc 99 04 08 13 00 	add    %bh,0x130804(%ecx,%ebx,4)
	...
  26:	00 00                	add    %al,(%eax)
  28:	1c 00                	sbb    $0x0,%al
  2a:	00 00                	add    %al,(%eax)
  2c:	02 00                	add    (%eax),%al
  2e:	17                   	pop    %ss
  2f:	01 00                	add    %eax,(%eax)
  31:	00 04 00             	add    %al,(%eax,%eax,1)
  34:	00 00                	add    %al,(%eax)
  36:	00 00                	add    %al,(%eax)
  38:	84 8a 04 08 02 01    	test   %cl,0x1020804(%edx)
	...
  46:	00 00                	add    %al,(%eax)
  48:	24 00                	and    $0x0,%al
  4a:	00 00                	add    %al,(%eax)
  4c:	02 00                	add    (%eax),%al
  4e:	7f 04                	jg     54 <_init-0x804872c>
  50:	00 00                	add    %al,(%eax)
  52:	04 00                	add    $0x0,%al
  54:	00 00                	add    %al,(%eax)
  56:	00 00                	add    %al,(%eax)
  58:	ac                   	lods   %ds:(%esi),%al
  59:	87 04 08             	xchg   %eax,(%eax,%ecx,1)
  5c:	04 00                	add    $0x0,%al
  5e:	00 00                	add    %al,(%eax)
  60:	d4 99                	aam    $0x99
  62:	04 08                	add    $0x8,%al
  64:	04 00                	add    $0x0,%al
	...

Disassembly of section .debug_pubnames:

00000000 <.debug_pubnames>:
   0:	21 00                	and    %eax,(%eax)
   2:	00 00                	add    %al,(%eax)
   4:	02 00                	add    (%eax),%al
   6:	00 00                	add    %al,(%eax)
   8:	00 00                	add    %al,(%eax)
   a:	8d 00                	lea    (%eax),%eax
   c:	00 00                	add    %al,(%eax)
   e:	75 00                	jne    10 <_init-0x8048770>
  10:	00 00                	add    %al,(%eax)
  12:	5f                   	pop    %edi
  13:	49                   	dec    %ecx
  14:	4f                   	dec    %edi
  15:	5f                   	pop    %edi
  16:	73 74                	jae    8c <_init-0x80486f4>
  18:	64 69 6e 5f 75 73 65 	imul   $0x64657375,%fs:0x5f(%esi),%ebp
  1f:	64 
  20:	00 00                	add    %al,(%eax)
  22:	00 00                	add    %al,(%eax)
  24:	00 22                	add    %ah,(%edx)
  26:	00 00                	add    %al,(%eax)
  28:	00 02                	add    %al,(%edx)
  2a:	00 17                	add    %dl,(%edi)
  2c:	01 00                	add    %eax,(%eax)
  2e:	00 68 03             	add    %ch,0x3(%eax)
  31:	00 00                	add    %al,(%eax)
  33:	e4 02                	in     $0x2,%al
  35:	00 00                	add    %al,(%eax)
  37:	6d                   	insl   (%dx),%es:(%edi)
  38:	61                   	popa   
  39:	69 6e 00 4f 03 00 00 	imul   $0x34f,0x0(%esi),%ebp
  40:	69 6e 66 69 6c 65 00 	imul   $0x656c69,0x66(%esi),%ebp
  47:	00 00                	add    %al,(%eax)
	...

Disassembly of section .debug_info:

00000000 <.debug_info>:
   0:	89 00                	mov    %eax,(%eax)
   2:	00 00                	add    %al,(%eax)
   4:	02 00                	add    (%eax),%al
   6:	00 00                	add    %al,(%eax)
   8:	00 00                	add    %al,(%eax)
   a:	04 01                	add    $0x1,%al
   c:	2f                   	das    
   d:	00 00                	add    %al,(%eax)
   f:	00 01                	add    %al,(%ecx)
  11:	8c 00                	mov    %es,(%eax)
  13:	00 00                	add    %al,(%eax)
  15:	00 00                	add    %al,(%eax)
  17:	00 00                	add    %al,(%eax)
  19:	f4                   	hlt    
  1a:	89 04 08             	mov    %eax,(%eax,%ecx,1)
  1d:	f4                   	hlt    
  1e:	89 04 08             	mov    %eax,(%eax,%ecx,1)
  21:	00 00                	add    %al,(%eax)
  23:	00 00                	add    %al,(%eax)
  25:	02 01                	add    (%ecx),%al
  27:	08 7e 00             	or     %bh,0x0(%esi)
  2a:	00 00                	add    %al,(%eax)
  2c:	02 02                	add    (%edx),%al
  2e:	07                   	pop    %es
  2f:	3b 00                	cmp    (%eax),%eax
  31:	00 00                	add    %al,(%eax)
  33:	02 04 07             	add    (%edi,%eax,1),%al
  36:	71 00                	jno    38 <_init-0x8048748>
  38:	00 00                	add    %al,(%eax)
  3a:	02 04 07             	add    (%edi,%eax,1),%al
  3d:	6c                   	insb   (%dx),%es:(%edi)
  3e:	00 00                	add    %al,(%eax)
  40:	00 02                	add    %al,(%edx)
  42:	01 06                	add    %eax,(%esi)
  44:	80 00 00             	addb   $0x0,(%eax)
  47:	00 02                	add    %al,(%edx)
  49:	02 05 4e 00 00 00    	add    0x4e,%al
  4f:	03 04 05 69 6e 74 00 	add    0x746e69(,%eax,1),%eax
  56:	02 08                	add    (%eax),%cl
  58:	05 93 00 00 00       	add    $0x93,%eax
  5d:	02 08                	add    (%eax),%cl
  5f:	07                   	pop    %es
  60:	67 00 00             	add    %al,(%bx,%si)
  63:	00 02                	add    %al,(%edx)
  65:	04 05                	add    $0x5,%al
  67:	98                   	cwtl   
  68:	00 00                	add    %al,(%eax)
  6a:	00 04 04             	add    %al,(%esp,%eax,1)
  6d:	07                   	pop    %es
  6e:	02 01                	add    (%ecx),%al
  70:	06                   	push   %es
  71:	87 00                	xchg   %eax,(%eax)
  73:	00 00                	add    %al,(%eax)
  75:	05 58 00 00 00       	add    $0x58,%eax
  7a:	01 19                	add    %ebx,(%ecx)
  7c:	87 00                	xchg   %eax,(%eax)
  7e:	00 00                	add    %al,(%eax)
  80:	01 05 03 e4 99 04    	add    %eax,0x499e403
  86:	08 06                	or     %al,(%esi)
  88:	4f                   	dec    %edi
  89:	00 00                	add    %al,(%eax)
  8b:	00 00                	add    %al,(%eax)
  8d:	86 00                	xchg   %al,(%eax)
  8f:	00 00                	add    %al,(%eax)
  91:	02 00                	add    (%eax),%al
  93:	4b                   	dec    %ebx
  94:	00 00                	add    %al,(%eax)
  96:	00 04 01             	add    %al,(%ecx,%eax,1)
  99:	27                   	daa    
  9a:	00 00                	add    %al,(%eax)
  9c:	00 00                	add    %al,(%eax)
  9e:	00 00                	add    %al,(%eax)
  a0:	00 2f                	add    %ch,(%edi)
  a2:	74 6d                	je     111 <_init-0x804866f>
  a4:	70 2f                	jo     d5 <_init-0x80486ab>
  a6:	62 75 69             	bound  %esi,0x69(%ebp)
  a9:	6c                   	insb   (%dx),%es:(%edi)
  aa:	64                   	fs
  ab:	64                   	fs
  ac:	2f                   	das    
  ad:	67 6c                	insb   (%dx),%es:(%di)
  af:	69 62 63 2d 32 2e 37 	imul   $0x372e322d,0x63(%edx),%esp
  b6:	2f                   	das    
  b7:	62 75 69             	bound  %esi,0x69(%ebp)
  ba:	6c                   	insb   (%dx),%es:(%edi)
  bb:	64                   	fs
  bc:	2d 74 72 65 65       	sub    $0x65657274,%eax
  c1:	2f                   	das    
  c2:	61                   	popa   
  c3:	6d                   	insl   (%dx),%es:(%edi)
  c4:	64                   	fs
  c5:	36                   	ss
  c6:	34 2d                	xor    $0x2d,%al
  c8:	69 33 38 36 2f 63    	imul   $0x632f3638,(%ebx),%esi
  ce:	73 75                	jae    145 <_init-0x804863b>
  d0:	2f                   	das    
  d1:	63 72 74             	arpl   %si,0x74(%edx)
  d4:	69 2e 53 00 2f 74    	imul   $0x742f0053,(%esi),%ebp
  da:	6d                   	insl   (%dx),%es:(%edi)
  db:	70 2f                	jo     10c <_init-0x8048674>
  dd:	62 75 69             	bound  %esi,0x69(%ebp)
  e0:	6c                   	insb   (%dx),%es:(%edi)
  e1:	64                   	fs
  e2:	64                   	fs
  e3:	2f                   	das    
  e4:	67 6c                	insb   (%dx),%es:(%di)
  e6:	69 62 63 2d 32 2e 37 	imul   $0x372e322d,0x63(%edx),%esp
  ed:	2f                   	das    
  ee:	62 75 69             	bound  %esi,0x69(%ebp)
  f1:	6c                   	insb   (%dx),%es:(%edi)
  f2:	64                   	fs
  f3:	2d 74 72 65 65       	sub    $0x65657274,%eax
  f8:	2f                   	das    
  f9:	67 6c                	insb   (%dx),%es:(%di)
  fb:	69 62 63 2d 32 2e 37 	imul   $0x372e322d,0x63(%edx),%esp
 102:	2f                   	das    
 103:	63 73 75             	arpl   %si,0x75(%ebx)
 106:	00 47 4e             	add    %al,0x4e(%edi)
 109:	55                   	push   %ebp
 10a:	20 41 53             	and    %al,0x53(%ecx)
 10d:	20 32                	and    %dh,(%edx)
 10f:	2e 31 38             	xor    %edi,%cs:(%eax)
 112:	2e 30 00             	xor    %al,%cs:(%eax)
 115:	01 80 64 03 00 00    	add    %eax,0x364(%eax)
 11b:	02 00                	add    (%eax),%al
 11d:	5d                   	pop    %ebp
 11e:	00 00                	add    %al,(%eax)
 120:	00 04 01             	add    %al,(%ecx,%eax,1)
 123:	59                   	pop    %ecx
 124:	02 00                	add    (%eax),%al
 126:	00 01                	add    %al,(%ecx)
 128:	ea 00 00 00 93 01 00 	ljmp   $0x1,$0x93000000
 12f:	00 84 8a 04 08 86 8b 	add    %al,-0x7479f7fc(%edx,%ecx,4)
 136:	04 08                	add    $0x8,%al
 138:	d0 00                	rolb   (%eax)
 13a:	00 00                	add    %al,(%eax)
 13c:	02 cf                	add    %bh,%cl
 13e:	00 00                	add    %al,(%eax)
 140:	00 02                	add    %al,(%edx)
 142:	d3                   	(bad)  
 143:	30 00                	xor    %al,(%eax)
 145:	00 00                	add    %al,(%eax)
 147:	03 04 07             	add    (%edi,%eax,1),%eax
 14a:	71 00                	jno    14c <_init-0x8048634>
 14c:	00 00                	add    %al,(%eax)
 14e:	03 01                	add    (%ecx),%eax
 150:	08 7e 00             	or     %bh,0x0(%esi)
 153:	00 00                	add    %al,(%eax)
 155:	03 02                	add    (%edx),%eax
 157:	07                   	pop    %es
 158:	3b 00                	cmp    (%eax),%eax
 15a:	00 00                	add    %al,(%eax)
 15c:	03 04 07             	add    (%edi,%eax,1),%eax
 15f:	6c                   	insb   (%dx),%es:(%edi)
 160:	00 00                	add    %al,(%eax)
 162:	00 03                	add    %al,(%ebx)
 164:	01 06                	add    %eax,(%esi)
 166:	80 00 00             	addb   $0x0,(%eax)
 169:	00 03                	add    %al,(%ebx)
 16b:	02 05 4e 00 00 00    	add    0x4e,%al
 171:	04 04                	add    $0x4,%al
 173:	05 69 6e 74 00       	add    $0x746e69,%eax
 178:	03 08                	add    (%eax),%ecx
 17a:	05 93 00 00 00       	add    $0x93,%eax
 17f:	03 08                	add    (%eax),%ecx
 181:	07                   	pop    %es
 182:	67 00 00             	add    %al,(%bx,%si)
 185:	00 02                	add    %al,(%edx)
 187:	ad                   	lods   %ds:(%esi),%eax
 188:	00 00                	add    %al,(%eax)
 18a:	00 03                	add    %al,(%ebx)
 18c:	38 61 00             	cmp    %ah,0x0(%ecx)
 18f:	00 00                	add    %al,(%eax)
 191:	02 09                	add    (%ecx),%cl
 193:	02 00                	add    (%eax),%al
 195:	00 03                	add    %al,(%ebx)
 197:	8d 85 00 00 00 03    	lea    0x3000000(%ebp),%eax
 19d:	04 05                	add    $0x5,%al
 19f:	98                   	cwtl   
 1a0:	00 00                	add    %al,(%eax)
 1a2:	00 02                	add    %al,(%edx)
 1a4:	ff 01                	incl   (%ecx)
 1a6:	00 00                	add    %al,(%eax)
 1a8:	03 8e 6f 00 00 00    	add    0x6f(%esi),%ecx
 1ae:	05 04 07 06 04       	add    $0x4060704,%eax
 1b3:	07                   	pop    %es
 1b4:	04 a2                	add    $0xa2,%al
 1b6:	00 00                	add    %al,(%eax)
 1b8:	00 03                	add    %al,(%ebx)
 1ba:	01 06                	add    %eax,(%esi)
 1bc:	87 00                	xchg   %eax,(%eax)
 1be:	00 00                	add    %al,(%eax)
 1c0:	02 41 01             	add    0x1(%ecx),%al
 1c3:	00 00                	add    %al,(%eax)
 1c5:	04 31                	add    $0x31,%al
 1c7:	b4 00                	mov    $0x0,%ah
 1c9:	00 00                	add    %al,(%eax)
 1cb:	08 3d 01 00 00 94    	or     %bh,0x94000001
 1d1:	04 2d                	add    $0x2d,%al
 1d3:	74 02                	je     1d7 <_init-0x80485a9>
 1d5:	00 00                	add    %al,(%eax)
 1d7:	09 6d 02             	or     %ebp,0x2(%ebp)
 1da:	00 00                	add    %al,(%eax)
 1dc:	05 10 01 5a 00       	add    $0x5a0110,%eax
 1e1:	00 00                	add    %al,(%eax)
 1e3:	02 23                	add    (%ebx),%ah
 1e5:	00 09                	add    %cl,(%ecx)
 1e7:	86 01                	xchg   %al,(%ecx)
 1e9:	00 00                	add    %al,(%eax)
 1eb:	05 15 01 9c 00       	add    $0x9c0115,%eax
 1f0:	00 00                	add    %al,(%eax)
 1f2:	02 23                	add    (%ebx),%ah
 1f4:	04 09                	add    $0x9,%al
 1f6:	0e                   	push   %cs
 1f7:	01 00                	add    %eax,(%eax)
 1f9:	00 05 16 01 9c 00    	add    %al,0x9c0116
 1ff:	00 00                	add    %al,(%eax)
 201:	02 23                	add    (%ebx),%ah
 203:	08 09                	or     %cl,(%ecx)
 205:	3c 02                	cmp    $0x2,%al
 207:	00 00                	add    %al,(%eax)
 209:	05 17 01 9c 00       	add    $0x9c0117,%eax
 20e:	00 00                	add    %al,(%eax)
 210:	02 23                	add    (%ebx),%ah
 212:	0c 09                	or     $0x9,%al
 214:	6e                   	outsb  %ds:(%esi),(%dx)
 215:	01 00                	add    %eax,(%eax)
 217:	00 05 18 01 9c 00    	add    %al,0x9c0118
 21d:	00 00                	add    %al,(%eax)
 21f:	02 23                	add    (%ebx),%ah
 221:	10 09                	adc    %cl,(%ecx)
 223:	dc 00                	faddl  (%eax)
 225:	00 00                	add    %al,(%eax)
 227:	05 19 01 9c 00       	add    $0x9c0119,%eax
 22c:	00 00                	add    %al,(%eax)
 22e:	02 23                	add    (%ebx),%ah
 230:	14 09                	adc    $0x9,%al
 232:	f1                   	icebp  
 233:	01 00                	add    %eax,(%eax)
 235:	00 05 1a 01 9c 00    	add    %al,0x9c011a
 23b:	00 00                	add    %al,(%eax)
 23d:	02 23                	add    (%ebx),%ah
 23f:	18 09                	sbb    %cl,(%ecx)
 241:	f1                   	icebp  
 242:	00 00                	add    %al,(%eax)
 244:	00 05 1b 01 9c 00    	add    %al,0x9c011b
 24a:	00 00                	add    %al,(%eax)
 24c:	02 23                	add    (%ebx),%ah
 24e:	1c 09                	sbb    $0x9,%al
 250:	a1 00 00 00 05       	mov    0x5000000,%eax
 255:	1c 01                	sbb    $0x1,%al
 257:	9c                   	pushf  
 258:	00 00                	add    %al,(%eax)
 25a:	00 02                	add    %al,(%edx)
 25c:	23 20                	and    (%eax),%esp
 25e:	09 4b 01             	or     %ecx,0x1(%ebx)
 261:	00 00                	add    %al,(%eax)
 263:	05 1e 01 9c 00       	add    $0x9c011e,%eax
 268:	00 00                	add    %al,(%eax)
 26a:	02 23                	add    (%ebx),%ah
 26c:	24 09                	and    $0x9,%al
 26e:	18 02                	sbb    %al,(%edx)
 270:	00 00                	add    %al,(%eax)
 272:	05 1f 01 9c 00       	add    $0x9c011f,%eax
 277:	00 00                	add    %al,(%eax)
 279:	02 23                	add    (%ebx),%ah
 27b:	28 09                	sub    %cl,(%ecx)
 27d:	c2 00 00             	ret    $0x0
 280:	00 05 20 01 9c 00    	add    %al,0x9c0120
 286:	00 00                	add    %al,(%eax)
 288:	02 23                	add    (%ebx),%ah
 28a:	2c 09                	sub    $0x9,%al
 28c:	05 01 00 00 05       	add    $0x5000001,%eax
 291:	22 01                	and    (%ecx),%al
 293:	b2 02                	mov    $0x2,%dl
 295:	00 00                	add    %al,(%eax)
 297:	02 23                	add    (%ebx),%ah
 299:	30 09                	xor    %cl,(%ecx)
 29b:	11 02                	adc    %eax,(%edx)
 29d:	00 00                	add    %al,(%eax)
 29f:	05 24 01 b8 02       	add    $0x2b80124,%eax
 2a4:	00 00                	add    %al,(%eax)
 2a6:	02 23                	add    (%ebx),%ah
 2a8:	34 09                	xor    $0x9,%al
 2aa:	65 02 00             	add    %gs:(%eax),%al
 2ad:	00 05 26 01 5a 00    	add    %al,0x5a0126
 2b3:	00 00                	add    %al,(%eax)
 2b5:	02 23                	add    (%ebx),%ah
 2b7:	38 09                	cmp    %cl,(%ecx)
 2b9:	2e 02 00             	add    %cs:(%eax),%al
 2bc:	00 05 2a 01 5a 00    	add    %al,0x5a012a
 2c2:	00 00                	add    %al,(%eax)
 2c4:	02 23                	add    (%ebx),%ah
 2c6:	3c 09                	cmp    $0x9,%al
 2c8:	b6 00                	mov    $0x0,%dh
 2ca:	00 00                	add    %al,(%eax)
 2cc:	05 2c 01 7a 00       	add    $0x7a012c,%eax
 2d1:	00 00                	add    %al,(%eax)
 2d3:	02 23                	add    (%ebx),%ah
 2d5:	40                   	inc    %eax
 2d6:	09 21                	or     %esp,(%ecx)
 2d8:	01 00                	add    %eax,(%eax)
 2da:	00 05 30 01 3e 00    	add    %al,0x3e0130
 2e0:	00 00                	add    %al,(%eax)
 2e2:	02 23                	add    (%ebx),%ah
 2e4:	44                   	inc    %esp
 2e5:	09 4a 02             	or     %ecx,0x2(%edx)
 2e8:	00 00                	add    %al,(%eax)
 2ea:	05 31 01 4c 00       	add    $0x4c0131,%eax
 2ef:	00 00                	add    %al,(%eax)
 2f1:	02 23                	add    (%ebx),%ah
 2f3:	46                   	inc    %esi
 2f4:	09 64 01 00          	or     %esp,0x0(%ecx,%eax,1)
 2f8:	00 05 32 01 be 02    	add    %al,0x2be0132
 2fe:	00 00                	add    %al,(%eax)
 300:	02 23                	add    (%ebx),%ah
 302:	47                   	inc    %edi
 303:	09 1b                	or     %ebx,(%ebx)
 305:	01 00                	add    %eax,(%eax)
 307:	00 05 36 01 ce 02    	add    %al,0x2ce0136
 30d:	00 00                	add    %al,(%eax)
 30f:	02 23                	add    (%ebx),%ah
 311:	48                   	dec    %eax
 312:	09 ba 00 00 00 05    	or     %edi,0x5000000(%edx)
 318:	3f                   	aas    
 319:	01 8c 00 00 00 02 23 	add    %ecx,0x23020000(%eax,%eax,1)
 320:	4c                   	dec    %esp
 321:	09 ce                	or     %ecx,%esi
 323:	01 00                	add    %eax,(%eax)
 325:	00 05 48 01 9a 00    	add    %al,0x9a0148
 32b:	00 00                	add    %al,(%eax)
 32d:	02 23                	add    (%ebx),%ah
 32f:	54                   	push   %esp
 330:	09 d5                	or     %edx,%ebp
 332:	01 00                	add    %eax,(%eax)
 334:	00 05 49 01 9a 00    	add    %al,0x9a0149
 33a:	00 00                	add    %al,(%eax)
 33c:	02 23                	add    (%ebx),%ah
 33e:	58                   	pop    %eax
 33f:	09 dc                	or     %ebx,%esp
 341:	01 00                	add    %eax,(%eax)
 343:	00 05 4a 01 9a 00    	add    %al,0x9a014a
 349:	00 00                	add    %al,(%eax)
 34b:	02 23                	add    (%ebx),%ah
 34d:	5c                   	pop    %esp
 34e:	09 e3                	or     %esp,%ebx
 350:	01 00                	add    %eax,(%eax)
 352:	00 05 4b 01 9a 00    	add    %al,0x9a014b
 358:	00 00                	add    %al,(%eax)
 35a:	02 23                	add    (%ebx),%ah
 35c:	60                   	pusha  
 35d:	09 ea                	or     %ebp,%edx
 35f:	01 00                	add    %eax,(%eax)
 361:	00 05 4c 01 25 00    	add    %al,0x25014c
 367:	00 00                	add    %al,(%eax)
 369:	02 23                	add    (%ebx),%ah
 36b:	64 09 36             	or     %esi,%fs:(%esi)
 36e:	02 00                	add    (%eax),%al
 370:	00 05 4e 01 5a 00    	add    %al,0x5a014e
 376:	00 00                	add    %al,(%eax)
 378:	02 23                	add    (%ebx),%ah
 37a:	68 09 7d 01 00       	push   $0x17d09
 37f:	00 05 50 01 d4 02    	add    %al,0x2d40150
 385:	00 00                	add    %al,(%eax)
 387:	02 23                	add    (%ebx),%ah
 389:	6c                   	insb   (%dx),%es:(%edi)
 38a:	00 0a                	add    %cl,(%edx)
 38c:	7b 02                	jnp    390 <_init-0x80483f0>
 38e:	00 00                	add    %al,(%eax)
 390:	05 b4 08 59 01       	add    $0x15908b4,%eax
 395:	00 00                	add    %al,(%eax)
 397:	0c 05                	or     $0x5,%al
 399:	ba b2 02 00 00       	mov    $0x2b2,%edx
 39e:	0b c8                	or     %eax,%ecx
 3a0:	01 00                	add    %eax,(%eax)
 3a2:	00 05 bb b2 02 00    	add    %al,0x2b2bb
 3a8:	00 02                	add    %al,(%edx)
 3aa:	23 00                	and    (%eax),%eax
 3ac:	0b 37                	or     (%edi),%esi
 3ae:	01 00                	add    %eax,(%eax)
 3b0:	00 05 bc b8 02 00    	add    %al,0x2b8bc
 3b6:	00 02                	add    %al,(%edx)
 3b8:	23 04 0b             	and    (%ebx,%ecx,1),%eax
 3bb:	2d 01 00 00 05       	sub    $0x5000001,%eax
 3c0:	c0 5a 00 00          	rcrb   $0x0,0x0(%edx)
 3c4:	00 02                	add    %al,(%edx)
 3c6:	23 08                	and    (%eax),%ecx
 3c8:	00 07                	add    %al,(%edi)
 3ca:	04 7b                	add    $0x7b,%al
 3cc:	02 00                	add    (%eax),%al
 3ce:	00 07                	add    %al,(%edi)
 3d0:	04 b4                	add    $0xb4,%al
 3d2:	00 00                	add    %al,(%eax)
 3d4:	00 0c a2             	add    %cl,(%edx,%eiz,4)
 3d7:	00 00                	add    %al,(%eax)
 3d9:	00 ce                	add    %cl,%dh
 3db:	02 00                	add    (%eax),%al
 3dd:	00 0d 97 00 00 00    	add    %cl,0x97
 3e3:	00 00                	add    %al,(%eax)
 3e5:	07                   	pop    %es
 3e6:	04 74                	add    $0x74,%al
 3e8:	02 00                	add    (%eax),%al
 3ea:	00 0c a2             	add    %cl,(%edx,%eiz,4)
 3ed:	00 00                	add    %al,(%eax)
 3ef:	00 e4                	add    %ah,%ah
 3f1:	02 00                	add    (%eax),%al
 3f3:	00 0d 97 00 00 00    	add    %cl,0x97
 3f9:	27                   	daa    
 3fa:	00 0e                	add    %cl,(%esi)
 3fc:	01 c3                	add    %eax,%ebx
 3fe:	01 00                	add    %eax,(%eax)
 400:	00 01                	add    %al,(%ecx)
 402:	23 01                	and    (%ecx),%eax
 404:	5a                   	pop    %edx
 405:	00 00                	add    %al,(%eax)
 407:	00 84 8a 04 08 86 8b 	add    %al,-0x7479f7fc(%edx,%ecx,4)
 40e:	04 08                	add    $0x8,%al
 410:	00 00                	add    %al,(%eax)
 412:	00 00                	add    %al,(%eax)
 414:	2f                   	das    
 415:	03 00                	add    (%eax),%eax
 417:	00 0f                	add    %cl,(%edi)
 419:	46                   	inc    %esi
 41a:	01 00                	add    %eax,(%eax)
 41c:	00 01                	add    %al,(%ecx)
 41e:	23 5a 00             	and    0x0(%edx),%ebx
 421:	00 00                	add    %al,(%eax)
 423:	14 00                	adc    $0x0,%al
 425:	00 00                	add    %al,(%eax)
 427:	0f 32                	rdmsr  
 429:	01 00                	add    %eax,(%eax)
 42b:	00 01                	add    %al,(%ecx)
 42d:	23 2f                	and    (%edi),%ebp
 42f:	03 00                	add    (%eax),%eax
 431:	00 56 00             	add    %dl,0x0(%esi)
 434:	00 00                	add    %al,(%eax)
 436:	10 d6                	adc    %dl,%dh
 438:	00 00                	add    %al,(%eax)
 43a:	00 01                	add    %al,(%ecx)
 43c:	25 9c 00 00 00       	and    $0x9c,%eax
 441:	81 00 00 00 00 07    	addl   $0x7000000,(%eax)
 447:	04 9c                	add    $0x9c,%al
 449:	00 00                	add    %al,(%eax)
 44b:	00 11                	add    %dl,(%ecx)
 44d:	28 02                	sub    %al,(%edx)
 44f:	00 00                	add    %al,(%eax)
 451:	04 91                	add    $0x91,%al
 453:	b8 02 00 00 01       	mov    $0x1000002,%eax
 458:	01 11                	add    %edx,(%ecx)
 45a:	74 02                	je     45e <_init-0x8048322>
 45c:	00 00                	add    %al,(%eax)
 45e:	04 92                	add    $0x92,%al
 460:	b8 02 00 00 01       	mov    $0x1000002,%eax
 465:	01 12                	add    %edx,(%edx)
 467:	fe 00                	incb   (%eax)
 469:	00 00                	add    %al,(%eax)
 46b:	01 21                	add    %esp,(%ecx)
 46d:	61                   	popa   
 46e:	03 00                	add    (%eax),%eax
 470:	00 01                	add    %al,(%ecx)
 472:	05 03 f0 a5 04       	add    $0x4a5f003,%eax
 477:	08 07                	or     %al,(%edi)
 479:	04 a9                	add    $0xa9,%al
 47b:	00 00                	add    %al,(%eax)
 47d:	00 00                	add    %al,(%eax)
 47f:	5f                   	pop    %edi
 480:	00 00                	add    %al,(%eax)
 482:	00 02                	add    %al,(%edx)
 484:	00 50 01             	add    %dl,0x1(%eax)
 487:	00 00                	add    %al,(%eax)
 489:	04 01                	add    $0x1,%al
 48b:	a7                   	cmpsl  %es:(%edi),%ds:(%esi)
 48c:	01 00                	add    %eax,(%eax)
 48e:	00 20                	add    %ah,(%eax)
 490:	00 00                	add    %al,(%eax)
 492:	00 2f                	add    %ch,(%edi)
 494:	74 6d                	je     503 <_init-0x804827d>
 496:	70 2f                	jo     4c7 <_init-0x80482b9>
 498:	63 63 66             	arpl   %sp,0x66(%ebx)
 49b:	4a                   	dec    %edx
 49c:	67 31 57 5a          	xor    %edx,0x5a(%bx)
 4a0:	2e 73 00             	jae,pn 4a3 <_init-0x80482dd>
 4a3:	2f                   	das    
 4a4:	74 6d                	je     513 <_init-0x804826d>
 4a6:	70 2f                	jo     4d7 <_init-0x80482a9>
 4a8:	62 75 69             	bound  %esi,0x69(%ebp)
 4ab:	6c                   	insb   (%dx),%es:(%edi)
 4ac:	64                   	fs
 4ad:	64                   	fs
 4ae:	2f                   	das    
 4af:	67 6c                	insb   (%dx),%es:(%di)
 4b1:	69 62 63 2d 32 2e 37 	imul   $0x372e322d,0x63(%edx),%esp
 4b8:	2f                   	das    
 4b9:	62 75 69             	bound  %esi,0x69(%ebp)
 4bc:	6c                   	insb   (%dx),%es:(%edi)
 4bd:	64                   	fs
 4be:	2d 74 72 65 65       	sub    $0x65657274,%eax
 4c3:	2f                   	das    
 4c4:	67 6c                	insb   (%dx),%es:(%di)
 4c6:	69 62 63 2d 32 2e 37 	imul   $0x372e322d,0x63(%edx),%esp
 4cd:	2f                   	das    
 4ce:	63 73 75             	arpl   %si,0x75(%ebx)
 4d1:	00 47 4e             	add    %al,0x4e(%edi)
 4d4:	55                   	push   %ebp
 4d5:	20 41 53             	and    %al,0x53(%ecx)
 4d8:	20 32                	and    %dh,(%edx)
 4da:	2e 31 38             	xor    %edi,%cs:(%eax)
 4dd:	2e 30 00             	xor    %al,%cs:(%eax)
 4e0:	01                   	.byte 0x1
 4e1:	80                   	.byte 0x80

Disassembly of section .debug_abbrev:

00000000 <.debug_abbrev>:
   0:	01 11                	add    %edx,(%ecx)
   2:	01 25 0e 13 0b 03    	add    %esp,0x30b130e
   8:	0e                   	push   %cs
   9:	1b 0e                	sbb    (%esi),%ecx
   b:	11 01                	adc    %eax,(%ecx)
   d:	12 01                	adc    (%ecx),%al
   f:	10 06                	adc    %al,(%esi)
  11:	00 00                	add    %al,(%eax)
  13:	02 24 00             	add    (%eax,%eax,1),%ah
  16:	0b 0b                	or     (%ebx),%ecx
  18:	3e 0b 03             	or     %ds:(%ebx),%eax
  1b:	0e                   	push   %cs
  1c:	00 00                	add    %al,(%eax)
  1e:	03 24 00             	add    (%eax,%eax,1),%esp
  21:	0b 0b                	or     (%ebx),%ecx
  23:	3e 0b 03             	or     %ds:(%ebx),%eax
  26:	08 00                	or     %al,(%eax)
  28:	00 04 24             	add    %al,(%esp)
  2b:	00 0b                	add    %cl,(%ebx)
  2d:	0b 3e                	or     (%esi),%edi
  2f:	0b 00                	or     (%eax),%eax
  31:	00 05 34 00 03 0e    	add    %al,0xe030034
  37:	3a 0b                	cmp    (%ebx),%cl
  39:	3b 0b                	cmp    (%ebx),%ecx
  3b:	49                   	dec    %ecx
  3c:	13 3f                	adc    (%edi),%edi
  3e:	0c 02                	or     $0x2,%al
  40:	0a 00                	or     (%eax),%al
  42:	00 06                	add    %al,(%esi)
  44:	26 00 49 13          	add    %cl,%es:0x13(%ecx)
  48:	00 00                	add    %al,(%eax)
  4a:	00 01                	add    %al,(%ecx)
  4c:	11 00                	adc    %eax,(%eax)
  4e:	10 06                	adc    %al,(%esi)
  50:	55                   	push   %ebp
  51:	06                   	push   %es
  52:	03 08                	add    (%eax),%ecx
  54:	1b 08                	sbb    (%eax),%ecx
  56:	25 08 13 05 00       	and    $0x51308,%eax
  5b:	00 00                	add    %al,(%eax)
  5d:	01 11                	add    %edx,(%ecx)
  5f:	01 25 0e 13 0b 03    	add    %esp,0x30b130e
  65:	0e                   	push   %cs
  66:	1b 0e                	sbb    (%esi),%ecx
  68:	11 01                	adc    %eax,(%ecx)
  6a:	12 01                	adc    (%ecx),%al
  6c:	10 06                	adc    %al,(%esi)
  6e:	00 00                	add    %al,(%eax)
  70:	02 16                	add    (%esi),%dl
  72:	00 03                	add    %al,(%ebx)
  74:	0e                   	push   %cs
  75:	3a 0b                	cmp    (%ebx),%cl
  77:	3b 0b                	cmp    (%ebx),%ecx
  79:	49                   	dec    %ecx
  7a:	13 00                	adc    (%eax),%eax
  7c:	00 03                	add    %al,(%ebx)
  7e:	24 00                	and    $0x0,%al
  80:	0b 0b                	or     (%ebx),%ecx
  82:	3e 0b 03             	or     %ds:(%ebx),%eax
  85:	0e                   	push   %cs
  86:	00 00                	add    %al,(%eax)
  88:	04 24                	add    $0x24,%al
  8a:	00 0b                	add    %cl,(%ebx)
  8c:	0b 3e                	or     (%esi),%edi
  8e:	0b 03                	or     (%ebx),%eax
  90:	08 00                	or     %al,(%eax)
  92:	00 05 24 00 0b 0b    	add    %al,0xb0b0024
  98:	3e 0b 00             	or     %ds:(%eax),%eax
  9b:	00 06                	add    %al,(%esi)
  9d:	0f 00 0b             	str    (%ebx)
  a0:	0b 00                	or     (%eax),%eax
  a2:	00 07                	add    %al,(%edi)
  a4:	0f 00 0b             	str    (%ebx)
  a7:	0b 49 13             	or     0x13(%ecx),%ecx
  aa:	00 00                	add    %al,(%eax)
  ac:	08 13                	or     %dl,(%ebx)
  ae:	01 03                	add    %eax,(%ebx)
  b0:	0e                   	push   %cs
  b1:	0b 0b                	or     (%ebx),%ecx
  b3:	3a 0b                	cmp    (%ebx),%cl
  b5:	3b 0b                	cmp    (%ebx),%ecx
  b7:	01 13                	add    %edx,(%ebx)
  b9:	00 00                	add    %al,(%eax)
  bb:	09 0d 00 03 0e 3a    	or     %ecx,0x3a0e0300
  c1:	0b 3b                	or     (%ebx),%edi
  c3:	05 49 13 38 0a       	add    $0xa381349,%eax
  c8:	00 00                	add    %al,(%eax)
  ca:	0a 16                	or     (%esi),%dl
  cc:	00 03                	add    %al,(%ebx)
  ce:	0e                   	push   %cs
  cf:	3a 0b                	cmp    (%ebx),%cl
  d1:	3b 0b                	cmp    (%ebx),%ecx
  d3:	00 00                	add    %al,(%eax)
  d5:	0b 0d 00 03 0e 3a    	or     0x3a0e0300,%ecx
  db:	0b 3b                	or     (%ebx),%edi
  dd:	0b 49 13             	or     0x13(%ecx),%ecx
  e0:	38 0a                	cmp    %cl,(%edx)
  e2:	00 00                	add    %al,(%eax)
  e4:	0c 01                	or     $0x1,%al
  e6:	01 49 13             	add    %ecx,0x13(%ecx)
  e9:	01 13                	add    %edx,(%ebx)
  eb:	00 00                	add    %al,(%eax)
  ed:	0d 21 00 49 13       	or     $0x13490021,%eax
  f2:	2f                   	das    
  f3:	0b 00                	or     (%eax),%eax
  f5:	00 0e                	add    %cl,(%esi)
  f7:	2e 01 3f             	add    %edi,%cs:(%edi)
  fa:	0c 03                	or     $0x3,%al
  fc:	0e                   	push   %cs
  fd:	3a 0b                	cmp    (%ebx),%cl
  ff:	3b 0b                	cmp    (%ebx),%ecx
 101:	27                   	daa    
 102:	0c 49                	or     $0x49,%al
 104:	13 11                	adc    (%ecx),%edx
 106:	01 12                	add    %edx,(%edx)
 108:	01 40 06             	add    %eax,0x6(%eax)
 10b:	01 13                	add    %edx,(%ebx)
 10d:	00 00                	add    %al,(%eax)
 10f:	0f 05                	syscall 
 111:	00 03                	add    %al,(%ebx)
 113:	0e                   	push   %cs
 114:	3a 0b                	cmp    (%ebx),%cl
 116:	3b 0b                	cmp    (%ebx),%ecx
 118:	49                   	dec    %ecx
 119:	13 02                	adc    (%edx),%eax
 11b:	06                   	push   %es
 11c:	00 00                	add    %al,(%eax)
 11e:	10 34 00             	adc    %dh,(%eax,%eax,1)
 121:	03 0e                	add    (%esi),%ecx
 123:	3a 0b                	cmp    (%ebx),%cl
 125:	3b 0b                	cmp    (%ebx),%ecx
 127:	49                   	dec    %ecx
 128:	13 02                	adc    (%edx),%eax
 12a:	06                   	push   %es
 12b:	00 00                	add    %al,(%eax)
 12d:	11 34 00             	adc    %esi,(%eax,%eax,1)
 130:	03 0e                	add    (%esi),%ecx
 132:	3a 0b                	cmp    (%ebx),%cl
 134:	3b 0b                	cmp    (%ebx),%ecx
 136:	49                   	dec    %ecx
 137:	13 3f                	adc    (%edi),%edi
 139:	0c 3c                	or     $0x3c,%al
 13b:	0c 00                	or     $0x0,%al
 13d:	00 12                	add    %dl,(%edx)
 13f:	34 00                	xor    $0x0,%al
 141:	03 0e                	add    (%esi),%ecx
 143:	3a 0b                	cmp    (%ebx),%cl
 145:	3b 0b                	cmp    (%ebx),%ecx
 147:	49                   	dec    %ecx
 148:	13 3f                	adc    (%edi),%edi
 14a:	0c 02                	or     $0x2,%al
 14c:	0a 00                	or     (%eax),%al
 14e:	00 00                	add    %al,(%eax)
 150:	01 11                	add    %edx,(%ecx)
 152:	00 10                	add    %dl,(%eax)
 154:	06                   	push   %es
 155:	55                   	push   %ebp
 156:	06                   	push   %es
 157:	03 08                	add    (%eax),%ecx
 159:	1b 08                	sbb    (%eax),%ecx
 15b:	25 08 13 05 00       	and    $0x51308,%eax
	...

Disassembly of section .debug_line:

00000000 <.debug_line>:
   0:	23 00                	and    (%eax),%eax
   2:	00 00                	add    %al,(%eax)
   4:	02 00                	add    (%eax),%al
   6:	1d 00 00 00 01       	sbb    $0x1000000,%eax
   b:	01 fb                	add    %edi,%ebx
   d:	0e                   	push   %cs
   e:	0d 00 01 01 01       	or     $0x1010100,%eax
  13:	01 00                	add    %eax,(%eax)
  15:	00 00                	add    %al,(%eax)
  17:	01 00                	add    %eax,(%eax)
  19:	00 01                	add    %al,(%ecx)
  1b:	00 69 6e             	add    %ch,0x6e(%ecx)
  1e:	69 74 2e 63 00 00 00 	imul   $0x0,0x63(%esi,%ebp,1),%esi
  25:	00 
  26:	00 a5 00 00 00 02    	add    %ah,0x2000000(%ebp)
  2c:	00 6e 00             	add    %ch,0x0(%esi)
  2f:	00 00                	add    %al,(%eax)
  31:	01 01                	add    %eax,(%ecx)
  33:	fb                   	sti    
  34:	0e                   	push   %cs
  35:	0d 00 01 01 01       	or     $0x1010100,%eax
  3a:	01 00                	add    %eax,(%eax)
  3c:	00 00                	add    %al,(%eax)
  3e:	01 00                	add    %eax,(%eax)
  40:	00 01                	add    %al,(%ecx)
  42:	2f                   	das    
  43:	74 6d                	je     b2 <_init-0x80486ce>
  45:	70 2f                	jo     76 <_init-0x804870a>
  47:	62 75 69             	bound  %esi,0x69(%ebp)
  4a:	6c                   	insb   (%dx),%es:(%edi)
  4b:	64                   	fs
  4c:	64                   	fs
  4d:	2f                   	das    
  4e:	67 6c                	insb   (%dx),%es:(%di)
  50:	69 62 63 2d 32 2e 37 	imul   $0x372e322d,0x63(%edx),%esp
  57:	2f                   	das    
  58:	62 75 69             	bound  %esi,0x69(%ebp)
  5b:	6c                   	insb   (%dx),%es:(%edi)
  5c:	64                   	fs
  5d:	2d 74 72 65 65       	sub    $0x65657274,%eax
  62:	2f                   	das    
  63:	61                   	popa   
  64:	6d                   	insl   (%dx),%es:(%edi)
  65:	64                   	fs
  66:	36                   	ss
  67:	34 2d                	xor    $0x2d,%al
  69:	69 33 38 36 2f 63    	imul   $0x632f3638,(%ebx),%esi
  6f:	73 75                	jae    e6 <_init-0x804869a>
  71:	00 2e                	add    %ch,(%esi)
  73:	2e                   	cs
  74:	2f                   	das    
  75:	73 79                	jae    f0 <_init-0x8048690>
  77:	73 64                	jae    dd <_init-0x80486a3>
  79:	65                   	gs
  7a:	70 73                	jo     ef <_init-0x8048691>
  7c:	2f                   	das    
  7d:	67 65 6e             	outsb  %gs:(%si),(%dx)
  80:	65                   	gs
  81:	72 69                	jb     ec <_init-0x8048694>
  83:	63 00                	arpl   %ax,(%eax)
  85:	00 63 72             	add    %ah,0x72(%ebx)
  88:	74 69                	je     f3 <_init-0x804868d>
  8a:	2e                   	cs
  8b:	53                   	push   %ebx
  8c:	00 01                	add    %al,(%ecx)
  8e:	00 00                	add    %al,(%eax)
  90:	69 6e 69 74 66 69 6e 	imul   $0x6e696674,0x69(%esi),%ebp
  97:	69 2e 63 00 02 00    	imul   $0x20063,(%esi),%ebp
  9d:	00 00                	add    %al,(%eax)
  9f:	00 05 02 80 87 04    	add    %al,0x4878002
  a5:	08 03                	or     %al,(%ebx)
  a7:	0e                   	push   %cs
  a8:	01 21                	add    %esp,(%ecx)
  aa:	2f                   	das    
  ab:	21 3d 5a 21 67 67    	and    %edi,0x6767215a
  b1:	2f                   	das    
  b2:	2f                   	das    
  b3:	02 05 00 01 01 04    	add    0x4010100,%al
  b9:	02 00                	add    (%eax),%al
  bb:	05 02 bc 99 04       	add    $0x499bc02,%eax
  c0:	08 03                	or     %al,(%ebx)
  c2:	ec                   	in     (%dx),%al
  c3:	00 01                	add    %al,(%ecx)
  c5:	21 2f                	and    %ebp,(%edi)
  c7:	21 3d 5a 21 02 06    	and    %edi,0x602215a
  cd:	00 01                	add    %al,(%ecx)
  cf:	01 d3                	add    %edx,%ebx
  d1:	00 00                	add    %al,(%eax)
  d3:	00 02                	add    %al,(%edx)
  d5:	00 a3 00 00 00 01    	add    %ah,0x1000000(%ebx)
  db:	01 fb                	add    %edi,%ebx
  dd:	0e                   	push   %cs
  de:	0d 00 01 01 01       	or     $0x1010100,%eax
  e3:	01 00                	add    %eax,(%eax)
  e5:	00 00                	add    %al,(%eax)
  e7:	01 00                	add    %eax,(%eax)
  e9:	00 01                	add    %al,(%ecx)
  eb:	2f                   	das    
  ec:	75 73                	jne    161 <_init-0x804861f>
  ee:	72 2f                	jb     11f <_init-0x8048661>
  f0:	6c                   	insb   (%dx),%es:(%edi)
  f1:	6f                   	outsl  %ds:(%esi),(%dx)
  f2:	63 61 6c             	arpl   %sp,0x6c(%ecx)
  f5:	2f                   	das    
  f6:	6c                   	insb   (%dx),%es:(%edi)
  f7:	69 62 2f 67 63 63 2f 	imul   $0x2f636367,0x2f(%edx),%esp
  fe:	78 38                	js     138 <_init-0x8048648>
 100:	36                   	ss
 101:	5f                   	pop    %edi
 102:	36                   	ss
 103:	34 2d                	xor    $0x2d,%al
 105:	75 6e                	jne    175 <_init-0x804860b>
 107:	6b 6e 6f 77          	imul   $0x77,0x6f(%esi),%ebp
 10b:	6e                   	outsb  %ds:(%esi),(%dx)
 10c:	2d 6c 69 6e 75       	sub    $0x756e696c,%eax
 111:	78 2d                	js     140 <_init-0x8048640>
 113:	67 6e                	outsb  %ds:(%si),(%dx)
 115:	75 2f                	jne    146 <_init-0x804863a>
 117:	34 2e                	xor    $0x2e,%al
 119:	34 2e                	xor    $0x2e,%al
 11b:	30 2f                	xor    %ch,(%edi)
 11d:	69 6e 63 6c 75 64 65 	imul   $0x6564756c,0x63(%esi),%ebp
 124:	00 2f                	add    %ch,(%edi)
 126:	75 73                	jne    19b <_init-0x80485e5>
 128:	72 2f                	jb     159 <_init-0x8048627>
 12a:	69 6e 63 6c 75 64 65 	imul   $0x6564756c,0x63(%esi),%ebp
 131:	2f                   	das    
 132:	62 69 74             	bound  %ebp,0x74(%ecx)
 135:	73 00                	jae    137 <_init-0x8048649>
 137:	2f                   	das    
 138:	75 73                	jne    1ad <_init-0x80485d3>
 13a:	72 2f                	jb     16b <_init-0x8048615>
 13c:	69 6e 63 6c 75 64 65 	imul   $0x6564756c,0x63(%esi),%ebp
 143:	00 00                	add    %al,(%eax)
 145:	62 6f 6d             	bound  %ebp,0x6d(%edi)
 148:	62 2e                	bound  %ebp,(%esi)
 14a:	63 00                	arpl   %ax,(%eax)
 14c:	00 00                	add    %al,(%eax)
 14e:	00 73 74             	add    %dh,0x74(%ebx)
 151:	64                   	fs
 152:	64                   	fs
 153:	65                   	gs
 154:	66                   	data16
 155:	2e                   	cs
 156:	68 00 01 00 00       	push   $0x100
 15b:	74 79                	je     1d6 <_init-0x80485aa>
 15d:	70 65                	jo     1c4 <_init-0x80485bc>
 15f:	73 2e                	jae    18f <_init-0x80485f1>
 161:	68 00 02 00 00       	push   $0x200
 166:	73 74                	jae    1dc <_init-0x80485a4>
 168:	64 69 6f 2e 68 00 03 	imul   $0x30068,%fs:0x2e(%edi),%ebp
 16f:	00 
 170:	00 6c 69 62          	add    %ch,0x62(%ecx,%ebp,2)
 174:	69 6f 2e 68 00 03 00 	imul   $0x30068,0x2e(%edi),%ebp
 17b:	00 00                	add    %al,(%eax)
 17d:	00 05 02 84 8a 04    	add    %al,0x48a8402
 183:	08 03                	or     %al,(%ebx)
 185:	23 01                	and    (%ecx),%eax
 187:	08 1a                	or     %bl,(%edx)
 189:	59                   	pop    %ecx
 18a:	dd 59 08             	fstpl  0x8(%ecx)
 18d:	c9                   	leave  
 18e:	08 75 c0             	or     %dh,-0x40(%ebp)
 191:	08 21                	or     %ah,(%ecx)
 193:	be 5a bb bd 59       	mov    $0x59bdbb5a,%esi
 198:	83 5a be 59          	sbbl   $0x59,-0x42(%edx)
 19c:	83 59 be 59          	sbbl   $0x59,-0x42(%ecx)
 1a0:	83 5b 02 0e          	sbbl   $0xe,0x2(%ebx)
 1a4:	00 01                	add    %al,(%ecx)
 1a6:	01 50 00             	add    %edx,0x0(%eax)
 1a9:	00 00                	add    %al,(%eax)
 1ab:	02 00                	add    (%eax),%al
 1ad:	26 00 00             	add    %al,%es:(%eax)
 1b0:	00 01                	add    %al,(%ecx)
 1b2:	01 fb                	add    %edi,%ebx
 1b4:	0e                   	push   %cs
 1b5:	0d 00 01 01 01       	or     $0x1010100,%eax
 1ba:	01 00                	add    %eax,(%eax)
 1bc:	00 00                	add    %al,(%eax)
 1be:	01 00                	add    %eax,(%eax)
 1c0:	00 01                	add    %al,(%ecx)
 1c2:	2f                   	das    
 1c3:	74 6d                	je     232 <_init-0x804854e>
 1c5:	70 00                	jo     1c7 <_init-0x80485b9>
 1c7:	00 63 63             	add    %ah,0x63(%ebx)
 1ca:	66 4a                	dec    %dx
 1cc:	67 31 57 5a          	xor    %edx,0x5a(%bx)
 1d0:	2e 73 00             	jae,pn 1d3 <_init-0x80485ad>
 1d3:	01 00                	add    %eax,(%eax)
 1d5:	00 00                	add    %al,(%eax)
 1d7:	00 05 02 ac 87 04    	add    %al,0x487ac02
 1dd:	08 03                	or     %al,(%ebx)
 1df:	1f                   	pop    %ds
 1e0:	01 21                	add    %esp,(%ecx)
 1e2:	21 21                	and    %esp,(%ecx)
 1e4:	02 01                	add    (%ecx),%al
 1e6:	00 01                	add    %al,(%ecx)
 1e8:	01 00                	add    %eax,(%eax)
 1ea:	05 02 d4 99 04       	add    $0x499d402,%eax
 1ef:	08 03                	or     %al,(%ebx)
 1f1:	2d 01 21 21 21       	sub    $0x21212101,%eax
 1f6:	02 01                	add    (%ecx),%al
 1f8:	00 01                	add    %al,(%ecx)
 1fa:	01                   	.byte 0x1

Disassembly of section .debug_str:

00000000 <.debug_str>:
   0:	2f                   	das    
   1:	74 6d                	je     70 <_init-0x8048710>
   3:	70 2f                	jo     34 <_init-0x804874c>
   5:	62 75 69             	bound  %esi,0x69(%ebp)
   8:	6c                   	insb   (%dx),%es:(%edi)
   9:	64                   	fs
   a:	64                   	fs
   b:	2f                   	das    
   c:	67 6c                	insb   (%dx),%es:(%di)
   e:	69 62 63 2d 32 2e 37 	imul   $0x372e322d,0x63(%edx),%esp
  15:	2f                   	das    
  16:	62 75 69             	bound  %esi,0x69(%ebp)
  19:	6c                   	insb   (%dx),%es:(%edi)
  1a:	64                   	fs
  1b:	2d 74 72 65 65       	sub    $0x65657274,%eax
  20:	2f                   	das    
  21:	67 6c                	insb   (%dx),%es:(%di)
  23:	69 62 63 2d 32 2e 37 	imul   $0x372e322d,0x63(%edx),%esp
  2a:	2f                   	das    
  2b:	63 73 75             	arpl   %si,0x75(%ebx)
  2e:	00 47 4e             	add    %al,0x4e(%edi)
  31:	55                   	push   %ebp
  32:	20 43 20             	and    %al,0x20(%ebx)
  35:	34 2e                	xor    $0x2e,%al
  37:	33 2e                	xor    (%esi),%ebp
  39:	32 00                	xor    (%eax),%al
  3b:	73 68                	jae    a5 <_init-0x80486db>
  3d:	6f                   	outsl  %ds:(%esi),(%dx)
  3e:	72 74                	jb     b4 <_init-0x80486cc>
  40:	20 75 6e             	and    %dh,0x6e(%ebp)
  43:	73 69                	jae    ae <_init-0x80486d2>
  45:	67 6e                	outsb  %ds:(%si),(%dx)
  47:	65 64 20 69 6e       	gs and %ch,%fs:%gs:0x6e(%ecx)
  4c:	74 00                	je     4e <_init-0x8048732>
  4e:	73 68                	jae    b8 <_init-0x80486c8>
  50:	6f                   	outsl  %ds:(%esi),(%dx)
  51:	72 74                	jb     c7 <_init-0x80486b9>
  53:	20 69 6e             	and    %ch,0x6e(%ecx)
  56:	74 00                	je     58 <_init-0x8048728>
  58:	5f                   	pop    %edi
  59:	49                   	dec    %ecx
  5a:	4f                   	dec    %edi
  5b:	5f                   	pop    %edi
  5c:	73 74                	jae    d2 <_init-0x80486ae>
  5e:	64 69 6e 5f 75 73 65 	imul   $0x64657375,%fs:0x5f(%esi),%ebp
  65:	64 
  66:	00 6c 6f 6e          	add    %ch,0x6e(%edi,%ebp,2)
  6a:	67 20 6c 6f          	and    %ch,0x6f(%si)
  6e:	6e                   	outsb  %ds:(%esi),(%dx)
  6f:	67 20 75 6e          	and    %dh,0x6e(%di)
  73:	73 69                	jae    de <_init-0x80486a2>
  75:	67 6e                	outsb  %ds:(%si),(%dx)
  77:	65 64 20 69 6e       	gs and %ch,%fs:%gs:0x6e(%ecx)
  7c:	74 00                	je     7e <_init-0x8048702>
  7e:	75 6e                	jne    ee <_init-0x8048692>
  80:	73 69                	jae    eb <_init-0x8048695>
  82:	67 6e                	outsb  %ds:(%si),(%dx)
  84:	65 64 20 63 68       	gs and %ah,%fs:%gs:0x68(%ebx)
  89:	61                   	popa   
  8a:	72 00                	jb     8c <_init-0x80486f4>
  8c:	69 6e 69 74 2e 63 00 	imul   $0x632e74,0x69(%esi),%ebp
  93:	6c                   	insb   (%dx),%es:(%edi)
  94:	6f                   	outsl  %ds:(%esi),(%dx)
  95:	6e                   	outsb  %ds:(%esi),(%dx)
  96:	67 20 6c 6f          	and    %ch,0x6f(%si)
  9a:	6e                   	outsb  %ds:(%esi),(%dx)
  9b:	67 20 69 6e          	and    %ch,0x6e(%bx,%di)
  9f:	74 00                	je     a1 <_init-0x80486df>
  a1:	5f                   	pop    %edi
  a2:	49                   	dec    %ecx
  a3:	4f                   	dec    %edi
  a4:	5f                   	pop    %edi
  a5:	62 75 66             	bound  %esi,0x66(%ebp)
  a8:	5f                   	pop    %edi
  a9:	65 6e                	outsb  %gs:(%esi),(%dx)
  ab:	64 00 5f 5f          	add    %bl,%fs:0x5f(%edi)
  af:	71 75                	jno    126 <_init-0x804865a>
  b1:	61                   	popa   
  b2:	64                   	fs
  b3:	5f                   	pop    %edi
  b4:	74 00                	je     b6 <_init-0x80486ca>
  b6:	5f                   	pop    %edi
  b7:	6f                   	outsl  %ds:(%esi),(%dx)
  b8:	6c                   	insb   (%dx),%es:(%edi)
  b9:	64                   	fs
  ba:	5f                   	pop    %edi
  bb:	6f                   	outsl  %ds:(%esi),(%dx)
  bc:	66                   	data16
  bd:	66                   	data16
  be:	73 65                	jae    125 <_init-0x804865b>
  c0:	74 00                	je     c2 <_init-0x80486be>
  c2:	5f                   	pop    %edi
  c3:	49                   	dec    %ecx
  c4:	4f                   	dec    %edi
  c5:	5f                   	pop    %edi
  c6:	73 61                	jae    129 <_init-0x8048657>
  c8:	76 65                	jbe    12f <_init-0x8048651>
  ca:	5f                   	pop    %edi
  cb:	65 6e                	outsb  %gs:(%esi),(%dx)
  cd:	64 00 73 69          	add    %dh,%fs:0x69(%ebx)
  d1:	7a 65                	jp     138 <_init-0x8048648>
  d3:	5f                   	pop    %edi
  d4:	74 00                	je     d6 <_init-0x80486aa>
  d6:	69 6e 70 75 74 00 5f 	imul   $0x5f007475,0x70(%esi),%ebp
  dd:	49                   	dec    %ecx
  de:	4f                   	dec    %edi
  df:	5f                   	pop    %edi
  e0:	77 72                	ja     154 <_init-0x804862c>
  e2:	69 74 65 5f 70 74 72 	imul   $0x727470,0x5f(%ebp,%eiz,2),%esi
  e9:	00 
  ea:	62 6f 6d             	bound  %ebp,0x6d(%edi)
  ed:	62 2e                	bound  %ebp,(%esi)
  ef:	63 00                	arpl   %ax,(%eax)
  f1:	5f                   	pop    %edi
  f2:	49                   	dec    %ecx
  f3:	4f                   	dec    %edi
  f4:	5f                   	pop    %edi
  f5:	62 75 66             	bound  %esi,0x66(%ebp)
  f8:	5f                   	pop    %edi
  f9:	62 61 73             	bound  %esp,0x73(%ecx)
  fc:	65 00 69 6e          	add    %ch,%gs:0x6e(%ecx)
 100:	66 69 6c 65 00 5f 6d 	imul   $0x6d5f,0x0(%ebp,%eiz,2),%bp
 107:	61                   	popa   
 108:	72 6b                	jb     175 <_init-0x804860b>
 10a:	65                   	gs
 10b:	72 73                	jb     180 <_init-0x8048600>
 10d:	00 5f 49             	add    %bl,0x49(%edi)
 110:	4f                   	dec    %edi
 111:	5f                   	pop    %edi
 112:	72 65                	jb     179 <_init-0x8048607>
 114:	61                   	popa   
 115:	64                   	fs
 116:	5f                   	pop    %edi
 117:	65 6e                	outsb  %gs:(%esi),(%dx)
 119:	64 00 5f 6c          	add    %bl,%fs:0x6c(%edi)
 11d:	6f                   	outsl  %ds:(%esi),(%dx)
 11e:	63 6b 00             	arpl   %bp,0x0(%ebx)
 121:	5f                   	pop    %edi
 122:	63 75 72             	arpl   %si,0x72(%ebp)
 125:	5f                   	pop    %edi
 126:	63 6f 6c             	arpl   %bp,0x6c(%edi)
 129:	75 6d                	jne    198 <_init-0x80485e8>
 12b:	6e                   	outsb  %ds:(%esi),(%dx)
 12c:	00 5f 70             	add    %bl,0x70(%edi)
 12f:	6f                   	outsl  %ds:(%esi),(%dx)
 130:	73 00                	jae    132 <_init-0x804864e>
 132:	61                   	popa   
 133:	72 67                	jb     19c <_init-0x80485e4>
 135:	76 00                	jbe    137 <_init-0x8048649>
 137:	5f                   	pop    %edi
 138:	73 62                	jae    19c <_init-0x80485e4>
 13a:	75 66                	jne    1a2 <_init-0x80485de>
 13c:	00 5f 49             	add    %bl,0x49(%edi)
 13f:	4f                   	dec    %edi
 140:	5f                   	pop    %edi
 141:	46                   	inc    %esi
 142:	49                   	dec    %ecx
 143:	4c                   	dec    %esp
 144:	45                   	inc    %ebp
 145:	00 61 72             	add    %ah,0x72(%ecx)
 148:	67 63 00             	arpl   %ax,(%bx,%si)
 14b:	5f                   	pop    %edi
 14c:	49                   	dec    %ecx
 14d:	4f                   	dec    %edi
 14e:	5f                   	pop    %edi
 14f:	73 61                	jae    1b2 <_init-0x80485ce>
 151:	76 65                	jbe    1b8 <_init-0x80485c8>
 153:	5f                   	pop    %edi
 154:	62 61 73             	bound  %esp,0x73(%ecx)
 157:	65 00 5f 49          	add    %bl,%gs:0x49(%edi)
 15b:	4f                   	dec    %edi
 15c:	5f                   	pop    %edi
 15d:	6d                   	insl   (%dx),%es:(%edi)
 15e:	61                   	popa   
 15f:	72 6b                	jb     1cc <_init-0x80485b4>
 161:	65                   	gs
 162:	72 00                	jb     164 <_init-0x804861c>
 164:	5f                   	pop    %edi
 165:	73 68                	jae    1cf <_init-0x80485b1>
 167:	6f                   	outsl  %ds:(%esi),(%dx)
 168:	72 74                	jb     1de <_init-0x80485a2>
 16a:	62 75 66             	bound  %esi,0x66(%ebp)
 16d:	00 5f 49             	add    %bl,0x49(%edi)
 170:	4f                   	dec    %edi
 171:	5f                   	pop    %edi
 172:	77 72                	ja     1e6 <_init-0x804859a>
 174:	69 74 65 5f 62 61 73 	imul   $0x65736162,0x5f(%ebp,%eiz,2),%esi
 17b:	65 
 17c:	00 5f 75             	add    %bl,0x75(%edi)
 17f:	6e                   	outsb  %ds:(%esi),(%dx)
 180:	75 73                	jne    1f5 <_init-0x804858b>
 182:	65 64 32 00          	gs xor %fs:%gs:(%eax),%al
 186:	5f                   	pop    %edi
 187:	49                   	dec    %ecx
 188:	4f                   	dec    %edi
 189:	5f                   	pop    %edi
 18a:	72 65                	jb     1f1 <_init-0x804858f>
 18c:	61                   	popa   
 18d:	64                   	fs
 18e:	5f                   	pop    %edi
 18f:	70 74                	jo     205 <_init-0x804857b>
 191:	72 00                	jb     193 <_init-0x80485ed>
 193:	2f                   	das    
 194:	68 6f 6d 65 2f       	push   $0x2f656d6f
 199:	73 6a                	jae    205 <_init-0x804857b>
 19b:	74 75                	je     212 <_init-0x804856e>
 19d:	2d 69 63 73 2d       	sub    $0x2d736369,%eax
 1a2:	73 76                	jae    21a <_init-0x8048566>
 1a4:	6e                   	outsb  %ds:(%esi),(%dx)
 1a5:	2f                   	das    
 1a6:	61                   	popa   
 1a7:	72 63                	jb     20c <_init-0x8048574>
 1a9:	68 76 69 65 2f       	push   $0x2f656976
 1ae:	53                   	push   %ebx
 1af:	45                   	inc    %ebp
 1b0:	31 33                	xor    %esi,(%ebx)
 1b2:	2d 6c 61 62 32       	sub    $0x3262616c,%eax
 1b7:	2f                   	das    
 1b8:	6f                   	outsl  %ds:(%esi),(%dx)
 1b9:	6e                   	outsb  %ds:(%esi),(%dx)
 1ba:	6c                   	insb   (%dx),%es:(%edi)
 1bb:	69 6e 65 2f 73 72 63 	imul   $0x6372732f,0x65(%esi),%ebp
 1c2:	00 6d 61             	add    %ch,0x61(%ebp)
 1c5:	69 6e 00 5f 6e 65 78 	imul   $0x78656e5f,0x0(%esi),%ebp
 1cc:	74 00                	je     1ce <_init-0x80485b2>
 1ce:	5f                   	pop    %edi
 1cf:	5f                   	pop    %edi
 1d0:	70 61                	jo     233 <_init-0x804854d>
 1d2:	64 31 00             	xor    %eax,%fs:(%eax)
 1d5:	5f                   	pop    %edi
 1d6:	5f                   	pop    %edi
 1d7:	70 61                	jo     23a <_init-0x8048546>
 1d9:	64 32 00             	xor    %fs:(%eax),%al
 1dc:	5f                   	pop    %edi
 1dd:	5f                   	pop    %edi
 1de:	70 61                	jo     241 <_init-0x804853f>
 1e0:	64 33 00             	xor    %fs:(%eax),%eax
 1e3:	5f                   	pop    %edi
 1e4:	5f                   	pop    %edi
 1e5:	70 61                	jo     248 <_init-0x8048538>
 1e7:	64                   	fs
 1e8:	34 00                	xor    $0x0,%al
 1ea:	5f                   	pop    %edi
 1eb:	5f                   	pop    %edi
 1ec:	70 61                	jo     24f <_init-0x8048531>
 1ee:	64                   	fs
 1ef:	35 00 5f 49 4f       	xor    $0x4f495f00,%eax
 1f4:	5f                   	pop    %edi
 1f5:	77 72                	ja     269 <_init-0x8048517>
 1f7:	69 74 65 5f 65 6e 64 	imul   $0x646e65,0x5f(%ebp,%eiz,2),%esi
 1fe:	00 
 1ff:	5f                   	pop    %edi
 200:	5f                   	pop    %edi
 201:	6f                   	outsl  %ds:(%esi),(%dx)
 202:	66                   	data16
 203:	66                   	data16
 204:	36                   	ss
 205:	34 5f                	xor    $0x5f,%al
 207:	74 00                	je     209 <_init-0x8048577>
 209:	5f                   	pop    %edi
 20a:	5f                   	pop    %edi
 20b:	6f                   	outsl  %ds:(%esi),(%dx)
 20c:	66 66 5f             	data32 pop %di
 20f:	74 00                	je     211 <_init-0x804856f>
 211:	5f                   	pop    %edi
 212:	63 68 61             	arpl   %bp,0x61(%eax)
 215:	69 6e 00 5f 49 4f 5f 	imul   $0x5f4f495f,0x0(%esi),%ebp
 21c:	62 61 63             	bound  %esp,0x63(%ecx)
 21f:	6b 75 70 5f          	imul   $0x5f,0x70(%ebp),%esi
 223:	62 61 73             	bound  %esp,0x73(%ecx)
 226:	65 00 73 74          	add    %dh,%gs:0x74(%ebx)
 22a:	64 69 6e 00 5f 66 6c 	imul   $0x616c665f,%fs:0x0(%esi),%ebp
 231:	61 
 232:	67 73 32             	addr16 jae 267 <_init-0x8048519>
 235:	00 5f 6d             	add    %bl,0x6d(%edi)
 238:	6f                   	outsl  %ds:(%esi),(%dx)
 239:	64 65 00 5f 49       	fs add %bl,%fs:%gs:0x49(%edi)
 23e:	4f                   	dec    %edi
 23f:	5f                   	pop    %edi
 240:	72 65                	jb     2a7 <_init-0x80484d9>
 242:	61                   	popa   
 243:	64                   	fs
 244:	5f                   	pop    %edi
 245:	62 61 73             	bound  %esp,0x73(%ecx)
 248:	65 00 5f 76          	add    %bl,%gs:0x76(%edi)
 24c:	74 61                	je     2af <_init-0x80484d1>
 24e:	62 6c 65 5f          	bound  %ebp,0x5f(%ebp,%eiz,2)
 252:	6f                   	outsl  %ds:(%esi),(%dx)
 253:	66                   	data16
 254:	66                   	data16
 255:	73 65                	jae    2bc <_init-0x80484c4>
 257:	74 00                	je     259 <_init-0x8048527>
 259:	47                   	inc    %edi
 25a:	4e                   	dec    %esi
 25b:	55                   	push   %ebp
 25c:	20 43 20             	and    %al,0x20(%ebx)
 25f:	34 2e                	xor    $0x2e,%al
 261:	34 2e                	xor    $0x2e,%al
 263:	30 00                	xor    %al,(%eax)
 265:	5f                   	pop    %edi
 266:	66 69 6c 65 6e 6f 00 	imul   $0x6f,0x6e(%ebp,%eiz,2),%bp
 26d:	5f                   	pop    %edi
 26e:	66                   	data16
 26f:	6c                   	insb   (%dx),%es:(%edi)
 270:	61                   	popa   
 271:	67 73 00             	addr16 jae 274 <_init-0x804850c>
 274:	73 74                	jae    2ea <_init-0x8048496>
 276:	64 6f                	outsl  %fs:(%esi),(%dx)
 278:	75 74                	jne    2ee <_init-0x8048492>
 27a:	00 5f 49             	add    %bl,0x49(%edi)
 27d:	4f                   	dec    %edi
 27e:	5f                   	pop    %edi
 27f:	6c                   	insb   (%dx),%es:(%edi)
 280:	6f                   	outsl  %ds:(%esi),(%dx)
 281:	63 6b 5f             	arpl   %bp,0x5f(%ebx)
 284:	74 00                	je     286 <_init-0x80484fa>

Disassembly of section .debug_loc:

00000000 <.debug_loc>:
   0:	00 00                	add    %al,(%eax)
   2:	00 00                	add    %al,(%eax)
   4:	02 01                	add    (%ecx),%al
   6:	00 00                	add    %al,(%eax)
   8:	02 00                	add    (%eax),%al
   a:	75 08                	jne    14 <_init-0x804876c>
	...
  18:	16                   	push   %ss
  19:	00 00                	add    %al,(%eax)
  1b:	00 02                	add    %al,(%edx)
  1d:	00 91 00 16 00 00    	add    %dl,0x1600(%ecx)
  23:	00 36                	add    %dh,(%esi)
  25:	00 00                	add    %al,(%eax)
  27:	00 01                	add    %al,(%ecx)
  29:	00 50 36             	add    %dl,0x36(%eax)
  2c:	00 00                	add    %al,(%eax)
  2e:	00 6b 00             	add    %ch,0x0(%ebx)
  31:	00 00                	add    %al,(%eax)
  33:	02 00                	add    (%eax),%al
  35:	75 08                	jne    3f <_init-0x8048741>
  37:	6b 00 00             	imul   $0x0,(%eax),%eax
  3a:	00 6d 00             	add    %ch,0x0(%ebp)
  3d:	00 00                	add    %al,(%eax)
  3f:	01 00                	add    %eax,(%eax)
  41:	50                   	push   %eax
  42:	6d                   	insl   (%dx),%es:(%edi)
  43:	00 00                	add    %al,(%eax)
  45:	00 02                	add    %al,(%edx)
  47:	01 00                	add    %eax,(%eax)
  49:	00 02                	add    %al,(%edx)
  4b:	00 75 08             	add    %dh,0x8(%ebp)
	...
  5a:	16                   	push   %ss
  5b:	00 00                	add    %al,(%eax)
  5d:	00 02                	add    %al,(%edx)
  5f:	00 91 04 16 00 00    	add    %dl,0x1604(%ecx)
  65:	00 fe                	add    %bh,%dh
  67:	00 00                	add    %al,(%eax)
  69:	00 01                	add    %al,(%ecx)
  6b:	00 56 fe             	add    %dl,-0x2(%esi)
  6e:	00 00                	add    %al,(%eax)
  70:	00 02                	add    %al,(%edx)
  72:	01 00                	add    %eax,(%eax)
  74:	00 02                	add    %al,(%edx)
  76:	00 75 0c             	add    %dh,0xc(%ebp)
	...
  81:	ae                   	scas   %es:(%edi),%al
  82:	00 00                	add    %al,(%eax)
  84:	00 b3 00 00 00 01    	add    %dh,0x1000000(%ebx)
  8a:	00 50 cc             	add    %dl,-0x34(%eax)
  8d:	00 00                	add    %al,(%eax)
  8f:	00 d1                	add    %dl,%cl
  91:	00 00                	add    %al,(%eax)
  93:	00 01                	add    %al,(%ecx)
  95:	00 50 ea             	add    %dl,-0x16(%eax)
  98:	00 00                	add    %al,(%eax)
  9a:	00 ef                	add    %ch,%bh
  9c:	00 00                	add    %al,(%eax)
  9e:	00 01                	add    %al,(%ecx)
  a0:	00 50 00             	add    %dl,0x0(%eax)
  a3:	00 00                	add    %al,(%eax)
  a5:	00 00                	add    %al,(%eax)
  a7:	00 00                	add    %al,(%eax)
	...

Disassembly of section .debug_ranges:

00000000 <.debug_ranges>:
   0:	ff                   	(bad)  
   1:	ff                   	(bad)  
   2:	ff                   	(bad)  
   3:	ff 00                	incl   (%eax)
   5:	00 00                	add    %al,(%eax)
   7:	00 80 87 04 08 a2    	add    %al,-0x5df7fb79(%eax)
   d:	87 04 08             	xchg   %eax,(%eax,%ecx,1)
  10:	bc 99 04 08 cf       	mov    $0xcf080499,%esp
  15:	99                   	cltd   
  16:	04 08                	add    $0x8,%al
	...
  20:	ff                   	(bad)  
  21:	ff                   	(bad)  
  22:	ff                   	(bad)  
  23:	ff 00                	incl   (%eax)
  25:	00 00                	add    %al,(%eax)
  27:	00 ac 87 04 08 b0 87 	add    %ch,-0x784ff7fc(%edi,%eax,4)
  2e:	04 08                	add    $0x8,%al
  30:	d4 99                	aam    $0x99
  32:	04 08                	add    $0x8,%al
  34:	d8 99 04 08 00 00    	fcomps 0x804(%ecx)
  3a:	00 00                	add    %al,(%eax)
  3c:	00 00                	add    %al,(%eax)
	...
