
bomb:     file format elf32-i386


Disassembly of section .init:

08048780 <_init>:
 8048780:	55                   	push   %ebp
 8048781:	89 e5                	mov    %esp,%ebp
 8048783:	53                   	push   %ebx
 8048784:	83 ec 04             	sub    $0x4,%esp
 8048787:	e8 00 00 00 00       	call   804878c <_init+0xc>
 804878c:	5b                   	pop    %ebx
 804878d:	81 c3 54 19 00 00    	add    $0x1954,%ebx
 8048793:	8b 93 fc ff ff ff    	mov    -0x4(%ebx),%edx
 8048799:	85 d2                	test   %edx,%edx
 804879b:	74 05                	je     80487a2 <_init+0x22>
 804879d:	e8 5e 00 00 00       	call   8048800 <__gmon_start__@plt>
 80487a2:	e8 b9 02 00 00       	call   8048a60 <frame_dummy>
 80487a7:	e8 e4 11 00 00       	call   8049990 <__do_global_ctors_aux>
 80487ac:	58                   	pop    %eax
 80487ad:	5b                   	pop    %ebx
 80487ae:	c9                   	leave  
 80487af:	c3                   	ret    

Disassembly of section .plt:

080487b0 <__errno_location@plt-0x10>:
 80487b0:	ff 35 e4 a0 04 08    	pushl  0x804a0e4
 80487b6:	ff 25 e8 a0 04 08    	jmp    *0x804a0e8
 80487bc:	00 00                	add    %al,(%eax)
	...

080487c0 <__errno_location@plt>:
 80487c0:	ff 25 ec a0 04 08    	jmp    *0x804a0ec
 80487c6:	68 00 00 00 00       	push   $0x0
 80487cb:	e9 e0 ff ff ff       	jmp    80487b0 <_init+0x30>

080487d0 <sprintf@plt>:
 80487d0:	ff 25 f0 a0 04 08    	jmp    *0x804a0f0
 80487d6:	68 08 00 00 00       	push   $0x8
 80487db:	e9 d0 ff ff ff       	jmp    80487b0 <_init+0x30>

080487e0 <connect@plt>:
 80487e0:	ff 25 f4 a0 04 08    	jmp    *0x804a0f4
 80487e6:	68 10 00 00 00       	push   $0x10
 80487eb:	e9 c0 ff ff ff       	jmp    80487b0 <_init+0x30>

080487f0 <signal@plt>:
 80487f0:	ff 25 f8 a0 04 08    	jmp    *0x804a0f8
 80487f6:	68 18 00 00 00       	push   $0x18
 80487fb:	e9 b0 ff ff ff       	jmp    80487b0 <_init+0x30>

08048800 <__gmon_start__@plt>:
 8048800:	ff 25 fc a0 04 08    	jmp    *0x804a0fc
 8048806:	68 20 00 00 00       	push   $0x20
 804880b:	e9 a0 ff ff ff       	jmp    80487b0 <_init+0x30>

08048810 <rewind@plt>:
 8048810:	ff 25 00 a1 04 08    	jmp    *0x804a100
 8048816:	68 28 00 00 00       	push   $0x28
 804881b:	e9 90 ff ff ff       	jmp    80487b0 <_init+0x30>

08048820 <getenv@plt>:
 8048820:	ff 25 04 a1 04 08    	jmp    *0x804a104
 8048826:	68 30 00 00 00       	push   $0x30
 804882b:	e9 80 ff ff ff       	jmp    80487b0 <_init+0x30>

08048830 <system@plt>:
 8048830:	ff 25 08 a1 04 08    	jmp    *0x804a108
 8048836:	68 38 00 00 00       	push   $0x38
 804883b:	e9 70 ff ff ff       	jmp    80487b0 <_init+0x30>

08048840 <write@plt>:
 8048840:	ff 25 0c a1 04 08    	jmp    *0x804a10c
 8048846:	68 40 00 00 00       	push   $0x40
 804884b:	e9 60 ff ff ff       	jmp    80487b0 <_init+0x30>

08048850 <fgets@plt>:
 8048850:	ff 25 10 a1 04 08    	jmp    *0x804a110
 8048856:	68 48 00 00 00       	push   $0x48
 804885b:	e9 50 ff ff ff       	jmp    80487b0 <_init+0x30>

08048860 <__libc_start_main@plt>:
 8048860:	ff 25 14 a1 04 08    	jmp    *0x804a114
 8048866:	68 50 00 00 00       	push   $0x50
 804886b:	e9 40 ff ff ff       	jmp    80487b0 <_init+0x30>

08048870 <tmpfile@plt>:
 8048870:	ff 25 18 a1 04 08    	jmp    *0x804a118
 8048876:	68 58 00 00 00       	push   $0x58
 804887b:	e9 30 ff ff ff       	jmp    80487b0 <_init+0x30>

08048880 <inet_pton@plt>:
 8048880:	ff 25 1c a1 04 08    	jmp    *0x804a11c
 8048886:	68 60 00 00 00       	push   $0x60
 804888b:	e9 20 ff ff ff       	jmp    80487b0 <_init+0x30>

08048890 <fflush@plt>:
 8048890:	ff 25 20 a1 04 08    	jmp    *0x804a120
 8048896:	68 68 00 00 00       	push   $0x68
 804889b:	e9 10 ff ff ff       	jmp    80487b0 <_init+0x30>

080488a0 <socket@plt>:
 80488a0:	ff 25 24 a1 04 08    	jmp    *0x804a124
 80488a6:	68 70 00 00 00       	push   $0x70
 80488ab:	e9 00 ff ff ff       	jmp    80487b0 <_init+0x30>

080488b0 <__ctype_b_loc@plt>:
 80488b0:	ff 25 28 a1 04 08    	jmp    *0x804a128
 80488b6:	68 78 00 00 00       	push   $0x78
 80488bb:	e9 f0 fe ff ff       	jmp    80487b0 <_init+0x30>

080488c0 <fclose@plt>:
 80488c0:	ff 25 2c a1 04 08    	jmp    *0x804a12c
 80488c6:	68 80 00 00 00       	push   $0x80
 80488cb:	e9 e0 fe ff ff       	jmp    80487b0 <_init+0x30>

080488d0 <bcopy@plt>:
 80488d0:	ff 25 30 a1 04 08    	jmp    *0x804a130
 80488d6:	68 88 00 00 00       	push   $0x88
 80488db:	e9 d0 fe ff ff       	jmp    80487b0 <_init+0x30>

080488e0 <dup@plt>:
 80488e0:	ff 25 34 a1 04 08    	jmp    *0x804a134
 80488e6:	68 90 00 00 00       	push   $0x90
 80488eb:	e9 c0 fe ff ff       	jmp    80487b0 <_init+0x30>

080488f0 <fopen@plt>:
 80488f0:	ff 25 38 a1 04 08    	jmp    *0x804a138
 80488f6:	68 98 00 00 00       	push   $0x98
 80488fb:	e9 b0 fe ff ff       	jmp    80487b0 <_init+0x30>

08048900 <strcpy@plt>:
 8048900:	ff 25 3c a1 04 08    	jmp    *0x804a13c
 8048906:	68 a0 00 00 00       	push   $0xa0
 804890b:	e9 a0 fe ff ff       	jmp    80487b0 <_init+0x30>

08048910 <printf@plt>:
 8048910:	ff 25 40 a1 04 08    	jmp    *0x804a140
 8048916:	68 a8 00 00 00       	push   $0xa8
 804891b:	e9 90 fe ff ff       	jmp    80487b0 <_init+0x30>

08048920 <close@plt>:
 8048920:	ff 25 44 a1 04 08    	jmp    *0x804a144
 8048926:	68 b0 00 00 00       	push   $0xb0
 804892b:	e9 80 fe ff ff       	jmp    80487b0 <_init+0x30>

08048930 <fwrite@plt>:
 8048930:	ff 25 48 a1 04 08    	jmp    *0x804a148
 8048936:	68 b8 00 00 00       	push   $0xb8
 804893b:	e9 70 fe ff ff       	jmp    80487b0 <_init+0x30>

08048940 <fprintf@plt>:
 8048940:	ff 25 4c a1 04 08    	jmp    *0x804a14c
 8048946:	68 c0 00 00 00       	push   $0xc0
 804894b:	e9 60 fe ff ff       	jmp    80487b0 <_init+0x30>

08048950 <cuserid@plt>:
 8048950:	ff 25 50 a1 04 08    	jmp    *0x804a150
 8048956:	68 c8 00 00 00       	push   $0xc8
 804895b:	e9 50 fe ff ff       	jmp    80487b0 <_init+0x30>

08048960 <fputc@plt>:
 8048960:	ff 25 54 a1 04 08    	jmp    *0x804a154
 8048966:	68 d0 00 00 00       	push   $0xd0
 804896b:	e9 40 fe ff ff       	jmp    80487b0 <_init+0x30>

08048970 <sleep@plt>:
 8048970:	ff 25 58 a1 04 08    	jmp    *0x804a158
 8048976:	68 d8 00 00 00       	push   $0xd8
 804897b:	e9 30 fe ff ff       	jmp    80487b0 <_init+0x30>

08048980 <strcat@plt>:
 8048980:	ff 25 5c a1 04 08    	jmp    *0x804a15c
 8048986:	68 e0 00 00 00       	push   $0xe0
 804898b:	e9 20 fe ff ff       	jmp    80487b0 <_init+0x30>

08048990 <puts@plt>:
 8048990:	ff 25 60 a1 04 08    	jmp    *0x804a160
 8048996:	68 e8 00 00 00       	push   $0xe8
 804899b:	e9 10 fe ff ff       	jmp    80487b0 <_init+0x30>

080489a0 <sscanf@plt>:
 80489a0:	ff 25 64 a1 04 08    	jmp    *0x804a164
 80489a6:	68 f0 00 00 00       	push   $0xf0
 80489ab:	e9 00 fe ff ff       	jmp    80487b0 <_init+0x30>

080489b0 <gethostbyname@plt>:
 80489b0:	ff 25 68 a1 04 08    	jmp    *0x804a168
 80489b6:	68 f8 00 00 00       	push   $0xf8
 80489bb:	e9 f0 fd ff ff       	jmp    80487b0 <_init+0x30>

080489c0 <exit@plt>:
 80489c0:	ff 25 6c a1 04 08    	jmp    *0x804a16c
 80489c6:	68 00 01 00 00       	push   $0x100
 80489cb:	e9 e0 fd ff ff       	jmp    80487b0 <_init+0x30>

Disassembly of section .text:

080489d0 <_start>:
 80489d0:	31 ed                	xor    %ebp,%ebp
 80489d2:	5e                   	pop    %esi
 80489d3:	89 e1                	mov    %esp,%ecx
 80489d5:	83 e4 f0             	and    $0xfffffff0,%esp
 80489d8:	50                   	push   %eax
 80489d9:	54                   	push   %esp
 80489da:	52                   	push   %edx
 80489db:	68 28 99 04 08       	push   $0x8049928
 80489e0:	68 2d 99 04 08       	push   $0x804992d
 80489e5:	51                   	push   %ecx
 80489e6:	56                   	push   %esi
 80489e7:	68 84 8a 04 08       	push   $0x8048a84
 80489ec:	e8 6f fe ff ff       	call   8048860 <__libc_start_main@plt>
 80489f1:	f4                   	hlt    
 80489f2:	90                   	nop
 80489f3:	90                   	nop
 80489f4:	90                   	nop
 80489f5:	90                   	nop
 80489f6:	90                   	nop
 80489f7:	90                   	nop
 80489f8:	90                   	nop
 80489f9:	90                   	nop
 80489fa:	90                   	nop
 80489fb:	90                   	nop
 80489fc:	90                   	nop
 80489fd:	90                   	nop
 80489fe:	90                   	nop
 80489ff:	90                   	nop

08048a00 <__do_global_dtors_aux>:
 8048a00:	55                   	push   %ebp
 8048a01:	89 e5                	mov    %esp,%ebp
 8048a03:	53                   	push   %ebx
 8048a04:	83 ec 04             	sub    $0x4,%esp
 8048a07:	80 3d e4 a5 04 08 00 	cmpb   $0x0,0x804a5e4
 8048a0e:	75 3f                	jne    8048a4f <__do_global_dtors_aux+0x4f>
 8048a10:	a1 e8 a5 04 08       	mov    0x804a5e8,%eax
 8048a15:	bb 0c a0 04 08       	mov    $0x804a00c,%ebx
 8048a1a:	81 eb 08 a0 04 08    	sub    $0x804a008,%ebx
 8048a20:	c1 fb 02             	sar    $0x2,%ebx
 8048a23:	83 eb 01             	sub    $0x1,%ebx
 8048a26:	39 d8                	cmp    %ebx,%eax
 8048a28:	73 1e                	jae    8048a48 <__do_global_dtors_aux+0x48>
 8048a2a:	8d b6 00 00 00 00    	lea    0x0(%esi),%esi
 8048a30:	83 c0 01             	add    $0x1,%eax
 8048a33:	a3 e8 a5 04 08       	mov    %eax,0x804a5e8
 8048a38:	ff 14 85 08 a0 04 08 	call   *0x804a008(,%eax,4)
 8048a3f:	a1 e8 a5 04 08       	mov    0x804a5e8,%eax
 8048a44:	39 d8                	cmp    %ebx,%eax
 8048a46:	72 e8                	jb     8048a30 <__do_global_dtors_aux+0x30>
 8048a48:	c6 05 e4 a5 04 08 01 	movb   $0x1,0x804a5e4
 8048a4f:	83 c4 04             	add    $0x4,%esp
 8048a52:	5b                   	pop    %ebx
 8048a53:	5d                   	pop    %ebp
 8048a54:	c3                   	ret    
 8048a55:	8d 74 26 00          	lea    0x0(%esi,%eiz,1),%esi
 8048a59:	8d bc 27 00 00 00 00 	lea    0x0(%edi,%eiz,1),%edi

08048a60 <frame_dummy>:
 8048a60:	55                   	push   %ebp
 8048a61:	89 e5                	mov    %esp,%ebp
 8048a63:	83 ec 18             	sub    $0x18,%esp
 8048a66:	a1 10 a0 04 08       	mov    0x804a010,%eax
 8048a6b:	85 c0                	test   %eax,%eax
 8048a6d:	74 12                	je     8048a81 <frame_dummy+0x21>
 8048a6f:	b8 00 00 00 00       	mov    $0x0,%eax
 8048a74:	85 c0                	test   %eax,%eax
 8048a76:	74 09                	je     8048a81 <frame_dummy+0x21>
 8048a78:	c7 04 24 10 a0 04 08 	movl   $0x804a010,(%esp)
 8048a7f:	ff d0                	call   *%eax
 8048a81:	c9                   	leave  
 8048a82:	c3                   	ret    
 8048a83:	90                   	nop

08048a84 <main>:
 8048a84:	55                   	push   %ebp
 8048a85:	89 e5                	mov    %esp,%ebp
 8048a87:	83 e4 f0             	and    $0xfffffff0,%esp
 8048a8a:	56                   	push   %esi
 8048a8b:	53                   	push   %ebx
 8048a8c:	83 ec 18             	sub    $0x18,%esp
 8048a8f:	8b 45 08             	mov    0x8(%ebp),%eax
 8048a92:	8b 75 0c             	mov    0xc(%ebp),%esi
 8048a95:	83 f8 01             	cmp    $0x1,%eax
 8048a98:	75 0e                	jne    8048aa8 <main+0x24>
 8048a9a:	8b 1d c0 a5 04 08    	mov    0x804a5c0,%ebx
 8048aa0:	89 1d f0 a5 04 08    	mov    %ebx,0x804a5f0
 8048aa6:	eb 65                	jmp    8048b0d <main+0x89>
 8048aa8:	83 f8 02             	cmp    $0x2,%eax
 8048aab:	75 42                	jne    8048aef <main+0x6b>
 8048aad:	8d 5e 04             	lea    0x4(%esi),%ebx
 8048ab0:	c7 44 24 04 7c 9b 04 	movl   $0x8049b7c,0x4(%esp)
 8048ab7:	08 
 8048ab8:	8b 03                	mov    (%ebx),%eax
 8048aba:	89 04 24             	mov    %eax,(%esp)
 8048abd:	e8 2e fe ff ff       	call   80488f0 <fopen@plt>
 8048ac2:	a3 f0 a5 04 08       	mov    %eax,0x804a5f0
 8048ac7:	85 c0                	test   %eax,%eax
 8048ac9:	75 42                	jne    8048b0d <main+0x89>
 8048acb:	8b 03                	mov    (%ebx),%eax
 8048acd:	89 44 24 08          	mov    %eax,0x8(%esp)
 8048ad1:	8b 06                	mov    (%esi),%eax
 8048ad3:	89 44 24 04          	mov    %eax,0x4(%esp)
 8048ad7:	c7 04 24 e8 99 04 08 	movl   $0x80499e8,(%esp)
 8048ade:	e8 2d fe ff ff       	call   8048910 <printf@plt>
 8048ae3:	c7 04 24 08 00 00 00 	movl   $0x8,(%esp)
 8048aea:	e8 d1 fe ff ff       	call   80489c0 <exit@plt>
 8048aef:	8b 06                	mov    (%esi),%eax
 8048af1:	89 44 24 04          	mov    %eax,0x4(%esp)
 8048af5:	c7 04 24 05 9a 04 08 	movl   $0x8049a05,(%esp)
 8048afc:	e8 0f fe ff ff       	call   8048910 <printf@plt>
 8048b01:	c7 04 24 08 00 00 00 	movl   $0x8,(%esp)
 8048b08:	e8 b3 fe ff ff       	call   80489c0 <exit@plt>
 8048b0d:	e8 dc 0d 00 00       	call   80498ee <initialize_bomb>
 8048b12:	c7 04 24 40 9a 04 08 	movl   $0x8049a40,(%esp)
 8048b19:	e8 72 fe ff ff       	call   8048990 <puts@plt>
 8048b1e:	c7 04 24 7c 9a 04 08 	movl   $0x8049a7c,(%esp)
 8048b25:	e8 66 fe ff ff       	call   8048990 <puts@plt>
 8048b2a:	e8 6b 0b 00 00       	call   804969a <read_line>
 8048b2f:	89 04 24             	mov    %eax,(%esp)
 8048b32:	e8 b6 02 00 00       	call   8048ded <phase_1>
 8048b37:	e8 7e 09 00 00       	call   80494ba <phase_defused>
 8048b3c:	c7 04 24 a8 9a 04 08 	movl   $0x8049aa8,(%esp)
 8048b43:	e8 48 fe ff ff       	call   8048990 <puts@plt>
 8048b48:	e8 4d 0b 00 00       	call   804969a <read_line>
 8048b4d:	89 04 24             	mov    %eax,(%esp)
 8048b50:	e8 4e 02 00 00       	call   8048da3 <phase_2>
 8048b55:	e8 60 09 00 00       	call   80494ba <phase_defused>
 8048b5a:	c7 04 24 1f 9a 04 08 	movl   $0x8049a1f,(%esp)
 8048b61:	e8 2a fe ff ff       	call   8048990 <puts@plt>
 8048b66:	e8 2f 0b 00 00       	call   804969a <read_line>
 8048b6b:	89 04 24             	mov    %eax,(%esp)
 8048b6e:	e8 7a 00 00 00       	call   8048bed <phase_3>
 8048b73:	e8 42 09 00 00       	call   80494ba <phase_defused>
 8048b78:	b8 00 00 00 00       	mov    $0x0,%eax
 8048b7d:	83 c4 18             	add    $0x18,%esp
 8048b80:	5b                   	pop    %ebx
 8048b81:	5e                   	pop    %esi
 8048b82:	89 ec                	mov    %ebp,%esp
 8048b84:	5d                   	pop    %ebp
 8048b85:	c3                   	ret    
 8048b86:	90                   	nop
 8048b87:	90                   	nop
 8048b88:	90                   	nop
 8048b89:	90                   	nop
 8048b8a:	90                   	nop
 8048b8b:	90                   	nop
 8048b8c:	90                   	nop
 8048b8d:	90                   	nop
 8048b8e:	90                   	nop
 8048b8f:	90                   	nop

08048b90 <secret_phase>:
 8048b90:	55                   	push   %ebp
 8048b91:	89 e5                	mov    %esp,%ebp
 8048b93:	57                   	push   %edi
 8048b94:	56                   	push   %esi
 8048b95:	53                   	push   %ebx
 8048b96:	83 ec 1c             	sub    $0x1c,%esp
 8048b99:	e8 fc 0a 00 00       	call   804969a <read_line>
 8048b9e:	89 c7                	mov    %eax,%edi
 8048ba0:	89 04 24             	mov    %eax,(%esp)
 8048ba3:	e8 78 02 00 00       	call   8048e20 <string_length>
 8048ba8:	83 f8 06             	cmp    $0x6,%eax
 8048bab:	74 05                	je     8048bb2 <secret_phase+0x22>
 8048bad:	e8 ca 09 00 00       	call   804957c <explode_bomb>
 8048bb2:	be 00 00 00 00       	mov    $0x0,%esi
 8048bb7:	bb 00 00 00 00       	mov    $0x0,%ebx
 8048bbc:	b8 00 9b 04 08       	mov    $0x8049b00,%eax
 8048bc1:	0f be 14 1f          	movsbl (%edi,%ebx,1),%edx
 8048bc5:	83 e2 0f             	and    $0xf,%edx
 8048bc8:	03 34 90             	add    (%eax,%edx,4),%esi
 8048bcb:	83 c3 01             	add    $0x1,%ebx
 8048bce:	83 fb 06             	cmp    $0x6,%ebx
 8048bd1:	75 ee                	jne    8048bc1 <secret_phase+0x31>
 8048bd3:	83 fe 45             	cmp    $0x45,%esi
 8048bd6:	74 05                	je     8048bdd <secret_phase+0x4d>
 8048bd8:	e8 9f 09 00 00       	call   804957c <explode_bomb>
 8048bdd:	8d 76 00             	lea    0x0(%esi),%esi
 8048be0:	e8 d5 08 00 00       	call   80494ba <phase_defused>
 8048be5:	83 c4 1c             	add    $0x1c,%esp
 8048be8:	5b                   	pop    %ebx
 8048be9:	5e                   	pop    %esi
 8048bea:	5f                   	pop    %edi
 8048beb:	5d                   	pop    %ebp
 8048bec:	c3                   	ret    

08048bed <phase_3>:
 8048bed:	55                   	push   %ebp
 8048bee:	89 e5                	mov    %esp,%ebp
 8048bf0:	53                   	push   %ebx
 8048bf1:	83 ec 34             	sub    $0x34,%esp
 8048bf4:	8d 45 f0             	lea    -0x10(%ebp),%eax
 8048bf7:	89 44 24 10          	mov    %eax,0x10(%esp)
 8048bfb:	8d 45 ef             	lea    -0x11(%ebp),%eax
 8048bfe:	89 44 24 0c          	mov    %eax,0xc(%esp)
 8048c02:	8d 45 f4             	lea    -0xc(%ebp),%eax
 8048c05:	89 44 24 08          	mov    %eax,0x8(%esp)
 8048c09:	c7 44 24 04 d1 9a 04 	movl   $0x8049ad1,0x4(%esp)
 8048c10:	08 
 8048c11:	8b 45 08             	mov    0x8(%ebp),%eax
 8048c14:	89 04 24             	mov    %eax,(%esp)
 8048c17:	e8 84 fd ff ff       	call   80489a0 <sscanf@plt>
 8048c1c:	83 f8 02             	cmp    $0x2,%eax
 8048c1f:	7f 05                	jg     8048c26 <phase_3+0x39>
 8048c21:	e8 56 09 00 00       	call   804957c <explode_bomb>
 8048c26:	83 7d f4 07          	cmpl   $0x7,-0xc(%ebp)
 8048c2a:	8d b6 00 00 00 00    	lea    0x0(%esi),%esi
 8048c30:	0f 87 34 01 00 00    	ja     8048d6a <phase_3+0x17d>
 8048c36:	8b 5d f4             	mov    -0xc(%ebp),%ebx
 8048c39:	8d b4 26 00 00 00 00 	lea    0x0(%esi,%eiz,1),%esi
 8048c40:	ff 24 9d e0 9a 04 08 	jmp    *0x8049ae0(,%ebx,4)
 8048c47:	81 7d f0 9e 03 00 00 	cmpl   $0x39e,-0x10(%ebp)
 8048c4e:	66 90                	xchg   %ax,%ax
 8048c50:	0f 84 2c 01 00 00    	je     8048d82 <phase_3+0x195>
 8048c56:	66 90                	xchg   %ax,%ax
 8048c58:	e8 1f 09 00 00       	call   804957c <explode_bomb>
 8048c5d:	bb 6c 00 00 00       	mov    $0x6c,%ebx
 8048c62:	8d b6 00 00 00 00    	lea    0x0(%esi),%esi
 8048c68:	e9 1a 01 00 00       	jmp    8048d87 <phase_3+0x19a>
 8048c6d:	bb 68 00 00 00       	mov    $0x68,%ebx
 8048c72:	81 7d f0 67 03 00 00 	cmpl   $0x367,-0x10(%ebp)
 8048c79:	8d b4 26 00 00 00 00 	lea    0x0(%esi,%eiz,1),%esi
 8048c80:	0f 84 01 01 00 00    	je     8048d87 <phase_3+0x19a>
 8048c86:	66 90                	xchg   %ax,%ax
 8048c88:	e8 ef 08 00 00       	call   804957c <explode_bomb>
 8048c8d:	8d 76 00             	lea    0x0(%esi),%esi
 8048c90:	e9 f2 00 00 00       	jmp    8048d87 <phase_3+0x19a>
 8048c95:	81 7d f0 5a 02 00 00 	cmpl   $0x25a,-0x10(%ebp)
 8048c9c:	8d 74 26 00          	lea    0x0(%esi,%eiz,1),%esi
 8048ca0:	0f 84 dc 00 00 00    	je     8048d82 <phase_3+0x195>
 8048ca6:	66 90                	xchg   %ax,%ax
 8048ca8:	e8 cf 08 00 00       	call   804957c <explode_bomb>
 8048cad:	bb 6c 00 00 00       	mov    $0x6c,%ebx
 8048cb2:	8d b6 00 00 00 00    	lea    0x0(%esi),%esi
 8048cb8:	e9 ca 00 00 00       	jmp    8048d87 <phase_3+0x19a>
 8048cbd:	bb 76 00 00 00       	mov    $0x76,%ebx
 8048cc2:	81 7d f0 4e 02 00 00 	cmpl   $0x24e,-0x10(%ebp)
 8048cc9:	8d b4 26 00 00 00 00 	lea    0x0(%esi,%eiz,1),%esi
 8048cd0:	0f 84 b1 00 00 00    	je     8048d87 <phase_3+0x19a>
 8048cd6:	66 90                	xchg   %ax,%ax
 8048cd8:	e8 9f 08 00 00       	call   804957c <explode_bomb>
 8048cdd:	8d 76 00             	lea    0x0(%esi),%esi
 8048ce0:	e9 a2 00 00 00       	jmp    8048d87 <phase_3+0x19a>
 8048ce5:	bb 6a 00 00 00       	mov    $0x6a,%ebx
 8048cea:	81 7d f0 3e 01 00 00 	cmpl   $0x13e,-0x10(%ebp)
 8048cf1:	8d b4 26 00 00 00 00 	lea    0x0(%esi,%eiz,1),%esi
 8048cf8:	0f 84 89 00 00 00    	je     8048d87 <phase_3+0x19a>
 8048cfe:	66 90                	xchg   %ax,%ax
 8048d00:	e8 77 08 00 00       	call   804957c <explode_bomb>
 8048d05:	8d 76 00             	lea    0x0(%esi),%esi
 8048d08:	eb 7d                	jmp    8048d87 <phase_3+0x19a>
 8048d0a:	bb 66 00 00 00       	mov    $0x66,%ebx
 8048d0f:	81 7d f0 97 03 00 00 	cmpl   $0x397,-0x10(%ebp)
 8048d16:	66 90                	xchg   %ax,%ax
 8048d18:	74 6d                	je     8048d87 <phase_3+0x19a>
 8048d1a:	8d b6 00 00 00 00    	lea    0x0(%esi),%esi
 8048d20:	e8 57 08 00 00       	call   804957c <explode_bomb>
 8048d25:	8d 76 00             	lea    0x0(%esi),%esi
 8048d28:	eb 5d                	jmp    8048d87 <phase_3+0x19a>
 8048d2a:	bb 67 00 00 00       	mov    $0x67,%ebx
 8048d2f:	81 7d f0 bb 03 00 00 	cmpl   $0x3bb,-0x10(%ebp)
 8048d36:	66 90                	xchg   %ax,%ax
 8048d38:	74 4d                	je     8048d87 <phase_3+0x19a>
 8048d3a:	8d b6 00 00 00 00    	lea    0x0(%esi),%esi
 8048d40:	e8 37 08 00 00       	call   804957c <explode_bomb>
 8048d45:	8d 76 00             	lea    0x0(%esi),%esi
 8048d48:	eb 3d                	jmp    8048d87 <phase_3+0x19a>
 8048d4a:	bb 7a 00 00 00       	mov    $0x7a,%ebx
 8048d4f:	81 7d f0 be 03 00 00 	cmpl   $0x3be,-0x10(%ebp)
 8048d56:	66 90                	xchg   %ax,%ax
 8048d58:	74 2d                	je     8048d87 <phase_3+0x19a>
 8048d5a:	8d b6 00 00 00 00    	lea    0x0(%esi),%esi
 8048d60:	e8 17 08 00 00       	call   804957c <explode_bomb>
 8048d65:	8d 76 00             	lea    0x0(%esi),%esi
 8048d68:	eb 1d                	jmp    8048d87 <phase_3+0x19a>
 8048d6a:	8d b6 00 00 00 00    	lea    0x0(%esi),%esi
 8048d70:	e8 07 08 00 00       	call   804957c <explode_bomb>
 8048d75:	bb 72 00 00 00       	mov    $0x72,%ebx
 8048d7a:	8d b6 00 00 00 00    	lea    0x0(%esi),%esi
 8048d80:	eb 05                	jmp    8048d87 <phase_3+0x19a>
 8048d82:	bb 6c 00 00 00       	mov    $0x6c,%ebx
 8048d87:	3a 5d ef             	cmp    -0x11(%ebp),%bl
 8048d8a:	8d b6 00 00 00 00    	lea    0x0(%esi),%esi
 8048d90:	74 0b                	je     8048d9d <phase_3+0x1b0>
 8048d92:	8d b6 00 00 00 00    	lea    0x0(%esi),%esi
 8048d98:	e8 df 07 00 00       	call   804957c <explode_bomb>
 8048d9d:	83 c4 34             	add    $0x34,%esp
 8048da0:	5b                   	pop    %ebx
 8048da1:	5d                   	pop    %ebp
 8048da2:	c3                   	ret    

08048da3 <phase_2>:
 8048da3:	55                   	push   %ebp
 8048da4:	89 e5                	mov    %esp,%ebp
 8048da6:	57                   	push   %edi
 8048da7:	56                   	push   %esi
 8048da8:	53                   	push   %ebx
 8048da9:	83 ec 3c             	sub    $0x3c,%esp
 8048dac:	8d 45 d0             	lea    -0x30(%ebp),%eax
 8048daf:	89 44 24 04          	mov    %eax,0x4(%esp)
 8048db3:	8b 45 08             	mov    0x8(%ebp),%eax
 8048db6:	89 04 24             	mov    %eax,(%esp)
 8048db9:	e8 00 08 00 00       	call   80495be <read_six_numbers>
 8048dbe:	bb 01 00 00 00       	mov    $0x1,%ebx
 8048dc3:	8d 75 d0             	lea    -0x30(%ebp),%esi
 8048dc6:	bf 04 00 00 00       	mov    $0x4,%edi
 8048dcb:	89 f8                	mov    %edi,%eax
 8048dcd:	29 d8                	sub    %ebx,%eax
 8048dcf:	03 44 9e fc          	add    -0x4(%esi,%ebx,4),%eax
 8048dd3:	39 04 9e             	cmp    %eax,(%esi,%ebx,4)
 8048dd6:	74 05                	je     8048ddd <phase_2+0x3a>
 8048dd8:	e8 9f 07 00 00       	call   804957c <explode_bomb>
 8048ddd:	83 c3 01             	add    $0x1,%ebx
 8048de0:	83 fb 06             	cmp    $0x6,%ebx
 8048de3:	75 e6                	jne    8048dcb <phase_2+0x28>
 8048de5:	83 c4 3c             	add    $0x3c,%esp
 8048de8:	5b                   	pop    %ebx
 8048de9:	5e                   	pop    %esi
 8048dea:	5f                   	pop    %edi
 8048deb:	5d                   	pop    %ebp
 8048dec:	c3                   	ret    

08048ded <phase_1>:
 8048ded:	55                   	push   %ebp
 8048dee:	89 e5                	mov    %esp,%ebp
 8048df0:	83 ec 18             	sub    $0x18,%esp
 8048df3:	c7 44 24 04 40 9b 04 	movl   $0x8049b40,0x4(%esp)
 8048dfa:	08 
 8048dfb:	8b 45 08             	mov    0x8(%ebp),%eax
 8048dfe:	89 04 24             	mov    %eax,(%esp)
 8048e01:	e8 39 00 00 00       	call   8048e3f <strings_not_equal>
 8048e06:	85 c0                	test   %eax,%eax
 8048e08:	74 05                	je     8048e0f <phase_1+0x22>
 8048e0a:	e8 6d 07 00 00       	call   804957c <explode_bomb>
 8048e0f:	c9                   	leave  
 8048e10:	c3                   	ret    
 8048e11:	90                   	nop
 8048e12:	90                   	nop
 8048e13:	90                   	nop
 8048e14:	90                   	nop
 8048e15:	90                   	nop
 8048e16:	90                   	nop
 8048e17:	90                   	nop
 8048e18:	90                   	nop
 8048e19:	90                   	nop
 8048e1a:	90                   	nop
 8048e1b:	90                   	nop
 8048e1c:	90                   	nop
 8048e1d:	90                   	nop
 8048e1e:	90                   	nop
 8048e1f:	90                   	nop

08048e20 <string_length>:
 8048e20:	55                   	push   %ebp
 8048e21:	89 e5                	mov    %esp,%ebp
 8048e23:	53                   	push   %ebx
 8048e24:	8b 45 08             	mov    0x8(%ebp),%eax
 8048e27:	bb 00 00 00 00       	mov    $0x0,%ebx
 8048e2c:	80 38 00             	cmpb   $0x0,(%eax)
 8048e2f:	74 09                	je     8048e3a <string_length+0x1a>
 8048e31:	83 c3 01             	add    $0x1,%ebx
 8048e34:	80 3c 18 00          	cmpb   $0x0,(%eax,%ebx,1)
 8048e38:	75 f7                	jne    8048e31 <string_length+0x11>
 8048e3a:	89 d8                	mov    %ebx,%eax
 8048e3c:	5b                   	pop    %ebx
 8048e3d:	5d                   	pop    %ebp
 8048e3e:	c3                   	ret    

08048e3f <strings_not_equal>:
 8048e3f:	55                   	push   %ebp
 8048e40:	89 e5                	mov    %esp,%ebp
 8048e42:	57                   	push   %edi
 8048e43:	56                   	push   %esi
 8048e44:	53                   	push   %ebx
 8048e45:	83 ec 04             	sub    $0x4,%esp
 8048e48:	8b 5d 08             	mov    0x8(%ebp),%ebx
 8048e4b:	8b 75 0c             	mov    0xc(%ebp),%esi
 8048e4e:	89 1c 24             	mov    %ebx,(%esp)
 8048e51:	e8 ca ff ff ff       	call   8048e20 <string_length>
 8048e56:	89 c7                	mov    %eax,%edi
 8048e58:	89 34 24             	mov    %esi,(%esp)
 8048e5b:	e8 c0 ff ff ff       	call   8048e20 <string_length>
 8048e60:	39 c7                	cmp    %eax,%edi
 8048e62:	75 2d                	jne    8048e91 <strings_not_equal+0x52>
 8048e64:	0f b6 13             	movzbl (%ebx),%edx
 8048e67:	84 d2                	test   %dl,%dl
 8048e69:	74 2f                	je     8048e9a <strings_not_equal+0x5b>
 8048e6b:	b8 00 00 00 00       	mov    $0x0,%eax
 8048e70:	3a 16                	cmp    (%esi),%dl
 8048e72:	74 12                	je     8048e86 <strings_not_equal+0x47>
 8048e74:	8d 74 26 00          	lea    0x0(%esi,%eiz,1),%esi
 8048e78:	eb 17                	jmp    8048e91 <strings_not_equal+0x52>
 8048e7a:	0f b6 4c 06 01       	movzbl 0x1(%esi,%eax,1),%ecx
 8048e7f:	83 c0 01             	add    $0x1,%eax
 8048e82:	38 ca                	cmp    %cl,%dl
 8048e84:	75 0b                	jne    8048e91 <strings_not_equal+0x52>
 8048e86:	0f b6 54 03 01       	movzbl 0x1(%ebx,%eax,1),%edx
 8048e8b:	84 d2                	test   %dl,%dl
 8048e8d:	75 eb                	jne    8048e7a <strings_not_equal+0x3b>
 8048e8f:	eb 09                	jmp    8048e9a <strings_not_equal+0x5b>
 8048e91:	b8 01 00 00 00       	mov    $0x1,%eax
 8048e96:	66 90                	xchg   %ax,%ax
 8048e98:	eb 05                	jmp    8048e9f <strings_not_equal+0x60>
 8048e9a:	b8 00 00 00 00       	mov    $0x0,%eax
 8048e9f:	83 c4 04             	add    $0x4,%esp
 8048ea2:	5b                   	pop    %ebx
 8048ea3:	5e                   	pop    %esi
 8048ea4:	5f                   	pop    %edi
 8048ea5:	5d                   	pop    %ebp
 8048ea6:	66 90                	xchg   %ax,%ax
 8048ea8:	c3                   	ret    

08048ea9 <send_msg_2>:
 8048ea9:	55                   	push   %ebp
 8048eaa:	89 e5                	mov    %esp,%ebp
 8048eac:	57                   	push   %edi
 8048ead:	56                   	push   %esi
 8048eae:	53                   	push   %ebx
 8048eaf:	81 ec 8c 00 00 00    	sub    $0x8c,%esp
 8048eb5:	c7 04 24 00 00 00 00 	movl   $0x0,(%esp)
 8048ebc:	e8 1f fa ff ff       	call   80488e0 <dup@plt>
 8048ec1:	89 45 94             	mov    %eax,-0x6c(%ebp)
 8048ec4:	83 f8 ff             	cmp    $0xffffffff,%eax
 8048ec7:	75 18                	jne    8048ee1 <send_msg_2+0x38>
 8048ec9:	c7 04 24 6a 9b 04 08 	movl   $0x8049b6a,(%esp)
 8048ed0:	e8 bb fa ff ff       	call   8048990 <puts@plt>
 8048ed5:	c7 04 24 08 00 00 00 	movl   $0x8,(%esp)
 8048edc:	e8 df fa ff ff       	call   80489c0 <exit@plt>
 8048ee1:	c7 04 24 00 00 00 00 	movl   $0x0,(%esp)
 8048ee8:	e8 33 fa ff ff       	call   8048920 <close@plt>
 8048eed:	83 f8 ff             	cmp    $0xffffffff,%eax
 8048ef0:	75 18                	jne    8048f0a <send_msg_2+0x61>
 8048ef2:	c7 04 24 7e 9b 04 08 	movl   $0x8049b7e,(%esp)
 8048ef9:	e8 92 fa ff ff       	call   8048990 <puts@plt>
 8048efe:	c7 04 24 08 00 00 00 	movl   $0x8,(%esp)
 8048f05:	e8 b6 fa ff ff       	call   80489c0 <exit@plt>
 8048f0a:	e8 61 f9 ff ff       	call   8048870 <tmpfile@plt>
 8048f0f:	89 c7                	mov    %eax,%edi
 8048f11:	85 c0                	test   %eax,%eax
 8048f13:	75 18                	jne    8048f2d <send_msg_2+0x84>
 8048f15:	c7 04 24 91 9b 04 08 	movl   $0x8049b91,(%esp)
 8048f1c:	e8 6f fa ff ff       	call   8048990 <puts@plt>
 8048f21:	c7 04 24 08 00 00 00 	movl   $0x8,(%esp)
 8048f28:	e8 93 fa ff ff       	call   80489c0 <exit@plt>
 8048f2d:	89 44 24 0c          	mov    %eax,0xc(%esp)
 8048f31:	c7 44 24 08 1b 00 00 	movl   $0x1b,0x8(%esp)
 8048f38:	00 
 8048f39:	c7 44 24 04 01 00 00 	movl   $0x1,0x4(%esp)
 8048f40:	00 
 8048f41:	c7 04 24 a6 9b 04 08 	movl   $0x8049ba6,(%esp)
 8048f48:	e8 e3 f9 ff ff       	call   8048930 <fwrite@plt>
 8048f4d:	89 7c 24 04          	mov    %edi,0x4(%esp)
 8048f51:	c7 04 24 0a 00 00 00 	movl   $0xa,(%esp)
 8048f58:	e8 03 fa ff ff       	call   8048960 <fputc@plt>
 8048f5d:	c7 04 24 00 00 00 00 	movl   $0x0,(%esp)
 8048f64:	e8 e7 f9 ff ff       	call   8048950 <cuserid@plt>
 8048f69:	85 c0                	test   %eax,%eax
 8048f6b:	75 15                	jne    8048f82 <send_msg_2+0xd9>
 8048f6d:	8d 45 98             	lea    -0x68(%ebp),%eax
 8048f70:	c7 00 6e 6f 62 6f    	movl   $0x6f626f6e,(%eax)
 8048f76:	66 c7 40 04 64 79    	movw   $0x7964,0x4(%eax)
 8048f7c:	c6 40 06 00          	movb   $0x0,0x6(%eax)
 8048f80:	eb 0f                	jmp    8048f91 <send_msg_2+0xe8>
 8048f82:	89 44 24 04          	mov    %eax,0x4(%esp)
 8048f86:	8d 45 98             	lea    -0x68(%ebp),%eax
 8048f89:	89 04 24             	mov    %eax,(%esp)
 8048f8c:	e8 6f f9 ff ff       	call   8048900 <strcpy@plt>
 8048f91:	8b 15 ec a5 04 08    	mov    0x804a5ec,%edx
 8048f97:	b8 cb 9b 04 08       	mov    $0x8049bcb,%eax
 8048f9c:	83 7d 08 00          	cmpl   $0x0,0x8(%ebp)
 8048fa0:	75 05                	jne    8048fa7 <send_msg_2+0xfe>
 8048fa2:	b8 c2 9b 04 08       	mov    $0x8049bc2,%eax
 8048fa7:	89 54 24 18          	mov    %edx,0x18(%esp)
 8048fab:	89 44 24 14          	mov    %eax,0x14(%esp)
 8048faf:	8d 45 98             	lea    -0x68(%ebp),%eax
 8048fb2:	89 44 24 10          	mov    %eax,0x10(%esp)
 8048fb6:	8b 1d a0 a1 04 08    	mov    0x804a1a0,%ebx
 8048fbc:	89 5c 24 0c          	mov    %ebx,0xc(%esp)
 8048fc0:	c7 44 24 08 c0 a1 04 	movl   $0x804a1c0,0x8(%esp)
 8048fc7:	08 
 8048fc8:	c7 44 24 04 d3 9b 04 	movl   $0x8049bd3,0x4(%esp)
 8048fcf:	08 
 8048fd0:	89 3c 24             	mov    %edi,(%esp)
 8048fd3:	e8 68 f9 ff ff       	call   8048940 <fprintf@plt>
 8048fd8:	83 3d ec a5 04 08 00 	cmpl   $0x0,0x804a5ec
 8048fdf:	7e 48                	jle    8049029 <send_msg_2+0x180>
 8048fe1:	be 00 a6 04 08       	mov    $0x804a600,%esi
 8048fe6:	bb 00 00 00 00       	mov    $0x0,%ebx
 8048feb:	83 c3 01             	add    $0x1,%ebx
 8048fee:	89 74 24 18          	mov    %esi,0x18(%esp)
 8048ff2:	89 5c 24 14          	mov    %ebx,0x14(%esp)
 8048ff6:	8d 45 98             	lea    -0x68(%ebp),%eax
 8048ff9:	89 44 24 10          	mov    %eax,0x10(%esp)
 8048ffd:	a1 a0 a1 04 08       	mov    0x804a1a0,%eax
 8049002:	89 44 24 0c          	mov    %eax,0xc(%esp)
 8049006:	c7 44 24 08 c0 a1 04 	movl   $0x804a1c0,0x8(%esp)
 804900d:	08 
 804900e:	c7 44 24 04 ef 9b 04 	movl   $0x8049bef,0x4(%esp)
 8049015:	08 
 8049016:	89 3c 24             	mov    %edi,(%esp)
 8049019:	e8 22 f9 ff ff       	call   8048940 <fprintf@plt>
 804901e:	83 c6 50             	add    $0x50,%esi
 8049021:	39 1d ec a5 04 08    	cmp    %ebx,0x804a5ec
 8049027:	7f c2                	jg     8048feb <send_msg_2+0x142>
 8049029:	89 3c 24             	mov    %edi,(%esp)
 804902c:	e8 df f7 ff ff       	call   8048810 <rewind@plt>
 8049031:	c7 44 24 10 0b 9c 04 	movl   $0x8049c0b,0x10(%esp)
 8049038:	08 
 8049039:	c7 44 24 0c 15 9c 04 	movl   $0x8049c15,0xc(%esp)
 8049040:	08 
 8049041:	c7 44 24 08 20 9c 04 	movl   $0x8049c20,0x8(%esp)
 8049048:	08 
 8049049:	c7 44 24 04 37 9c 04 	movl   $0x8049c37,0x4(%esp)
 8049050:	08 
 8049051:	c7 04 24 40 ac 04 08 	movl   $0x804ac40,(%esp)
 8049058:	e8 73 f7 ff ff       	call   80487d0 <sprintf@plt>
 804905d:	c7 04 24 40 ac 04 08 	movl   $0x804ac40,(%esp)
 8049064:	e8 c7 f7 ff ff       	call   8048830 <system@plt>
 8049069:	85 c0                	test   %eax,%eax
 804906b:	74 18                	je     8049085 <send_msg_2+0x1dc>
 804906d:	c7 04 24 40 9c 04 08 	movl   $0x8049c40,(%esp)
 8049074:	e8 17 f9 ff ff       	call   8048990 <puts@plt>
 8049079:	c7 04 24 08 00 00 00 	movl   $0x8,(%esp)
 8049080:	e8 3b f9 ff ff       	call   80489c0 <exit@plt>
 8049085:	89 3c 24             	mov    %edi,(%esp)
 8049088:	e8 33 f8 ff ff       	call   80488c0 <fclose@plt>
 804908d:	85 c0                	test   %eax,%eax
 804908f:	74 18                	je     80490a9 <send_msg_2+0x200>
 8049091:	c7 04 24 5a 9c 04 08 	movl   $0x8049c5a,(%esp)
 8049098:	e8 f3 f8 ff ff       	call   8048990 <puts@plt>
 804909d:	c7 04 24 08 00 00 00 	movl   $0x8,(%esp)
 80490a4:	e8 17 f9 ff ff       	call   80489c0 <exit@plt>
 80490a9:	8b 45 94             	mov    -0x6c(%ebp),%eax
 80490ac:	89 04 24             	mov    %eax,(%esp)
 80490af:	e8 2c f8 ff ff       	call   80488e0 <dup@plt>
 80490b4:	85 c0                	test   %eax,%eax
 80490b6:	74 18                	je     80490d0 <send_msg_2+0x227>
 80490b8:	c7 04 24 73 9c 04 08 	movl   $0x8049c73,(%esp)
 80490bf:	e8 cc f8 ff ff       	call   8048990 <puts@plt>
 80490c4:	c7 04 24 08 00 00 00 	movl   $0x8,(%esp)
 80490cb:	e8 f0 f8 ff ff       	call   80489c0 <exit@plt>
 80490d0:	8b 45 94             	mov    -0x6c(%ebp),%eax
 80490d3:	89 04 24             	mov    %eax,(%esp)
 80490d6:	e8 45 f8 ff ff       	call   8048920 <close@plt>
 80490db:	85 c0                	test   %eax,%eax
 80490dd:	74 18                	je     80490f7 <send_msg_2+0x24e>
 80490df:	c7 04 24 8e 9c 04 08 	movl   $0x8049c8e,(%esp)
 80490e6:	e8 a5 f8 ff ff       	call   8048990 <puts@plt>
 80490eb:	c7 04 24 08 00 00 00 	movl   $0x8,(%esp)
 80490f2:	e8 c9 f8 ff ff       	call   80489c0 <exit@plt>
 80490f7:	81 c4 8c 00 00 00    	add    $0x8c,%esp
 80490fd:	5b                   	pop    %ebx
 80490fe:	5e                   	pop    %esi
 80490ff:	5f                   	pop    %edi
 8049100:	5d                   	pop    %ebp
 8049101:	c3                   	ret    

08049102 <writen>:
 8049102:	55                   	push   %ebp
 8049103:	89 e5                	mov    %esp,%ebp
 8049105:	57                   	push   %edi
 8049106:	56                   	push   %esi
 8049107:	53                   	push   %ebx
 8049108:	83 ec 1c             	sub    $0x1c,%esp
 804910b:	83 7d 10 00          	cmpl   $0x0,0x10(%ebp)
 804910f:	74 49                	je     804915a <writen+0x58>
 8049111:	8b 7d 0c             	mov    0xc(%ebp),%edi
 8049114:	8b 75 10             	mov    0x10(%ebp),%esi
 8049117:	89 74 24 08          	mov    %esi,0x8(%esp)
 804911b:	89 7c 24 04          	mov    %edi,0x4(%esp)
 804911f:	8b 45 08             	mov    0x8(%ebp),%eax
 8049122:	89 04 24             	mov    %eax,(%esp)
 8049125:	e8 16 f7 ff ff       	call   8048840 <write@plt>
 804912a:	89 c3                	mov    %eax,%ebx
 804912c:	85 c0                	test   %eax,%eax
 804912e:	7f 17                	jg     8049147 <writen+0x45>
 8049130:	e8 8b f6 ff ff       	call   80487c0 <__errno_location@plt>
 8049135:	83 38 04             	cmpl   $0x4,(%eax)
 8049138:	74 08                	je     8049142 <writen+0x40>
 804913a:	b8 ff ff ff ff       	mov    $0xffffffff,%eax
 804913f:	90                   	nop
 8049140:	eb 1b                	jmp    804915d <writen+0x5b>
 8049142:	bb 00 00 00 00       	mov    $0x0,%ebx
 8049147:	29 de                	sub    %ebx,%esi
 8049149:	8d b4 26 00 00 00 00 	lea    0x0(%esi,%eiz,1),%esi
 8049150:	74 08                	je     804915a <writen+0x58>
 8049152:	01 df                	add    %ebx,%edi
 8049154:	8d 74 26 00          	lea    0x0(%esi,%eiz,1),%esi
 8049158:	eb bd                	jmp    8049117 <writen+0x15>
 804915a:	8b 45 10             	mov    0x10(%ebp),%eax
 804915d:	83 c4 1c             	add    $0x1c,%esp
 8049160:	5b                   	pop    %ebx
 8049161:	5e                   	pop    %esi
 8049162:	5f                   	pop    %edi
 8049163:	5d                   	pop    %ebp
 8049164:	c3                   	ret    

08049165 <send_msg>:
 8049165:	55                   	push   %ebp
 8049166:	89 e5                	mov    %esp,%ebp
 8049168:	57                   	push   %edi
 8049169:	56                   	push   %esi
 804916a:	53                   	push   %ebx
 804916b:	81 ec 9c 24 00 00    	sub    $0x249c,%esp
 8049171:	c7 44 24 08 00 00 00 	movl   $0x0,0x8(%esp)
 8049178:	00 
 8049179:	c7 44 24 04 01 00 00 	movl   $0x1,0x4(%esp)
 8049180:	00 
 8049181:	c7 04 24 02 00 00 00 	movl   $0x2,(%esp)
 8049188:	e8 13 f7 ff ff       	call   80488a0 <socket@plt>
 804918d:	89 85 84 db ff ff    	mov    %eax,-0x247c(%ebp)
 8049193:	85 c0                	test   %eax,%eax
 8049195:	79 38                	jns    80491cf <send_msg+0x6a>
 8049197:	c7 44 24 08 a5 9c 04 	movl   $0x8049ca5,0x8(%esp)
 804919e:	08 
 804919f:	c7 44 24 04 01 9a 04 	movl   $0x8049a01,0x4(%esp)
 80491a6:	08 
 80491a7:	8b 1d e0 a5 04 08    	mov    0x804a5e0,%ebx
 80491ad:	89 1c 24             	mov    %ebx,(%esp)
 80491b0:	e8 8b f7 ff ff       	call   8048940 <fprintf@plt>
 80491b5:	8b 85 84 db ff ff    	mov    -0x247c(%ebp),%eax
 80491bb:	89 04 24             	mov    %eax,(%esp)
 80491be:	e8 5d f7 ff ff       	call   8048920 <close@plt>
 80491c3:	c7 04 24 01 00 00 00 	movl   $0x1,(%esp)
 80491ca:	e8 f1 f7 ff ff       	call   80489c0 <exit@plt>
 80491cf:	8d 45 d8             	lea    -0x28(%ebp),%eax
 80491d2:	c7 40 04 00 00 00 00 	movl   $0x0,0x4(%eax)
 80491d9:	c7 40 08 00 00 00 00 	movl   $0x0,0x8(%eax)
 80491e0:	c7 40 0c 00 00 00 00 	movl   $0x0,0xc(%eax)
 80491e7:	66 c7 45 d8 02 00    	movw   $0x2,-0x28(%ebp)
 80491ed:	66 c7 45 da cc 62    	movw   $0x62cc,-0x26(%ebp)
 80491f3:	8d 45 dc             	lea    -0x24(%ebp),%eax
 80491f6:	89 44 24 08          	mov    %eax,0x8(%esp)
 80491fa:	c7 44 24 04 b2 9c 04 	movl   $0x8049cb2,0x4(%esp)
 8049201:	08 
 8049202:	c7 04 24 02 00 00 00 	movl   $0x2,(%esp)
 8049209:	e8 72 f6 ff ff       	call   8048880 <inet_pton@plt>
 804920e:	85 c0                	test   %eax,%eax
 8049210:	79 41                	jns    8049253 <send_msg+0xee>
 8049212:	c7 44 24 08 78 9b 04 	movl   $0x8049b78,0x8(%esp)
 8049219:	08 
 804921a:	c7 44 24 04 01 9a 04 	movl   $0x8049a01,0x4(%esp)
 8049221:	08 
 8049222:	8b 1d e0 a5 04 08    	mov    0x804a5e0,%ebx
 8049228:	89 1c 24             	mov    %ebx,(%esp)
 804922b:	e8 10 f7 ff ff       	call   8048940 <fprintf@plt>
 8049230:	83 bd 84 db ff ff 00 	cmpl   $0x0,-0x247c(%ebp)
 8049237:	74 0e                	je     8049247 <send_msg+0xe2>
 8049239:	8b 8d 84 db ff ff    	mov    -0x247c(%ebp),%ecx
 804923f:	89 0c 24             	mov    %ecx,(%esp)
 8049242:	e8 d9 f6 ff ff       	call   8048920 <close@plt>
 8049247:	c7 04 24 01 00 00 00 	movl   $0x1,(%esp)
 804924e:	e8 6d f7 ff ff       	call   80489c0 <exit@plt>
 8049253:	c7 44 24 08 10 00 00 	movl   $0x10,0x8(%esp)
 804925a:	00 
 804925b:	8d 45 d8             	lea    -0x28(%ebp),%eax
 804925e:	89 44 24 04          	mov    %eax,0x4(%esp)
 8049262:	8b 85 84 db ff ff    	mov    -0x247c(%ebp),%eax
 8049268:	89 04 24             	mov    %eax,(%esp)
 804926b:	e8 70 f5 ff ff       	call   80487e0 <connect@plt>
 8049270:	85 c0                	test   %eax,%eax
 8049272:	79 41                	jns    80492b5 <send_msg+0x150>
 8049274:	c7 44 24 08 c1 9c 04 	movl   $0x8049cc1,0x8(%esp)
 804927b:	08 
 804927c:	c7 44 24 04 01 9a 04 	movl   $0x8049a01,0x4(%esp)
 8049283:	08 
 8049284:	8b 1d e0 a5 04 08    	mov    0x804a5e0,%ebx
 804928a:	89 1c 24             	mov    %ebx,(%esp)
 804928d:	e8 ae f6 ff ff       	call   8048940 <fprintf@plt>
 8049292:	83 bd 84 db ff ff 00 	cmpl   $0x0,-0x247c(%ebp)
 8049299:	74 0e                	je     80492a9 <send_msg+0x144>
 804929b:	8b 8d 84 db ff ff    	mov    -0x247c(%ebp),%ecx
 80492a1:	89 0c 24             	mov    %ecx,(%esp)
 80492a4:	e8 77 f6 ff ff       	call   8048920 <close@plt>
 80492a9:	c7 04 24 01 00 00 00 	movl   $0x1,(%esp)
 80492b0:	e8 0b f7 ff ff       	call   80489c0 <exit@plt>
 80492b5:	8d bd d8 db ff ff    	lea    -0x2428(%ebp),%edi
 80492bb:	c7 07 53 75 62 6a    	movl   $0x6a627553,(%edi)
 80492c1:	c7 47 04 65 63 74 3a 	movl   $0x3a746365,0x4(%edi)
 80492c8:	c7 47 08 20 42 6f 6d 	movl   $0x6d6f4220,0x8(%edi)
 80492cf:	c7 47 0c 62 20 6e 6f 	movl   $0x6f6e2062,0xc(%edi)
 80492d6:	c7 47 10 74 69 66 69 	movl   $0x69666974,0x10(%edi)
 80492dd:	c7 47 14 63 61 74 69 	movl   $0x69746163,0x14(%edi)
 80492e4:	c7 47 18 6f 6e 0a 00 	movl   $0xa6e6f,0x18(%edi)
 80492eb:	89 7c 24 04          	mov    %edi,0x4(%esp)
 80492ef:	8d 9d d8 df ff ff    	lea    -0x2028(%ebp),%ebx
 80492f5:	89 1c 24             	mov    %ebx,(%esp)
 80492f8:	e8 83 f6 ff ff       	call   8048980 <strcat@plt>
 80492fd:	66 c7 07 0a 00       	movw   $0xa,(%edi)
 8049302:	89 7c 24 04          	mov    %edi,0x4(%esp)
 8049306:	89 1c 24             	mov    %ebx,(%esp)
 8049309:	e8 72 f6 ff ff       	call   8048980 <strcat@plt>
 804930e:	c7 04 24 00 00 00 00 	movl   $0x0,(%esp)
 8049315:	e8 36 f6 ff ff       	call   8048950 <cuserid@plt>
 804931a:	85 c0                	test   %eax,%eax
 804931c:	75 18                	jne    8049336 <send_msg+0x1d1>
 804931e:	8d 85 88 db ff ff    	lea    -0x2478(%ebp),%eax
 8049324:	c7 00 6e 6f 62 6f    	movl   $0x6f626f6e,(%eax)
 804932a:	66 c7 40 04 64 79    	movw   $0x7964,0x4(%eax)
 8049330:	c6 40 06 00          	movb   $0x0,0x6(%eax)
 8049334:	eb 12                	jmp    8049348 <send_msg+0x1e3>
 8049336:	89 44 24 04          	mov    %eax,0x4(%esp)
 804933a:	8d 85 88 db ff ff    	lea    -0x2478(%ebp),%eax
 8049340:	89 04 24             	mov    %eax,(%esp)
 8049343:	e8 b8 f5 ff ff       	call   8048900 <strcpy@plt>
 8049348:	8b 15 ec a5 04 08    	mov    0x804a5ec,%edx
 804934e:	b8 cb 9b 04 08       	mov    $0x8049bcb,%eax
 8049353:	83 7d 08 00          	cmpl   $0x0,0x8(%ebp)
 8049357:	75 05                	jne    804935e <send_msg+0x1f9>
 8049359:	b8 c2 9b 04 08       	mov    $0x8049bc2,%eax
 804935e:	89 54 24 18          	mov    %edx,0x18(%esp)
 8049362:	89 44 24 14          	mov    %eax,0x14(%esp)
 8049366:	8d 85 88 db ff ff    	lea    -0x2478(%ebp),%eax
 804936c:	89 44 24 10          	mov    %eax,0x10(%esp)
 8049370:	8b 1d a0 a1 04 08    	mov    0x804a1a0,%ebx
 8049376:	89 5c 24 0c          	mov    %ebx,0xc(%esp)
 804937a:	c7 44 24 08 c0 a1 04 	movl   $0x804a1c0,0x8(%esp)
 8049381:	08 
 8049382:	c7 44 24 04 d3 9b 04 	movl   $0x8049bd3,0x4(%esp)
 8049389:	08 
 804938a:	8d 85 d8 db ff ff    	lea    -0x2428(%ebp),%eax
 8049390:	89 04 24             	mov    %eax,(%esp)
 8049393:	e8 38 f4 ff ff       	call   80487d0 <sprintf@plt>
 8049398:	89 7c 24 04          	mov    %edi,0x4(%esp)
 804939c:	8d 85 d8 df ff ff    	lea    -0x2028(%ebp),%eax
 80493a2:	89 04 24             	mov    %eax,(%esp)
 80493a5:	e8 d6 f5 ff ff       	call   8048980 <strcat@plt>
 80493aa:	83 3d ec a5 04 08 00 	cmpl   $0x0,0x804a5ec
 80493b1:	7e 64                	jle    8049417 <send_msg+0x2b2>
 80493b3:	be 00 a6 04 08       	mov    $0x804a600,%esi
 80493b8:	bb 00 00 00 00       	mov    $0x0,%ebx
 80493bd:	83 c3 01             	add    $0x1,%ebx
 80493c0:	89 74 24 18          	mov    %esi,0x18(%esp)
 80493c4:	89 5c 24 14          	mov    %ebx,0x14(%esp)
 80493c8:	8d 85 88 db ff ff    	lea    -0x2478(%ebp),%eax
 80493ce:	89 44 24 10          	mov    %eax,0x10(%esp)
 80493d2:	8b 0d a0 a1 04 08    	mov    0x804a1a0,%ecx
 80493d8:	89 4c 24 0c          	mov    %ecx,0xc(%esp)
 80493dc:	c7 44 24 08 c0 a1 04 	movl   $0x804a1c0,0x8(%esp)
 80493e3:	08 
 80493e4:	c7 44 24 04 ef 9b 04 	movl   $0x8049bef,0x4(%esp)
 80493eb:	08 
 80493ec:	8d 85 d8 db ff ff    	lea    -0x2428(%ebp),%eax
 80493f2:	89 04 24             	mov    %eax,(%esp)
 80493f5:	e8 d6 f3 ff ff       	call   80487d0 <sprintf@plt>
 80493fa:	89 7c 24 04          	mov    %edi,0x4(%esp)
 80493fe:	8d 8d d8 df ff ff    	lea    -0x2028(%ebp),%ecx
 8049404:	89 0c 24             	mov    %ecx,(%esp)
 8049407:	e8 74 f5 ff ff       	call   8048980 <strcat@plt>
 804940c:	83 c6 50             	add    $0x50,%esi
 804940f:	39 1d ec a5 04 08    	cmp    %ebx,0x804a5ec
 8049415:	7f a6                	jg     80493bd <send_msg+0x258>
 8049417:	8d 9d d8 df ff ff    	lea    -0x2028(%ebp),%ebx
 804941d:	be ff ff ff ff       	mov    $0xffffffff,%esi
 8049422:	89 df                	mov    %ebx,%edi
 8049424:	89 f1                	mov    %esi,%ecx
 8049426:	b8 00 00 00 00       	mov    $0x0,%eax
 804942b:	f2 ae                	repnz scas %es:(%edi),%al
 804942d:	f7 d1                	not    %ecx
 804942f:	83 e9 01             	sub    $0x1,%ecx
 8049432:	89 4c 24 08          	mov    %ecx,0x8(%esp)
 8049436:	89 5c 24 04          	mov    %ebx,0x4(%esp)
 804943a:	8b 8d 84 db ff ff    	mov    -0x247c(%ebp),%ecx
 8049440:	89 0c 24             	mov    %ecx,(%esp)
 8049443:	e8 ba fc ff ff       	call   8049102 <writen>
 8049448:	89 c2                	mov    %eax,%edx
 804944a:	89 df                	mov    %ebx,%edi
 804944c:	89 f1                	mov    %esi,%ecx
 804944e:	b8 00 00 00 00       	mov    $0x0,%eax
 8049453:	f2 ae                	repnz scas %es:(%edi),%al
 8049455:	89 ce                	mov    %ecx,%esi
 8049457:	f7 d6                	not    %esi
 8049459:	83 ee 01             	sub    $0x1,%esi
 804945c:	39 f2                	cmp    %esi,%edx
 804945e:	73 41                	jae    80494a1 <send_msg+0x33c>
 8049460:	c7 44 24 08 cf 9c 04 	movl   $0x8049ccf,0x8(%esp)
 8049467:	08 
 8049468:	c7 44 24 04 01 9a 04 	movl   $0x8049a01,0x4(%esp)
 804946f:	08 
 8049470:	8b 1d e0 a5 04 08    	mov    0x804a5e0,%ebx
 8049476:	89 1c 24             	mov    %ebx,(%esp)
 8049479:	e8 c2 f4 ff ff       	call   8048940 <fprintf@plt>
 804947e:	83 bd 84 db ff ff 00 	cmpl   $0x0,-0x247c(%ebp)
 8049485:	74 0e                	je     8049495 <send_msg+0x330>
 8049487:	8b 85 84 db ff ff    	mov    -0x247c(%ebp),%eax
 804948d:	89 04 24             	mov    %eax,(%esp)
 8049490:	e8 8b f4 ff ff       	call   8048920 <close@plt>
 8049495:	c7 04 24 01 00 00 00 	movl   $0x1,(%esp)
 804949c:	e8 1f f5 ff ff       	call   80489c0 <exit@plt>
 80494a1:	8b 8d 84 db ff ff    	mov    -0x247c(%ebp),%ecx
 80494a7:	89 0c 24             	mov    %ecx,(%esp)
 80494aa:	e8 71 f4 ff ff       	call   8048920 <close@plt>
 80494af:	81 c4 9c 24 00 00    	add    $0x249c,%esp
 80494b5:	5b                   	pop    %ebx
 80494b6:	5e                   	pop    %esi
 80494b7:	5f                   	pop    %edi
 80494b8:	5d                   	pop    %ebp
 80494b9:	c3                   	ret    

080494ba <phase_defused>:
 80494ba:	55                   	push   %ebp
 80494bb:	89 e5                	mov    %esp,%ebp
 80494bd:	53                   	push   %ebx
 80494be:	81 ec a4 00 00 00    	sub    $0xa4,%esp
 80494c4:	c7 04 24 01 00 00 00 	movl   $0x1,(%esp)
 80494cb:	e8 95 fc ff ff       	call   8049165 <send_msg>
 80494d0:	83 3d ec a5 04 08 03 	cmpl   $0x3,0x804a5ec
 80494d7:	0f 85 96 00 00 00    	jne    8049573 <phase_defused+0xb9>
 80494dd:	8d 45 a8             	lea    -0x58(%ebp),%eax
 80494e0:	89 44 24 20          	mov    %eax,0x20(%esp)
 80494e4:	8d 45 90             	lea    -0x70(%ebp),%eax
 80494e7:	89 44 24 1c          	mov    %eax,0x1c(%esp)
 80494eb:	8d 45 94             	lea    -0x6c(%ebp),%eax
 80494ee:	89 44 24 18          	mov    %eax,0x18(%esp)
 80494f2:	8d 45 98             	lea    -0x68(%ebp),%eax
 80494f5:	89 44 24 14          	mov    %eax,0x14(%esp)
 80494f9:	8d 45 9c             	lea    -0x64(%ebp),%eax
 80494fc:	89 44 24 10          	mov    %eax,0x10(%esp)
 8049500:	8d 45 a0             	lea    -0x60(%ebp),%eax
 8049503:	89 44 24 0c          	mov    %eax,0xc(%esp)
 8049507:	8d 45 a4             	lea    -0x5c(%ebp),%eax
 804950a:	89 44 24 08          	mov    %eax,0x8(%esp)
 804950e:	c7 44 24 04 e2 9c 04 	movl   $0x8049ce2,0x4(%esp)
 8049515:	08 
 8049516:	c7 04 24 50 a6 04 08 	movl   $0x804a650,(%esp)
 804951d:	e8 7e f4 ff ff       	call   80489a0 <sscanf@plt>
 8049522:	83 f8 07             	cmp    $0x7,%eax
 8049525:	75 34                	jne    804955b <phase_defused+0xa1>
 8049527:	c7 44 24 04 f7 9c 04 	movl   $0x8049cf7,0x4(%esp)
 804952e:	08 
 804952f:	8d 45 a8             	lea    -0x58(%ebp),%eax
 8049532:	89 04 24             	mov    %eax,(%esp)
 8049535:	e8 05 f9 ff ff       	call   8048e3f <strings_not_equal>
 804953a:	85 c0                	test   %eax,%eax
 804953c:	75 1d                	jne    804955b <phase_defused+0xa1>
 804953e:	c7 04 24 bc 9d 04 08 	movl   $0x8049dbc,(%esp)
 8049545:	e8 46 f4 ff ff       	call   8048990 <puts@plt>
 804954a:	c7 04 24 e4 9d 04 08 	movl   $0x8049de4,(%esp)
 8049551:	e8 3a f4 ff ff       	call   8048990 <puts@plt>
 8049556:	e8 35 f6 ff ff       	call   8048b90 <secret_phase>
 804955b:	c7 04 24 1c 9e 04 08 	movl   $0x8049e1c,(%esp)
 8049562:	e8 29 f4 ff ff       	call   8048990 <puts@plt>
 8049567:	c7 04 24 48 9e 04 08 	movl   $0x8049e48,(%esp)
 804956e:	e8 1d f4 ff ff       	call   8048990 <puts@plt>
 8049573:	81 c4 a4 00 00 00    	add    $0xa4,%esp
 8049579:	5b                   	pop    %ebx
 804957a:	5d                   	pop    %ebp
 804957b:	c3                   	ret    

0804957c <explode_bomb>:
 804957c:	55                   	push   %ebp
 804957d:	89 e5                	mov    %esp,%ebp
 804957f:	83 ec 18             	sub    $0x18,%esp
 8049582:	c7 04 24 fa 9c 04 08 	movl   $0x8049cfa,(%esp)
 8049589:	e8 02 f4 ff ff       	call   8048990 <puts@plt>
 804958e:	c7 04 24 03 9d 04 08 	movl   $0x8049d03,(%esp)
 8049595:	e8 f6 f3 ff ff       	call   8048990 <puts@plt>
 804959a:	c7 04 24 00 00 00 00 	movl   $0x0,(%esp)
 80495a1:	e8 bf fb ff ff       	call   8049165 <send_msg>
 80495a6:	c7 04 24 8c 9e 04 08 	movl   $0x8049e8c,(%esp)
 80495ad:	e8 de f3 ff ff       	call   8048990 <puts@plt>
 80495b2:	c7 04 24 08 00 00 00 	movl   $0x8,(%esp)
 80495b9:	e8 02 f4 ff ff       	call   80489c0 <exit@plt>

080495be <read_six_numbers>:
 80495be:	55                   	push   %ebp
 80495bf:	89 e5                	mov    %esp,%ebp
 80495c1:	53                   	push   %ebx
 80495c2:	83 ec 24             	sub    $0x24,%esp
 80495c5:	8b 45 0c             	mov    0xc(%ebp),%eax
 80495c8:	8d 50 14             	lea    0x14(%eax),%edx
 80495cb:	89 54 24 1c          	mov    %edx,0x1c(%esp)
 80495cf:	8d 50 10             	lea    0x10(%eax),%edx
 80495d2:	89 54 24 18          	mov    %edx,0x18(%esp)
 80495d6:	8d 50 0c             	lea    0xc(%eax),%edx
 80495d9:	89 54 24 14          	mov    %edx,0x14(%esp)
 80495dd:	8d 50 08             	lea    0x8(%eax),%edx
 80495e0:	89 54 24 10          	mov    %edx,0x10(%esp)
 80495e4:	8d 50 04             	lea    0x4(%eax),%edx
 80495e7:	89 54 24 0c          	mov    %edx,0xc(%esp)
 80495eb:	89 44 24 08          	mov    %eax,0x8(%esp)
 80495ef:	c7 44 24 04 1a 9d 04 	movl   $0x8049d1a,0x4(%esp)
 80495f6:	08 
 80495f7:	8b 45 08             	mov    0x8(%ebp),%eax
 80495fa:	89 04 24             	mov    %eax,(%esp)
 80495fd:	e8 9e f3 ff ff       	call   80489a0 <sscanf@plt>
 8049602:	83 f8 05             	cmp    $0x5,%eax
 8049605:	7f 05                	jg     804960c <read_six_numbers+0x4e>
 8049607:	e8 70 ff ff ff       	call   804957c <explode_bomb>
 804960c:	83 c4 24             	add    $0x24,%esp
 804960f:	5b                   	pop    %ebx
 8049610:	5d                   	pop    %ebp
 8049611:	8d b4 26 00 00 00 00 	lea    0x0(%esi,%eiz,1),%esi
 8049618:	c3                   	ret    

08049619 <blank_line>:
 8049619:	55                   	push   %ebp
 804961a:	89 e5                	mov    %esp,%ebp
 804961c:	56                   	push   %esi
 804961d:	53                   	push   %ebx
 804961e:	8b 75 08             	mov    0x8(%ebp),%esi
 8049621:	eb 1b                	jmp    804963e <blank_line+0x25>
 8049623:	e8 88 f2 ff ff       	call   80488b0 <__ctype_b_loc@plt>
 8049628:	0f be db             	movsbl %bl,%ebx
 804962b:	8b 00                	mov    (%eax),%eax
 804962d:	f6 44 58 01 20       	testb  $0x20,0x1(%eax,%ebx,2)
 8049632:	75 07                	jne    804963b <blank_line+0x22>
 8049634:	b8 00 00 00 00       	mov    $0x0,%eax
 8049639:	eb 0f                	jmp    804964a <blank_line+0x31>
 804963b:	83 c6 01             	add    $0x1,%esi
 804963e:	0f b6 1e             	movzbl (%esi),%ebx
 8049641:	84 db                	test   %bl,%bl
 8049643:	75 de                	jne    8049623 <blank_line+0xa>
 8049645:	b8 01 00 00 00       	mov    $0x1,%eax
 804964a:	5b                   	pop    %ebx
 804964b:	5e                   	pop    %esi
 804964c:	5d                   	pop    %ebp
 804964d:	c3                   	ret    

0804964e <skip>:
 804964e:	55                   	push   %ebp
 804964f:	89 e5                	mov    %esp,%ebp
 8049651:	53                   	push   %ebx
 8049652:	83 ec 14             	sub    $0x14,%esp
 8049655:	8b 1d f0 a5 04 08    	mov    0x804a5f0,%ebx
 804965b:	89 5c 24 08          	mov    %ebx,0x8(%esp)
 804965f:	c7 44 24 04 50 00 00 	movl   $0x50,0x4(%esp)
 8049666:	00 
 8049667:	8b 1d ec a5 04 08    	mov    0x804a5ec,%ebx
 804966d:	8d 04 9b             	lea    (%ebx,%ebx,4),%eax
 8049670:	c1 e0 04             	shl    $0x4,%eax
 8049673:	05 00 a6 04 08       	add    $0x804a600,%eax
 8049678:	89 04 24             	mov    %eax,(%esp)
 804967b:	e8 d0 f1 ff ff       	call   8048850 <fgets@plt>
 8049680:	89 c3                	mov    %eax,%ebx
 8049682:	85 c0                	test   %eax,%eax
 8049684:	74 0c                	je     8049692 <skip+0x44>
 8049686:	89 04 24             	mov    %eax,(%esp)
 8049689:	e8 8b ff ff ff       	call   8049619 <blank_line>
 804968e:	85 c0                	test   %eax,%eax
 8049690:	75 c3                	jne    8049655 <skip+0x7>
 8049692:	89 d8                	mov    %ebx,%eax
 8049694:	83 c4 14             	add    $0x14,%esp
 8049697:	5b                   	pop    %ebx
 8049698:	5d                   	pop    %ebp
 8049699:	c3                   	ret    

0804969a <read_line>:
 804969a:	55                   	push   %ebp
 804969b:	89 e5                	mov    %esp,%ebp
 804969d:	57                   	push   %edi
 804969e:	53                   	push   %ebx
 804969f:	83 ec 10             	sub    $0x10,%esp
 80496a2:	e8 a7 ff ff ff       	call   804964e <skip>
 80496a7:	85 c0                	test   %eax,%eax
 80496a9:	75 63                	jne    804970e <read_line+0x74>
 80496ab:	8b 1d f0 a5 04 08    	mov    0x804a5f0,%ebx
 80496b1:	3b 1d c0 a5 04 08    	cmp    0x804a5c0,%ebx
 80496b7:	75 13                	jne    80496cc <read_line+0x32>
 80496b9:	c7 04 24 2c 9d 04 08 	movl   $0x8049d2c,(%esp)
 80496c0:	e8 cb f2 ff ff       	call   8048990 <puts@plt>
 80496c5:	e8 b2 fe ff ff       	call   804957c <explode_bomb>
 80496ca:	eb 42                	jmp    804970e <read_line+0x74>
 80496cc:	c7 04 24 4a 9d 04 08 	movl   $0x8049d4a,(%esp)
 80496d3:	e8 48 f1 ff ff       	call   8048820 <getenv@plt>
 80496d8:	85 c0                	test   %eax,%eax
 80496da:	74 0c                	je     80496e8 <read_line+0x4e>
 80496dc:	c7 04 24 00 00 00 00 	movl   $0x0,(%esp)
 80496e3:	e8 d8 f2 ff ff       	call   80489c0 <exit@plt>
 80496e8:	8b 1d c0 a5 04 08    	mov    0x804a5c0,%ebx
 80496ee:	89 1d f0 a5 04 08    	mov    %ebx,0x804a5f0
 80496f4:	e8 55 ff ff ff       	call   804964e <skip>
 80496f9:	85 c0                	test   %eax,%eax
 80496fb:	75 11                	jne    804970e <read_line+0x74>
 80496fd:	c7 04 24 2c 9d 04 08 	movl   $0x8049d2c,(%esp)
 8049704:	e8 87 f2 ff ff       	call   8048990 <puts@plt>
 8049709:	e8 6e fe ff ff       	call   804957c <explode_bomb>
 804970e:	8b 1d ec a5 04 08    	mov    0x804a5ec,%ebx
 8049714:	8d 04 9b             	lea    (%ebx,%ebx,4),%eax
 8049717:	c1 e0 04             	shl    $0x4,%eax
 804971a:	8d b8 00 a6 04 08    	lea    0x804a600(%eax),%edi
 8049720:	b8 00 00 00 00       	mov    $0x0,%eax
 8049725:	b9 ff ff ff ff       	mov    $0xffffffff,%ecx
 804972a:	f2 ae                	repnz scas %es:(%edi),%al
 804972c:	f7 d1                	not    %ecx
 804972e:	8d 59 ff             	lea    -0x1(%ecx),%ebx
 8049731:	83 fb 4f             	cmp    $0x4f,%ebx
 8049734:	75 11                	jne    8049747 <read_line+0xad>
 8049736:	c7 04 24 55 9d 04 08 	movl   $0x8049d55,(%esp)
 804973d:	e8 4e f2 ff ff       	call   8048990 <puts@plt>
 8049742:	e8 35 fe ff ff       	call   804957c <explode_bomb>
 8049747:	8b 15 ec a5 04 08    	mov    0x804a5ec,%edx
 804974d:	8d 04 92             	lea    (%edx,%edx,4),%eax
 8049750:	c1 e0 04             	shl    $0x4,%eax
 8049753:	c6 84 03 ff a5 04 08 	movb   $0x0,0x804a5ff(%ebx,%eax,1)
 804975a:	00 
 804975b:	83 c2 01             	add    $0x1,%edx
 804975e:	89 15 ec a5 04 08    	mov    %edx,0x804a5ec
 8049764:	05 00 a6 04 08       	add    $0x804a600,%eax
 8049769:	83 c4 10             	add    $0x10,%esp
 804976c:	5b                   	pop    %ebx
 804976d:	5f                   	pop    %edi
 804976e:	5d                   	pop    %ebp
 804976f:	c3                   	ret    

08049770 <invalid_phase>:
 8049770:	55                   	push   %ebp
 8049771:	89 e5                	mov    %esp,%ebp
 8049773:	83 ec 18             	sub    $0x18,%esp
 8049776:	8b 45 08             	mov    0x8(%ebp),%eax
 8049779:	89 44 24 04          	mov    %eax,0x4(%esp)
 804977d:	c7 04 24 70 9d 04 08 	movl   $0x8049d70,(%esp)
 8049784:	e8 87 f1 ff ff       	call   8048910 <printf@plt>
 8049789:	c7 04 24 08 00 00 00 	movl   $0x8,(%esp)
 8049790:	e8 2b f2 ff ff       	call   80489c0 <exit@plt>

08049795 <sig_handler>:
 8049795:	55                   	push   %ebp
 8049796:	89 e5                	mov    %esp,%ebp
 8049798:	53                   	push   %ebx
 8049799:	83 ec 14             	sub    $0x14,%esp
 804979c:	c7 04 24 b0 9e 04 08 	movl   $0x8049eb0,(%esp)
 80497a3:	e8 e8 f1 ff ff       	call   8048990 <puts@plt>
 80497a8:	c7 04 24 03 00 00 00 	movl   $0x3,(%esp)
 80497af:	e8 bc f1 ff ff       	call   8048970 <sleep@plt>
 80497b4:	c7 04 24 81 9d 04 08 	movl   $0x8049d81,(%esp)
 80497bb:	e8 50 f1 ff ff       	call   8048910 <printf@plt>
 80497c0:	8b 1d e0 a5 04 08    	mov    0x804a5e0,%ebx
 80497c6:	89 1c 24             	mov    %ebx,(%esp)
 80497c9:	e8 c2 f0 ff ff       	call   8048890 <fflush@plt>
 80497ce:	c7 04 24 01 00 00 00 	movl   $0x1,(%esp)
 80497d5:	e8 96 f1 ff ff       	call   8048970 <sleep@plt>
 80497da:	c7 04 24 89 9d 04 08 	movl   $0x8049d89,(%esp)
 80497e1:	e8 aa f1 ff ff       	call   8048990 <puts@plt>
 80497e6:	c7 04 24 10 00 00 00 	movl   $0x10,(%esp)
 80497ed:	e8 ce f1 ff ff       	call   80489c0 <exit@plt>

080497f2 <open_clientfd>:
 80497f2:	55                   	push   %ebp
 80497f3:	89 e5                	mov    %esp,%ebp
 80497f5:	83 ec 38             	sub    $0x38,%esp
 80497f8:	89 5d f4             	mov    %ebx,-0xc(%ebp)
 80497fb:	89 75 f8             	mov    %esi,-0x8(%ebp)
 80497fe:	89 7d fc             	mov    %edi,-0x4(%ebp)
 8049801:	c7 44 24 08 00 00 00 	movl   $0x0,0x8(%esp)
 8049808:	00 
 8049809:	c7 44 24 04 01 00 00 	movl   $0x1,0x4(%esp)
 8049810:	00 
 8049811:	c7 04 24 02 00 00 00 	movl   $0x2,(%esp)
 8049818:	e8 83 f0 ff ff       	call   80488a0 <socket@plt>
 804981d:	89 c7                	mov    %eax,%edi
 804981f:	85 c0                	test   %eax,%eax
 8049821:	79 18                	jns    804983b <open_clientfd+0x49>
 8049823:	c7 04 24 91 9d 04 08 	movl   $0x8049d91,(%esp)
 804982a:	e8 61 f1 ff ff       	call   8048990 <puts@plt>
 804982f:	c7 04 24 08 00 00 00 	movl   $0x8,(%esp)
 8049836:	e8 85 f1 ff ff       	call   80489c0 <exit@plt>
 804983b:	8b 45 08             	mov    0x8(%ebp),%eax
 804983e:	89 04 24             	mov    %eax,(%esp)
 8049841:	e8 6a f1 ff ff       	call   80489b0 <gethostbyname@plt>
 8049846:	89 c3                	mov    %eax,%ebx
 8049848:	85 c0                	test   %eax,%eax
 804984a:	75 18                	jne    8049864 <open_clientfd+0x72>
 804984c:	c7 04 24 9f 9d 04 08 	movl   $0x8049d9f,(%esp)
 8049853:	e8 38 f1 ff ff       	call   8048990 <puts@plt>
 8049858:	c7 04 24 08 00 00 00 	movl   $0x8,(%esp)
 804985f:	e8 5c f1 ff ff       	call   80489c0 <exit@plt>
 8049864:	8d 75 d8             	lea    -0x28(%ebp),%esi
 8049867:	c7 06 00 00 00 00    	movl   $0x0,(%esi)
 804986d:	c7 46 04 00 00 00 00 	movl   $0x0,0x4(%esi)
 8049874:	c7 46 08 00 00 00 00 	movl   $0x0,0x8(%esi)
 804987b:	c7 46 0c 00 00 00 00 	movl   $0x0,0xc(%esi)
 8049882:	66 c7 45 d8 02 00    	movw   $0x2,-0x28(%ebp)
 8049888:	8b 40 0c             	mov    0xc(%eax),%eax
 804988b:	89 44 24 08          	mov    %eax,0x8(%esp)
 804988f:	8d 45 dc             	lea    -0x24(%ebp),%eax
 8049892:	89 44 24 04          	mov    %eax,0x4(%esp)
 8049896:	8b 43 10             	mov    0x10(%ebx),%eax
 8049899:	8b 00                	mov    (%eax),%eax
 804989b:	89 04 24             	mov    %eax,(%esp)
 804989e:	e8 2d f0 ff ff       	call   80488d0 <bcopy@plt>
 80498a3:	0f b7 5d 0c          	movzwl 0xc(%ebp),%ebx
 80498a7:	66 c1 cb 08          	ror    $0x8,%bx
 80498ab:	66 89 5d da          	mov    %bx,-0x26(%ebp)
 80498af:	c7 44 24 08 10 00 00 	movl   $0x10,0x8(%esp)
 80498b6:	00 
 80498b7:	89 74 24 04          	mov    %esi,0x4(%esp)
 80498bb:	89 3c 24             	mov    %edi,(%esp)
 80498be:	e8 1d ef ff ff       	call   80487e0 <connect@plt>
 80498c3:	85 c0                	test   %eax,%eax
 80498c5:	79 18                	jns    80498df <open_clientfd+0xed>
 80498c7:	c7 04 24 ad 9d 04 08 	movl   $0x8049dad,(%esp)
 80498ce:	e8 bd f0 ff ff       	call   8048990 <puts@plt>
 80498d3:	c7 04 24 08 00 00 00 	movl   $0x8,(%esp)
 80498da:	e8 e1 f0 ff ff       	call   80489c0 <exit@plt>
 80498df:	89 f8                	mov    %edi,%eax
 80498e1:	8b 5d f4             	mov    -0xc(%ebp),%ebx
 80498e4:	8b 75 f8             	mov    -0x8(%ebp),%esi
 80498e7:	8b 7d fc             	mov    -0x4(%ebp),%edi
 80498ea:	89 ec                	mov    %ebp,%esp
 80498ec:	5d                   	pop    %ebp
 80498ed:	c3                   	ret    

080498ee <initialize_bomb>:
 80498ee:	55                   	push   %ebp
 80498ef:	89 e5                	mov    %esp,%ebp
 80498f1:	83 ec 18             	sub    $0x18,%esp
 80498f4:	c7 44 24 04 95 97 04 	movl   $0x8049795,0x4(%esp)
 80498fb:	08 
 80498fc:	c7 04 24 02 00 00 00 	movl   $0x2,(%esp)
 8049903:	e8 e8 ee ff ff       	call   80487f0 <signal@plt>
 8049908:	c7 44 24 04 50 00 00 	movl   $0x50,0x4(%esp)
 804990f:	00 
 8049910:	c7 04 24 b2 9c 04 08 	movl   $0x8049cb2,(%esp)
 8049917:	e8 d6 fe ff ff       	call   80497f2 <open_clientfd>
 804991c:	89 04 24             	mov    %eax,(%esp)
 804991f:	e8 fc ef ff ff       	call   8048920 <close@plt>
 8049924:	c9                   	leave  
 8049925:	c3                   	ret    
 8049926:	90                   	nop
 8049927:	90                   	nop

08049928 <__libc_csu_fini>:
 8049928:	55                   	push   %ebp
 8049929:	89 e5                	mov    %esp,%ebp
 804992b:	5d                   	pop    %ebp
 804992c:	c3                   	ret    

0804992d <__libc_csu_init>:
 804992d:	55                   	push   %ebp
 804992e:	89 e5                	mov    %esp,%ebp
 8049930:	57                   	push   %edi
 8049931:	56                   	push   %esi
 8049932:	53                   	push   %ebx
 8049933:	83 ec 0c             	sub    $0xc,%esp
 8049936:	e8 4c 00 00 00       	call   8049987 <__i686.get_pc_thunk.bx>
 804993b:	81 c3 a5 07 00 00    	add    $0x7a5,%ebx
 8049941:	e8 3a ee ff ff       	call   8048780 <_init>
 8049946:	8d 83 20 ff ff ff    	lea    -0xe0(%ebx),%eax
 804994c:	8d 93 20 ff ff ff    	lea    -0xe0(%ebx),%edx
 8049952:	29 d0                	sub    %edx,%eax
 8049954:	89 c7                	mov    %eax,%edi
 8049956:	c1 ff 02             	sar    $0x2,%edi
 8049959:	74 24                	je     804997f <__libc_csu_init+0x52>
 804995b:	31 f6                	xor    %esi,%esi
 804995d:	8b 45 10             	mov    0x10(%ebp),%eax
 8049960:	89 44 24 08          	mov    %eax,0x8(%esp)
 8049964:	8b 45 0c             	mov    0xc(%ebp),%eax
 8049967:	89 44 24 04          	mov    %eax,0x4(%esp)
 804996b:	8b 45 08             	mov    0x8(%ebp),%eax
 804996e:	89 04 24             	mov    %eax,(%esp)
 8049971:	ff 94 b3 20 ff ff ff 	call   *-0xe0(%ebx,%esi,4)
 8049978:	83 c6 01             	add    $0x1,%esi
 804997b:	39 fe                	cmp    %edi,%esi
 804997d:	72 de                	jb     804995d <__libc_csu_init+0x30>
 804997f:	83 c4 0c             	add    $0xc,%esp
 8049982:	5b                   	pop    %ebx
 8049983:	5e                   	pop    %esi
 8049984:	5f                   	pop    %edi
 8049985:	5d                   	pop    %ebp
 8049986:	c3                   	ret    

08049987 <__i686.get_pc_thunk.bx>:
 8049987:	8b 1c 24             	mov    (%esp),%ebx
 804998a:	c3                   	ret    
 804998b:	90                   	nop
 804998c:	90                   	nop
 804998d:	90                   	nop
 804998e:	90                   	nop
 804998f:	90                   	nop

08049990 <__do_global_ctors_aux>:
 8049990:	55                   	push   %ebp
 8049991:	89 e5                	mov    %esp,%ebp
 8049993:	53                   	push   %ebx
 8049994:	83 ec 04             	sub    $0x4,%esp
 8049997:	a1 00 a0 04 08       	mov    0x804a000,%eax
 804999c:	83 f8 ff             	cmp    $0xffffffff,%eax
 804999f:	74 13                	je     80499b4 <__do_global_ctors_aux+0x24>
 80499a1:	bb 00 a0 04 08       	mov    $0x804a000,%ebx
 80499a6:	66 90                	xchg   %ax,%ax
 80499a8:	83 eb 04             	sub    $0x4,%ebx
 80499ab:	ff d0                	call   *%eax
 80499ad:	8b 03                	mov    (%ebx),%eax
 80499af:	83 f8 ff             	cmp    $0xffffffff,%eax
 80499b2:	75 f4                	jne    80499a8 <__do_global_ctors_aux+0x18>
 80499b4:	83 c4 04             	add    $0x4,%esp
 80499b7:	5b                   	pop    %ebx
 80499b8:	5d                   	pop    %ebp
 80499b9:	c3                   	ret    
 80499ba:	90                   	nop
 80499bb:	90                   	nop

Disassembly of section .fini:

080499bc <_fini>:
 80499bc:	55                   	push   %ebp
 80499bd:	89 e5                	mov    %esp,%ebp
 80499bf:	53                   	push   %ebx
 80499c0:	83 ec 04             	sub    $0x4,%esp
 80499c3:	e8 00 00 00 00       	call   80499c8 <_fini+0xc>
 80499c8:	5b                   	pop    %ebx
 80499c9:	81 c3 18 07 00 00    	add    $0x718,%ebx
 80499cf:	e8 2c f0 ff ff       	call   8048a00 <__do_global_dtors_aux>
 80499d4:	59                   	pop    %ecx
 80499d5:	5b                   	pop    %ebx
 80499d6:	c9                   	leave  
 80499d7:	c3                   	ret    
