
bomb:     file format elf32-i386


Disassembly of section .interp:

08048134 <.interp>:
 8048134:	2f                   	das    
 8048135:	6c                   	insb   (%dx),%es:(%edi)
 8048136:	69 62 2f 6c 64 2d 6c 	imul   $0x6c2d646c,0x2f(%edx),%esp
 804813d:	69 6e 75 78 2e 73 6f 	imul   $0x6f732e78,0x75(%esi),%ebp
 8048144:	2e 32 00             	xor    %cs:(%eax),%al

Disassembly of section .note.ABI-tag:

08048148 <.note.ABI-tag>:
 8048148:	04 00                	add    $0x0,%al
 804814a:	00 00                	add    %al,(%eax)
 804814c:	10 00                	adc    %al,(%eax)
 804814e:	00 00                	add    %al,(%eax)
 8048150:	01 00                	add    %eax,(%eax)
 8048152:	00 00                	add    %al,(%eax)
 8048154:	47                   	inc    %edi
 8048155:	4e                   	dec    %esi
 8048156:	55                   	push   %ebp
 8048157:	00 00                	add    %al,(%eax)
 8048159:	00 00                	add    %al,(%eax)
 804815b:	00 02                	add    %al,(%edx)
 804815d:	00 00                	add    %al,(%eax)
 804815f:	00 06                	add    %al,(%esi)
 8048161:	00 00                	add    %al,(%eax)
 8048163:	00 08                	add    %cl,(%eax)
 8048165:	00 00                	add    %al,(%eax)
	...

Disassembly of section .hash:

08048168 <.hash>:
 8048168:	25 00 00 00 26       	and    $0x26000000,%eax
 804816d:	00 00                	add    %al,(%eax)
 804816f:	00 24 00             	add    %ah,(%eax,%eax,1)
 8048172:	00 00                	add    %al,(%eax)
 8048174:	08 00                	or     %al,(%eax)
	...
 804817e:	00 00                	add    %al,(%eax)
 8048180:	14 00                	adc    $0x0,%al
	...
 804818e:	00 00                	add    %al,(%eax)
 8048190:	05 00 00 00 00       	add    $0x0,%eax
 8048195:	00 00                	add    %al,(%eax)
 8048197:	00 11                	add    %dl,(%ecx)
	...
 80481a5:	00 00                	add    %al,(%eax)
 80481a7:	00 1f                	add    %bl,(%edi)
 80481a9:	00 00                	add    %al,(%eax)
 80481ab:	00 1a                	add    %bl,(%edx)
 80481ad:	00 00                	add    %al,(%eax)
 80481af:	00 19                	add    %bl,(%ecx)
 80481b1:	00 00                	add    %al,(%eax)
 80481b3:	00 00                	add    %al,(%eax)
 80481b5:	00 00                	add    %al,(%eax)
 80481b7:	00 22                	add    %ah,(%edx)
 80481b9:	00 00                	add    %al,(%eax)
 80481bb:	00 15 00 00 00 0f    	add    %dl,0xf000000
 80481c1:	00 00                	add    %al,(%eax)
 80481c3:	00 23                	add    %ah,(%ebx)
 80481c5:	00 00                	add    %al,(%eax)
 80481c7:	00 00                	add    %al,(%eax)
 80481c9:	00 00                	add    %al,(%eax)
 80481cb:	00 06                	add    %al,(%esi)
	...
 80481d9:	00 00                	add    %al,(%eax)
 80481db:	00 10                	add    %dl,(%eax)
 80481dd:	00 00                	add    %al,(%eax)
 80481df:	00 1e                	add    %bl,(%esi)
 80481e1:	00 00                	add    %al,(%eax)
 80481e3:	00 25 00 00 00 00    	add    %ah,0x0
 80481e9:	00 00                	add    %al,(%eax)
 80481eb:	00 00                	add    %al,(%eax)
 80481ed:	00 00                	add    %al,(%eax)
 80481ef:	00 1d 00 00 00 1b    	add    %bl,0x1b000000
 80481f5:	00 00                	add    %al,(%eax)
 80481f7:	00 00                	add    %al,(%eax)
 80481f9:	00 00                	add    %al,(%eax)
 80481fb:	00 20                	add    %ah,(%eax)
	...
 804821d:	00 00                	add    %al,(%eax)
 804821f:	00 02                	add    %al,(%edx)
 8048221:	00 00                	add    %al,(%eax)
 8048223:	00 01                	add    %al,(%ecx)
 8048225:	00 00                	add    %al,(%eax)
 8048227:	00 04 00             	add    %al,(%eax,%eax,1)
	...
 8048232:	00 00                	add    %al,(%eax)
 8048234:	09 00                	or     %eax,(%eax)
	...
 8048246:	00 00                	add    %al,(%eax)
 8048248:	0a 00                	or     (%eax),%al
 804824a:	00 00                	add    %al,(%eax)
 804824c:	00 00                	add    %al,(%eax)
 804824e:	00 00                	add    %al,(%eax)
 8048250:	0e                   	push   %cs
 8048251:	00 00                	add    %al,(%eax)
 8048253:	00 00                	add    %al,(%eax)
 8048255:	00 00                	add    %al,(%eax)
 8048257:	00 07                	add    %al,(%edi)
 8048259:	00 00                	add    %al,(%eax)
 804825b:	00 0b                	add    %cl,(%ebx)
 804825d:	00 00                	add    %al,(%eax)
 804825f:	00 0d 00 00 00 13    	add    %cl,0x13000000
 8048265:	00 00                	add    %al,(%eax)
 8048267:	00 0c 00             	add    %cl,(%eax,%eax,1)
 804826a:	00 00                	add    %al,(%eax)
 804826c:	18 00                	sbb    %al,(%eax)
 804826e:	00 00                	add    %al,(%eax)
 8048270:	00 00                	add    %al,(%eax)
 8048272:	00 00                	add    %al,(%eax)
 8048274:	16                   	push   %ss
	...
 804827d:	00 00                	add    %al,(%eax)
 804827f:	00 1c 00             	add    %bl,(%eax,%eax,1)
	...
 804828a:	00 00                	add    %al,(%eax)
 804828c:	03 00                	add    (%eax),%eax
 804828e:	00 00                	add    %al,(%eax)
 8048290:	17                   	pop    %ss
 8048291:	00 00                	add    %al,(%eax)
 8048293:	00 12                	add    %dl,(%edx)
 8048295:	00 00                	add    %al,(%eax)
 8048297:	00 21                	add    %ah,(%ecx)
 8048299:	00 00                	add    %al,(%eax)
	...

Disassembly of section .dynsym:

0804829c <.dynsym>:
	...
 80482ac:	99                   	cltd   
 80482ad:	00 00                	add    %al,(%eax)
 80482af:	00 00                	add    %al,(%eax)
 80482b1:	00 00                	add    %al,(%eax)
 80482b3:	00 1d 00 00 00 12    	add    %bl,0x12000000
 80482b9:	00 00                	add    %al,(%eax)
 80482bb:	00 4b 00             	add    %cl,0x0(%ebx)
 80482be:	00 00                	add    %al,(%eax)
 80482c0:	00 00                	add    %al,(%eax)
 80482c2:	00 00                	add    %al,(%eax)
 80482c4:	31 00                	xor    %eax,(%eax)
 80482c6:	00 00                	add    %al,(%eax)
 80482c8:	12 00                	adc    (%eax),%al
 80482ca:	00 00                	add    %al,(%eax)
 80482cc:	59                   	pop    %ecx
 80482cd:	00 00                	add    %al,(%eax)
 80482cf:	00 00                	add    %al,(%eax)
 80482d1:	00 00                	add    %al,(%eax)
 80482d3:	00 6c 00 00          	add    %ch,0x0(%eax,%eax,1)
 80482d7:	00 12                	add    %dl,(%edx)
 80482d9:	00 00                	add    %al,(%eax)
 80482db:	00 61 00             	add    %ah,0x0(%ecx)
 80482de:	00 00                	add    %al,(%eax)
 80482e0:	00 00                	add    %al,(%eax)
 80482e2:	00 00                	add    %al,(%eax)
 80482e4:	de 00                	fiadd  (%eax)
 80482e6:	00 00                	add    %al,(%eax)
 80482e8:	12 00                	adc    (%eax),%al
 80482ea:	00 00                	add    %al,(%eax)
 80482ec:	01 00                	add    %eax,(%eax)
	...
 80482f6:	00 00                	add    %al,(%eax)
 80482f8:	20 00                	and    %al,(%eax)
 80482fa:	00 00                	add    %al,(%eax)
 80482fc:	7d 00                	jge    80482fe <_init-0x4fa>
 80482fe:	00 00                	add    %al,(%eax)
 8048300:	00 00                	add    %al,(%eax)
 8048302:	00 00                	add    %al,(%eax)
 8048304:	fa                   	cli    
 8048305:	00 00                	add    %al,(%eax)
 8048307:	00 12                	add    %dl,(%edx)
 8048309:	00 00                	add    %al,(%eax)
 804830b:	00 c5                	add    %al,%ch
 804830d:	00 00                	add    %al,(%eax)
 804830f:	00 00                	add    %al,(%eax)
 8048311:	00 00                	add    %al,(%eax)
 8048313:	00 f5                	add    %dh,%ch
 8048315:	00 00                	add    %al,(%eax)
 8048317:	00 12                	add    %dl,(%edx)
 8048319:	00 00                	add    %al,(%eax)
 804831b:	00 e1                	add    %ah,%cl
 804831d:	00 00                	add    %al,(%eax)
 804831f:	00 00                	add    %al,(%eax)
 8048321:	00 00                	add    %al,(%eax)
 8048323:	00 5c 00 00          	add    %bl,0x0(%eax,%eax,1)
 8048327:	00 12                	add    %dl,(%edx)
 8048329:	00 00                	add    %al,(%eax)
 804832b:	00 fb                	add    %bh,%bl
 804832d:	00 00                	add    %al,(%eax)
 804832f:	00 00                	add    %al,(%eax)
 8048331:	00 00                	add    %al,(%eax)
 8048333:	00 70 00             	add    %dh,0x0(%eax)
 8048336:	00 00                	add    %al,(%eax)
 8048338:	12 00                	adc    (%eax),%al
 804833a:	00 00                	add    %al,(%eax)
 804833c:	8b 00                	mov    (%eax),%eax
 804833e:	00 00                	add    %al,(%eax)
 8048340:	00 00                	add    %al,(%eax)
 8048342:	00 00                	add    %al,(%eax)
 8048344:	59                   	pop    %ecx
 8048345:	01 00                	add    %eax,(%eax)
 8048347:	00 12                	add    %dl,(%edx)
 8048349:	00 00                	add    %al,(%eax)
 804834b:	00 15 01 00 00 00    	add    %dl,0x1
 8048351:	00 00                	add    %al,(%eax)
 8048353:	00 b2 01 00 00 12    	add    %dh,0x12000001(%edx)
 8048359:	00 00                	add    %al,(%eax)
 804835b:	00 91 00 00 00 00    	add    %dl,0x0(%ecx)
 8048361:	00 00                	add    %al,(%eax)
 8048363:	00 a2 00 00 00 12    	add    %ah,0x12000000(%edx)
 8048369:	00 00                	add    %al,(%eax)
 804836b:	00 1a                	add    %bl,(%edx)
 804836d:	00 00                	add    %al,(%eax)
 804836f:	00 a4 9b 04 08 04 00 	add    %ah,0x40804(%ebx,%ebx,4)
 8048376:	00 00                	add    %al,(%eax)
 8048378:	11 00                	adc    %eax,(%eax)
 804837a:	0e                   	push   %cs
 804837b:	00 84 00 00 00 00 00 	add    %al,0x0(%eax,%eax,1)
 8048382:	00 00                	add    %al,(%eax)
 8048384:	46                   	inc    %esi
 8048385:	00 00                	add    %al,(%eax)
 8048387:	00 12                	add    %dl,(%edx)
 8048389:	00 00                	add    %al,(%eax)
 804838b:	00 73 00             	add    %dh,0x0(%ebx)
 804838e:	00 00                	add    %al,(%eax)
 8048390:	00 00                	add    %al,(%eax)
 8048392:	00 00                	add    %al,(%eax)
 8048394:	c3                   	ret    
 8048395:	03 00                	add    (%eax),%eax
 8048397:	00 12                	add    %dl,(%edx)
 8048399:	00 00                	add    %al,(%eax)
 804839b:	00 38                	add    %bh,(%eax)
 804839d:	00 00                	add    %al,(%eax)
 804839f:	00 00                	add    %al,(%eax)
 80483a1:	00 00                	add    %al,(%eax)
 80483a3:	00 f9                	add    %bh,%cl
 80483a5:	00 00                	add    %al,(%eax)
 80483a7:	00 12                	add    %dl,(%edx)
 80483a9:	00 00                	add    %al,(%eax)
 80483ab:	00 29                	add    %ch,(%ecx)
 80483ad:	00 00                	add    %al,(%eax)
 80483af:	00 00                	add    %al,(%eax)
 80483b1:	00 00                	add    %al,(%eax)
 80483b3:	00 37                	add    %dh,(%edi)
 80483b5:	00 00                	add    %al,(%eax)
 80483b7:	00 12                	add    %dl,(%edx)
 80483b9:	00 00                	add    %al,(%eax)
 80483bb:	00 cc                	add    %cl,%ah
 80483bd:	00 00                	add    %al,(%eax)
 80483bf:	00 00                	add    %al,(%eax)
 80483c1:	00 00                	add    %al,(%eax)
 80483c3:	00 3c 00             	add    %bh,(%eax,%eax,1)
 80483c6:	00 00                	add    %al,(%eax)
 80483c8:	12 00                	adc    (%eax),%al
 80483ca:	00 00                	add    %al,(%eax)
 80483cc:	b7 00                	mov    $0x0,%bh
 80483ce:	00 00                	add    %al,(%eax)
 80483d0:	00 00                	add    %al,(%eax)
 80483d2:	00 00                	add    %al,(%eax)
 80483d4:	fb                   	sti    
 80483d5:	01 00                	add    %eax,(%eax)
 80483d7:	00 12                	add    %dl,(%edx)
 80483d9:	00 00                	add    %al,(%eax)
 80483db:	00 01                	add    %al,(%ecx)
 80483dd:	01 00                	add    %eax,(%eax)
 80483df:	00 00                	add    %al,(%eax)
 80483e1:	00 00                	add    %al,(%eax)
 80483e3:	00 9b 00 00 00 12    	add    %bl,0x12000000(%ebx)
 80483e9:	00 00                	add    %al,(%eax)
 80483eb:	00 f6                	add    %dh,%dh
 80483ed:	00 00                	add    %al,(%eax)
 80483ef:	00 00                	add    %al,(%eax)
 80483f1:	00 00                	add    %al,(%eax)
 80483f3:	00 34 00             	add    %dh,(%eax,%eax,1)
 80483f6:	00 00                	add    %al,(%eax)
 80483f8:	12 00                	adc    (%eax),%al
 80483fa:	00 00                	add    %al,(%eax)
 80483fc:	53                   	push   %ebx
 80483fd:	00 00                	add    %al,(%eax)
 80483ff:	00 00                	add    %al,(%eax)
 8048401:	00 00                	add    %al,(%eax)
 8048403:	00 32                	add    %dh,(%edx)
 8048405:	00 00                	add    %al,(%eax)
 8048407:	00 12                	add    %dl,(%edx)
 8048409:	00 00                	add    %al,(%eax)
 804840b:	00 3f                	add    %bh,(%edi)
 804840d:	00 00                	add    %al,(%eax)
 804840f:	00 00                	add    %al,(%eax)
 8048411:	00 00                	add    %al,(%eax)
 8048413:	00 25 00 00 00 12    	add    %ah,0x12000000
 8048419:	00 00                	add    %al,(%eax)
 804841b:	00 08                	add    %cl,(%eax)
 804841d:	01 00                	add    %eax,(%eax)
 804841f:	00 00                	add    %al,(%eax)
 8048421:	00 00                	add    %al,(%eax)
 8048423:	00 36                	add    %dh,(%esi)
 8048425:	00 00                	add    %al,(%eax)
 8048427:	00 12                	add    %dl,(%edx)
 8048429:	00 00                	add    %al,(%eax)
 804842b:	00 b8 00 00 00 00    	add    %bh,0x0(%eax)
 8048431:	00 00                	add    %al,(%eax)
 8048433:	00 65 00             	add    %ah,0x0(%ebp)
 8048436:	00 00                	add    %al,(%eax)
 8048438:	12 00                	adc    (%eax),%al
 804843a:	00 00                	add    %al,(%eax)
 804843c:	fa                   	cli    
 804843d:	00 00                	add    %al,(%eax)
 804843f:	00 00                	add    %al,(%eax)
 8048441:	00 00                	add    %al,(%eax)
 8048443:	00 61 01             	add    %ah,0x1(%ecx)
 8048446:	00 00                	add    %al,(%eax)
 8048448:	12 00                	adc    (%eax),%al
 804844a:	00 00                	add    %al,(%eax)
 804844c:	07                   	pop    %es
 804844d:	01 00                	add    %eax,(%eax)
 804844f:	00 00                	add    %al,(%eax)
 8048451:	00 00                	add    %al,(%eax)
 8048453:	00 21                	add    %ah,(%ecx)
 8048455:	00 00                	add    %al,(%eax)
 8048457:	00 12                	add    %dl,(%edx)
 8048459:	00 00                	add    %al,(%eax)
 804845b:	00 30                	add    %dh,(%eax)
 804845d:	00 00                	add    %al,(%eax)
 804845f:	00 00                	add    %al,(%eax)
 8048461:	00 00                	add    %al,(%eax)
 8048463:	00 93 00 00 00 12    	add    %dl,0x12000000(%ebx)
 8048469:	00 00                	add    %al,(%eax)
 804846b:	00 b1 00 00 00 00    	add    %dh,0x0(%ecx)
 8048471:	00 00                	add    %al,(%eax)
 8048473:	00 fa                	add    %bh,%dl
 8048475:	00 00                	add    %al,(%eax)
 8048477:	00 12                	add    %dl,(%edx)
 8048479:	00 00                	add    %al,(%eax)
 804847b:	00 6d 00             	add    %ch,0x0(%ebp)
 804847e:	00 00                	add    %al,(%eax)
 8048480:	80 b8 04 08 04 00 00 	cmpb   $0x0,0x40804(%eax)
 8048487:	00 11                	add    %dl,(%ecx)
 8048489:	00 18                	add    %bl,(%eax)
 804848b:	00 0f                	add    %cl,(%edi)
 804848d:	01 00                	add    %eax,(%eax)
 804848f:	00 00                	add    %al,(%eax)
 8048491:	00 00                	add    %al,(%eax)
 8048493:	00 59 02             	add    %bl,0x2(%ecx)
 8048496:	00 00                	add    %al,(%eax)
 8048498:	12 00                	adc    (%eax),%al
 804849a:	00 00                	add    %al,(%eax)
 804849c:	be 00 00 00 00       	mov    $0x0,%esi
 80484a1:	00 00                	add    %al,(%eax)
 80484a3:	00 aa 01 00 00 12    	add    %ch,0x12000001(%edx)
 80484a9:	00 00                	add    %al,(%eax)
 80484ab:	00 aa 00 00 00 a0    	add    %ch,-0x60000000(%edx)
 80484b1:	b8 04 08 04 00       	mov    $0x40804,%eax
 80484b6:	00 00                	add    %al,(%eax)
 80484b8:	11 00                	adc    %eax,(%eax)
 80484ba:	18 00                	sbb    %al,(%eax)
 80484bc:	68 00 00 00 00       	push   $0x0
 80484c1:	00 00                	add    %al,(%eax)
 80484c3:	00 b4 01 00 00 12 00 	add    %dh,0x120000(%ecx,%eax,1)
 80484ca:	00 00                	add    %al,(%eax)
 80484cc:	da 00                	fiaddl (%eax)
 80484ce:	00 00                	add    %al,(%eax)
 80484d0:	00 00                	add    %al,(%eax)
 80484d2:	00 00                	add    %al,(%eax)
 80484d4:	31 00                	xor    %eax,(%eax)
 80484d6:	00 00                	add    %al,(%eax)
 80484d8:	12 00                	adc    (%eax),%al
 80484da:	00 00                	add    %al,(%eax)
 80484dc:	e8 00 00 00 00       	call   80484e1 <_init-0x317>
 80484e1:	00 00                	add    %al,(%eax)
 80484e3:	00 a8 01 00 00 12    	add    %ch,0x12000001(%eax)
 80484e9:	00 00                	add    %al,(%eax)
 80484eb:	00 46 00             	add    %al,0x0(%esi)
 80484ee:	00 00                	add    %al,(%eax)
 80484f0:	00 00                	add    %al,(%eax)
 80484f2:	00 00                	add    %al,(%eax)
 80484f4:	e5 00                	in     $0x0,%eax
 80484f6:	00 00                	add    %al,(%eax)
 80484f8:	12 00                	adc    (%eax),%al
	...

Disassembly of section .dynstr:

080484fc <.dynstr>:
 80484fc:	00 5f 5f             	add    %bl,0x5f(%edi)
 80484ff:	67 6d                	insl   (%dx),%es:(%di)
 8048501:	6f                   	outsl  %ds:(%esi),(%dx)
 8048502:	6e                   	outsb  %ds:(%esi),(%dx)
 8048503:	5f                   	pop    %edi
 8048504:	73 74                	jae    804857a <_init-0x27e>
 8048506:	61                   	popa   
 8048507:	72 74                	jb     804857d <_init-0x27b>
 8048509:	5f                   	pop    %edi
 804850a:	5f                   	pop    %edi
 804850b:	00 6c 69 62          	add    %ch,0x62(%ecx,%ebp,2)
 804850f:	63 2e                	arpl   %bp,(%esi)
 8048511:	73 6f                	jae    8048582 <_init-0x276>
 8048513:	2e 36 00 5f 49       	cs add %bl,%cs:%ss:0x49(%edi)
 8048518:	4f                   	dec    %edi
 8048519:	5f                   	pop    %edi
 804851a:	73 74                	jae    8048590 <_init-0x268>
 804851c:	64 69 6e 5f 75 73 65 	imul   $0x64657375,%fs:0x5f(%esi),%ebp
 8048523:	64 
 8048524:	00 73 6f             	add    %dh,0x6f(%ebx)
 8048527:	63 6b 65             	arpl   %bp,0x65(%ebx)
 804852a:	74 00                	je     804852c <_init-0x2cc>
 804852c:	63 75 73             	arpl   %si,0x73(%ebp)
 804852f:	65                   	gs
 8048530:	72 69                	jb     804859b <_init-0x25d>
 8048532:	64 00 66 66          	add    %ah,%fs:0x66(%esi)
 8048536:	6c                   	insb   (%dx),%es:(%edi)
 8048537:	75 73                	jne    80485ac <_init-0x24c>
 8048539:	68 00 73 74 72       	push   $0x72747300
 804853e:	63 70 79             	arpl   %si,0x79(%eax)
 8048541:	00 65 78             	add    %ah,0x78(%ebp)
 8048544:	69 74 00 73 70 72 69 	imul   $0x6e697270,0x73(%eax,%eax,1),%esi
 804854b:	6e 
 804854c:	74 66                	je     80485b4 <_init-0x244>
 804854e:	00 66 6f             	add    %ah,0x6f(%esi)
 8048551:	70 65                	jo     80485b8 <_init-0x240>
 8048553:	6e                   	outsb  %ds:(%esi),(%dx)
 8048554:	00 63 6f             	add    %ah,0x6f(%ebx)
 8048557:	6e                   	outsb  %ds:(%esi),(%dx)
 8048558:	6e                   	outsb  %ds:(%esi),(%dx)
 8048559:	65 63 74 00 73       	arpl   %si,%gs:0x73(%eax,%eax,1)
 804855e:	69 67 6e 61 6c 00 70 	imul   $0x70006c61,0x6e(%edi),%esp
 8048565:	75 74                	jne    80485db <_init-0x21d>
 8048567:	73 00                	jae    8048569 <_init-0x28f>
 8048569:	73 74                	jae    80485df <_init-0x219>
 804856b:	64 69 6e 00 69 6e 65 	imul   $0x74656e69,%fs:0x0(%esi),%ebp
 8048572:	74 
 8048573:	5f                   	pop    %edi
 8048574:	70 74                	jo     80485ea <_init-0x20e>
 8048576:	6f                   	outsl  %ds:(%esi),(%dx)
 8048577:	6e                   	outsb  %ds:(%esi),(%dx)
 8048578:	00 72 65             	add    %dh,0x65(%edx)
 804857b:	77 69                	ja     80485e6 <_init-0x212>
 804857d:	6e                   	outsb  %ds:(%esi),(%dx)
 804857e:	64 00 73 74          	add    %dh,%fs:0x74(%ebx)
 8048582:	72 74                	jb     80485f8 <_init-0x200>
 8048584:	6f                   	outsl  %ds:(%esi),(%dx)
 8048585:	6c                   	insb   (%dx),%es:(%edi)
 8048586:	00 66 67             	add    %ah,0x67(%esi)
 8048589:	65                   	gs
 804858a:	74 73                	je     80485ff <_init-0x1f9>
 804858c:	00 74 6d 70          	add    %dh,0x70(%ebp,%ebp,2)
 8048590:	66 69 6c 65 00 5f 5f 	imul   $0x5f5f,0x0(%ebp,%eiz,2),%bp
 8048597:	65                   	gs
 8048598:	72 72                	jb     804860c <_init-0x1ec>
 804859a:	6e                   	outsb  %ds:(%esi),(%dx)
 804859b:	6f                   	outsl  %ds:(%esi),(%dx)
 804859c:	5f                   	pop    %edi
 804859d:	6c                   	insb   (%dx),%es:(%edi)
 804859e:	6f                   	outsl  %ds:(%esi),(%dx)
 804859f:	63 61 74             	arpl   %sp,0x74(%ecx)
 80485a2:	69 6f 6e 00 73 74 64 	imul   $0x64747300,0x6e(%edi),%ebp
 80485a9:	6f                   	outsl  %ds:(%esi),(%dx)
 80485aa:	75 74                	jne    8048620 <_init-0x1d8>
 80485ac:	00 66 70             	add    %ah,0x70(%esi)
 80485af:	75 74                	jne    8048625 <_init-0x1d3>
 80485b1:	63 00                	arpl   %ax,(%eax)
 80485b3:	66                   	data16
 80485b4:	63 6c 6f 73          	arpl   %bp,0x73(%edi,%ebp,2)
 80485b8:	65 00 73 74          	add    %dh,%gs:0x74(%ebx)
 80485bc:	72 63                	jb     8048621 <_init-0x1d7>
 80485be:	61                   	popa   
 80485bf:	74 00                	je     80485c1 <_init-0x237>
 80485c1:	67                   	addr16
 80485c2:	65                   	gs
 80485c3:	74 65                	je     804862a <_init-0x1ce>
 80485c5:	6e                   	outsb  %ds:(%esi),(%dx)
 80485c6:	76 00                	jbe    80485c8 <_init-0x230>
 80485c8:	5f                   	pop    %edi
 80485c9:	5f                   	pop    %edi
 80485ca:	63 74 79 70          	arpl   %si,0x70(%ecx,%edi,2)
 80485ce:	65                   	gs
 80485cf:	5f                   	pop    %edi
 80485d0:	62 5f 6c             	bound  %ebx,0x6c(%edi)
 80485d3:	6f                   	outsl  %ds:(%esi),(%dx)
 80485d4:	63 00                	arpl   %ax,(%eax)
 80485d6:	73 73                	jae    804864b <_init-0x1ad>
 80485d8:	63 61 6e             	arpl   %sp,0x6e(%ecx)
 80485db:	66                   	data16
 80485dc:	00 73 79             	add    %dh,0x79(%ebx)
 80485df:	73 74                	jae    8048655 <_init-0x1a3>
 80485e1:	65                   	gs
 80485e2:	6d                   	insl   (%dx),%es:(%edi)
 80485e3:	00 67 65             	add    %ah,0x65(%edi)
 80485e6:	74 68                	je     8048650 <_init-0x1a8>
 80485e8:	6f                   	outsl  %ds:(%esi),(%dx)
 80485e9:	73 74                	jae    804865f <_init-0x199>
 80485eb:	62 79 6e             	bound  %edi,0x6e(%ecx)
 80485ee:	61                   	popa   
 80485ef:	6d                   	insl   (%dx),%es:(%edi)
 80485f0:	65 00 64 75 70       	add    %ah,%gs:0x70(%ebp,%esi,2)
 80485f5:	00 66 77             	add    %ah,0x77(%esi)
 80485f8:	72 69                	jb     8048663 <_init-0x195>
 80485fa:	74 65                	je     8048661 <_init-0x197>
 80485fc:	00 62 63             	add    %ah,0x63(%edx)
 80485ff:	6f                   	outsl  %ds:(%esi),(%dx)
 8048600:	70 79                	jo     804867b <_init-0x17d>
 8048602:	00 66 70             	add    %ah,0x70(%esi)
 8048605:	72 69                	jb     8048670 <_init-0x188>
 8048607:	6e                   	outsb  %ds:(%esi),(%dx)
 8048608:	74 66                	je     8048670 <_init-0x188>
 804860a:	00 73 6c             	add    %dh,0x6c(%ebx)
 804860d:	65                   	gs
 804860e:	65                   	gs
 804860f:	70 00                	jo     8048611 <_init-0x1e7>
 8048611:	5f                   	pop    %edi
 8048612:	5f                   	pop    %edi
 8048613:	6c                   	insb   (%dx),%es:(%edi)
 8048614:	69 62 63 5f 73 74 61 	imul   $0x6174735f,0x63(%edx),%esp
 804861b:	72 74                	jb     8048691 <_init-0x167>
 804861d:	5f                   	pop    %edi
 804861e:	6d                   	insl   (%dx),%es:(%edi)
 804861f:	61                   	popa   
 8048620:	69 6e 00 47 4c 49 42 	imul   $0x42494c47,0x0(%esi),%ebp
 8048627:	43                   	inc    %ebx
 8048628:	5f                   	pop    %edi
 8048629:	32 2e                	xor    (%esi),%ch
 804862b:	33 00                	xor    (%eax),%eax
 804862d:	47                   	inc    %edi
 804862e:	4c                   	dec    %esp
 804862f:	49                   	dec    %ecx
 8048630:	42                   	inc    %edx
 8048631:	43                   	inc    %ebx
 8048632:	5f                   	pop    %edi
 8048633:	32 2e                	xor    (%esi),%ch
 8048635:	31 00                	xor    %eax,(%eax)
 8048637:	47                   	inc    %edi
 8048638:	4c                   	dec    %esp
 8048639:	49                   	dec    %ecx
 804863a:	42                   	inc    %edx
 804863b:	43                   	inc    %ebx
 804863c:	5f                   	pop    %edi
 804863d:	32 2e                	xor    (%esi),%ch
 804863f:	30 00                	xor    %al,(%eax)

Disassembly of section .gnu.version:

08048642 <.gnu.version>:
 8048642:	00 00                	add    %al,(%eax)
 8048644:	02 00                	add    (%eax),%al
 8048646:	02 00                	add    (%eax),%al
 8048648:	02 00                	add    (%eax),%al
 804864a:	02 00                	add    (%eax),%al
 804864c:	00 00                	add    %al,(%eax)
 804864e:	02 00                	add    (%eax),%al
 8048650:	02 00                	add    (%eax),%al
 8048652:	02 00                	add    (%eax),%al
 8048654:	02 00                	add    (%eax),%al
 8048656:	02 00                	add    (%eax),%al
 8048658:	02 00                	add    (%eax),%al
 804865a:	03 00                	add    (%eax),%eax
 804865c:	01 00                	add    %eax,(%eax)
 804865e:	02 00                	add    (%eax),%al
 8048660:	02 00                	add    (%eax),%al
 8048662:	02 00                	add    (%eax),%al
 8048664:	02 00                	add    (%eax),%al
 8048666:	04 00                	add    $0x0,%al
 8048668:	03 00                	add    (%eax),%eax
 804866a:	02 00                	add    (%eax),%al
 804866c:	02 00                	add    (%eax),%al
 804866e:	03 00                	add    (%eax),%eax
 8048670:	02 00                	add    (%eax),%al
 8048672:	02 00                	add    (%eax),%al
 8048674:	02 00                	add    (%eax),%al
 8048676:	02 00                	add    (%eax),%al
 8048678:	02 00                	add    (%eax),%al
 804867a:	02 00                	add    (%eax),%al
 804867c:	02 00                	add    (%eax),%al
 804867e:	02 00                	add    (%eax),%al
 8048680:	02 00                	add    (%eax),%al
 8048682:	02 00                	add    (%eax),%al
 8048684:	02 00                	add    (%eax),%al
 8048686:	02 00                	add    (%eax),%al
 8048688:	02 00                	add    (%eax),%al
 804868a:	02 00                	add    (%eax),%al
 804868c:	02 00                	add    (%eax),%al

Disassembly of section .gnu.version_r:

08048690 <.gnu.version_r>:
 8048690:	01 00                	add    %eax,(%eax)
 8048692:	03 00                	add    (%eax),%eax
 8048694:	10 00                	adc    %al,(%eax)
 8048696:	00 00                	add    %al,(%eax)
 8048698:	10 00                	adc    %al,(%eax)
 804869a:	00 00                	add    %al,(%eax)
 804869c:	00 00                	add    %al,(%eax)
 804869e:	00 00                	add    %al,(%eax)
 80486a0:	13 69 69             	adc    0x69(%ecx),%ebp
 80486a3:	0d 00 00 04 00       	or     $0x40000,%eax
 80486a8:	27                   	daa    
 80486a9:	01 00                	add    %eax,(%eax)
 80486ab:	00 10                	add    %dl,(%eax)
 80486ad:	00 00                	add    %al,(%eax)
 80486af:	00 11                	add    %dl,(%ecx)
 80486b1:	69 69 0d 00 00 03 00 	imul   $0x30000,0xd(%ecx),%ebp
 80486b8:	31 01                	xor    %eax,(%ecx)
 80486ba:	00 00                	add    %al,(%eax)
 80486bc:	10 00                	adc    %al,(%eax)
 80486be:	00 00                	add    %al,(%eax)
 80486c0:	10 69 69             	adc    %ch,0x69(%ecx)
 80486c3:	0d 00 00 02 00       	or     $0x20000,%eax
 80486c8:	3b 01                	cmp    (%ecx),%eax
 80486ca:	00 00                	add    %al,(%eax)
 80486cc:	00 00                	add    %al,(%eax)
	...

Disassembly of section .rel.dyn:

080486d0 <.rel.dyn>:
 80486d0:	54                   	push   %esp
 80486d1:	b2 04                	mov    $0x4,%dl
 80486d3:	08 06                	or     %al,(%esi)
 80486d5:	05 00 00 80 b8       	add    $0xb8800000,%eax
 80486da:	04 08                	add    $0x8,%al
 80486dc:	05 1e 00 00 a0       	add    $0xa000001e,%eax
 80486e1:	b8 04 08 05 21       	mov    $0x21050804,%eax
	...

Disassembly of section .rel.plt:

080486e8 <.rel.plt>:
 80486e8:	64                   	fs
 80486e9:	b2 04                	mov    $0x4,%dl
 80486eb:	08 07                	or     %al,(%edi)
 80486ed:	01 00                	add    %eax,(%eax)
 80486ef:	00 68 b2             	add    %ch,-0x4e(%eax)
 80486f2:	04 08                	add    $0x8,%al
 80486f4:	07                   	pop    %es
 80486f5:	02 00                	add    (%eax),%al
 80486f7:	00 6c b2 04          	add    %ch,0x4(%edx,%esi,4)
 80486fb:	08 07                	or     %al,(%edi)
 80486fd:	03 00                	add    (%eax),%eax
 80486ff:	00 70 b2             	add    %dh,-0x4e(%eax)
 8048702:	04 08                	add    $0x8,%al
 8048704:	07                   	pop    %es
 8048705:	04 00                	add    $0x0,%al
 8048707:	00 74 b2 04          	add    %dh,0x4(%edx,%esi,4)
 804870b:	08 07                	or     %al,(%edi)
 804870d:	05 00 00 78 b2       	add    $0xb2780000,%eax
 8048712:	04 08                	add    $0x8,%al
 8048714:	07                   	pop    %es
 8048715:	06                   	push   %es
 8048716:	00 00                	add    %al,(%eax)
 8048718:	7c b2                	jl     80486cc <_init-0x12c>
 804871a:	04 08                	add    $0x8,%al
 804871c:	07                   	pop    %es
 804871d:	07                   	pop    %es
 804871e:	00 00                	add    %al,(%eax)
 8048720:	80 b2 04 08 07 08 00 	xorb   $0x0,0x8070804(%edx)
 8048727:	00 84 b2 04 08 07 09 	add    %al,0x9070804(%edx,%esi,4)
 804872e:	00 00                	add    %al,(%eax)
 8048730:	88 b2 04 08 07 0a    	mov    %dh,0xa070804(%edx)
 8048736:	00 00                	add    %al,(%eax)
 8048738:	8c b2 04 08 07 0b    	mov    %?,0xb070804(%edx)
 804873e:	00 00                	add    %al,(%eax)
 8048740:	90                   	nop
 8048741:	b2 04                	mov    $0x4,%dl
 8048743:	08 07                	or     %al,(%edi)
 8048745:	0c 00                	or     $0x0,%al
 8048747:	00 94 b2 04 08 07 0e 	add    %dl,0xe070804(%edx,%esi,4)
 804874e:	00 00                	add    %al,(%eax)
 8048750:	98                   	cwtl   
 8048751:	b2 04                	mov    $0x4,%dl
 8048753:	08 07                	or     %al,(%edi)
 8048755:	0f 00 00             	sldt   (%eax)
 8048758:	9c                   	pushf  
 8048759:	b2 04                	mov    $0x4,%dl
 804875b:	08 07                	or     %al,(%edi)
 804875d:	10 00                	adc    %al,(%eax)
 804875f:	00 a0 b2 04 08 07    	add    %ah,0x70804b2(%eax)
 8048765:	11 00                	adc    %eax,(%eax)
 8048767:	00 a4 b2 04 08 07 12 	add    %ah,0x12070804(%edx,%esi,4)
 804876e:	00 00                	add    %al,(%eax)
 8048770:	a8 b2                	test   $0xb2,%al
 8048772:	04 08                	add    $0x8,%al
 8048774:	07                   	pop    %es
 8048775:	13 00                	adc    (%eax),%eax
 8048777:	00 ac b2 04 08 07 14 	add    %ch,0x14070804(%edx,%esi,4)
 804877e:	00 00                	add    %al,(%eax)
 8048780:	b0 b2                	mov    $0xb2,%al
 8048782:	04 08                	add    $0x8,%al
 8048784:	07                   	pop    %es
 8048785:	15 00 00 b4 b2       	adc    $0xb2b40000,%eax
 804878a:	04 08                	add    $0x8,%al
 804878c:	07                   	pop    %es
 804878d:	16                   	push   %ss
 804878e:	00 00                	add    %al,(%eax)
 8048790:	b8 b2 04 08 07       	mov    $0x70804b2,%eax
 8048795:	17                   	pop    %ss
 8048796:	00 00                	add    %al,(%eax)
 8048798:	bc b2 04 08 07       	mov    $0x70804b2,%esp
 804879d:	18 00                	sbb    %al,(%eax)
 804879f:	00 c0                	add    %al,%al
 80487a1:	b2 04                	mov    $0x4,%dl
 80487a3:	08 07                	or     %al,(%edi)
 80487a5:	19 00                	sbb    %eax,(%eax)
 80487a7:	00 c4                	add    %al,%ah
 80487a9:	b2 04                	mov    $0x4,%dl
 80487ab:	08 07                	or     %al,(%edi)
 80487ad:	1a 00                	sbb    (%eax),%al
 80487af:	00 c8                	add    %cl,%al
 80487b1:	b2 04                	mov    $0x4,%dl
 80487b3:	08 07                	or     %al,(%edi)
 80487b5:	1b 00                	sbb    (%eax),%eax
 80487b7:	00 cc                	add    %cl,%ah
 80487b9:	b2 04                	mov    $0x4,%dl
 80487bb:	08 07                	or     %al,(%edi)
 80487bd:	1c 00                	sbb    $0x0,%al
 80487bf:	00 d0                	add    %dl,%al
 80487c1:	b2 04                	mov    $0x4,%dl
 80487c3:	08 07                	or     %al,(%edi)
 80487c5:	1d 00 00 d4 b2       	sbb    $0xb2d40000,%eax
 80487ca:	04 08                	add    $0x8,%al
 80487cc:	07                   	pop    %es
 80487cd:	1f                   	pop    %ds
 80487ce:	00 00                	add    %al,(%eax)
 80487d0:	d8 b2 04 08 07 20    	fdivs  0x20070804(%edx)
 80487d6:	00 00                	add    %al,(%eax)
 80487d8:	dc b2 04 08 07 22    	fdivl  0x22070804(%edx)
 80487de:	00 00                	add    %al,(%eax)
 80487e0:	e0 b2                	loopne 8048794 <_init-0x64>
 80487e2:	04 08                	add    $0x8,%al
 80487e4:	07                   	pop    %es
 80487e5:	23 00                	and    (%eax),%eax
 80487e7:	00 e4                	add    %ah,%ah
 80487e9:	b2 04                	mov    $0x4,%dl
 80487eb:	08 07                	or     %al,(%edi)
 80487ed:	24 00                	and    $0x0,%al
 80487ef:	00 e8                	add    %ch,%al
 80487f1:	b2 04                	mov    $0x4,%dl
 80487f3:	08 07                	or     %al,(%edi)
 80487f5:	25                   	.byte 0x25
	...

Disassembly of section .init:

080487f8 <_init>:
 80487f8:	55                   	push   %ebp
 80487f9:	89 e5                	mov    %esp,%ebp
 80487fb:	53                   	push   %ebx
 80487fc:	83 ec 04             	sub    $0x4,%esp
 80487ff:	e8 00 00 00 00       	call   8048804 <_init+0xc>
 8048804:	5b                   	pop    %ebx
 8048805:	81 c3 54 2a 00 00    	add    $0x2a54,%ebx
 804880b:	8b 93 fc ff ff ff    	mov    -0x4(%ebx),%edx
 8048811:	85 d2                	test   %edx,%edx
 8048813:	74 05                	je     804881a <_init+0x22>
 8048815:	e8 5e 00 00 00       	call   8048878 <__gmon_start__@plt>
 804881a:	e8 d1 02 00 00       	call   8048af0 <frame_dummy>
 804881f:	e8 1c 13 00 00       	call   8049b40 <__do_global_ctors_aux>
 8048824:	58                   	pop    %eax
 8048825:	5b                   	pop    %ebx
 8048826:	c9                   	leave  
 8048827:	c3                   	ret    

Disassembly of section .plt:

08048828 <__errno_location@plt-0x10>:
 8048828:	ff 35 5c b2 04 08    	pushl  0x804b25c
 804882e:	ff 25 60 b2 04 08    	jmp    *0x804b260
 8048834:	00 00                	add    %al,(%eax)
	...

08048838 <__errno_location@plt>:
 8048838:	ff 25 64 b2 04 08    	jmp    *0x804b264
 804883e:	68 00 00 00 00       	push   $0x0
 8048843:	e9 e0 ff ff ff       	jmp    8048828 <_init+0x30>

08048848 <sprintf@plt>:
 8048848:	ff 25 68 b2 04 08    	jmp    *0x804b268
 804884e:	68 08 00 00 00       	push   $0x8
 8048853:	e9 d0 ff ff ff       	jmp    8048828 <_init+0x30>

08048858 <connect@plt>:
 8048858:	ff 25 6c b2 04 08    	jmp    *0x804b26c
 804885e:	68 10 00 00 00       	push   $0x10
 8048863:	e9 c0 ff ff ff       	jmp    8048828 <_init+0x30>

08048868 <signal@plt>:
 8048868:	ff 25 70 b2 04 08    	jmp    *0x804b270
 804886e:	68 18 00 00 00       	push   $0x18
 8048873:	e9 b0 ff ff ff       	jmp    8048828 <_init+0x30>

08048878 <__gmon_start__@plt>:
 8048878:	ff 25 74 b2 04 08    	jmp    *0x804b274
 804887e:	68 20 00 00 00       	push   $0x20
 8048883:	e9 a0 ff ff ff       	jmp    8048828 <_init+0x30>

08048888 <rewind@plt>:
 8048888:	ff 25 78 b2 04 08    	jmp    *0x804b278
 804888e:	68 28 00 00 00       	push   $0x28
 8048893:	e9 90 ff ff ff       	jmp    8048828 <_init+0x30>

08048898 <getenv@plt>:
 8048898:	ff 25 7c b2 04 08    	jmp    *0x804b27c
 804889e:	68 30 00 00 00       	push   $0x30
 80488a3:	e9 80 ff ff ff       	jmp    8048828 <_init+0x30>

080488a8 <system@plt>:
 80488a8:	ff 25 80 b2 04 08    	jmp    *0x804b280
 80488ae:	68 38 00 00 00       	push   $0x38
 80488b3:	e9 70 ff ff ff       	jmp    8048828 <_init+0x30>

080488b8 <write@plt>:
 80488b8:	ff 25 84 b2 04 08    	jmp    *0x804b284
 80488be:	68 40 00 00 00       	push   $0x40
 80488c3:	e9 60 ff ff ff       	jmp    8048828 <_init+0x30>

080488c8 <fgets@plt>:
 80488c8:	ff 25 88 b2 04 08    	jmp    *0x804b288
 80488ce:	68 48 00 00 00       	push   $0x48
 80488d3:	e9 50 ff ff ff       	jmp    8048828 <_init+0x30>

080488d8 <__libc_start_main@plt>:
 80488d8:	ff 25 8c b2 04 08    	jmp    *0x804b28c
 80488de:	68 50 00 00 00       	push   $0x50
 80488e3:	e9 40 ff ff ff       	jmp    8048828 <_init+0x30>

080488e8 <tmpfile@plt>:
 80488e8:	ff 25 90 b2 04 08    	jmp    *0x804b290
 80488ee:	68 58 00 00 00       	push   $0x58
 80488f3:	e9 30 ff ff ff       	jmp    8048828 <_init+0x30>

080488f8 <strtol@plt>:
 80488f8:	ff 25 94 b2 04 08    	jmp    *0x804b294
 80488fe:	68 60 00 00 00       	push   $0x60
 8048903:	e9 20 ff ff ff       	jmp    8048828 <_init+0x30>

08048908 <inet_pton@plt>:
 8048908:	ff 25 98 b2 04 08    	jmp    *0x804b298
 804890e:	68 68 00 00 00       	push   $0x68
 8048913:	e9 10 ff ff ff       	jmp    8048828 <_init+0x30>

08048918 <fflush@plt>:
 8048918:	ff 25 9c b2 04 08    	jmp    *0x804b29c
 804891e:	68 70 00 00 00       	push   $0x70
 8048923:	e9 00 ff ff ff       	jmp    8048828 <_init+0x30>

08048928 <socket@plt>:
 8048928:	ff 25 a0 b2 04 08    	jmp    *0x804b2a0
 804892e:	68 78 00 00 00       	push   $0x78
 8048933:	e9 f0 fe ff ff       	jmp    8048828 <_init+0x30>

08048938 <__ctype_b_loc@plt>:
 8048938:	ff 25 a4 b2 04 08    	jmp    *0x804b2a4
 804893e:	68 80 00 00 00       	push   $0x80
 8048943:	e9 e0 fe ff ff       	jmp    8048828 <_init+0x30>

08048948 <fclose@plt>:
 8048948:	ff 25 a8 b2 04 08    	jmp    *0x804b2a8
 804894e:	68 88 00 00 00       	push   $0x88
 8048953:	e9 d0 fe ff ff       	jmp    8048828 <_init+0x30>

08048958 <bcopy@plt>:
 8048958:	ff 25 ac b2 04 08    	jmp    *0x804b2ac
 804895e:	68 90 00 00 00       	push   $0x90
 8048963:	e9 c0 fe ff ff       	jmp    8048828 <_init+0x30>

08048968 <dup@plt>:
 8048968:	ff 25 b0 b2 04 08    	jmp    *0x804b2b0
 804896e:	68 98 00 00 00       	push   $0x98
 8048973:	e9 b0 fe ff ff       	jmp    8048828 <_init+0x30>

08048978 <fopen@plt>:
 8048978:	ff 25 b4 b2 04 08    	jmp    *0x804b2b4
 804897e:	68 a0 00 00 00       	push   $0xa0
 8048983:	e9 a0 fe ff ff       	jmp    8048828 <_init+0x30>

08048988 <strcpy@plt>:
 8048988:	ff 25 b8 b2 04 08    	jmp    *0x804b2b8
 804898e:	68 a8 00 00 00       	push   $0xa8
 8048993:	e9 90 fe ff ff       	jmp    8048828 <_init+0x30>

08048998 <printf@plt>:
 8048998:	ff 25 bc b2 04 08    	jmp    *0x804b2bc
 804899e:	68 b0 00 00 00       	push   $0xb0
 80489a3:	e9 80 fe ff ff       	jmp    8048828 <_init+0x30>

080489a8 <close@plt>:
 80489a8:	ff 25 c0 b2 04 08    	jmp    *0x804b2c0
 80489ae:	68 b8 00 00 00       	push   $0xb8
 80489b3:	e9 70 fe ff ff       	jmp    8048828 <_init+0x30>

080489b8 <fwrite@plt>:
 80489b8:	ff 25 c4 b2 04 08    	jmp    *0x804b2c4
 80489be:	68 c0 00 00 00       	push   $0xc0
 80489c3:	e9 60 fe ff ff       	jmp    8048828 <_init+0x30>

080489c8 <fprintf@plt>:
 80489c8:	ff 25 c8 b2 04 08    	jmp    *0x804b2c8
 80489ce:	68 c8 00 00 00       	push   $0xc8
 80489d3:	e9 50 fe ff ff       	jmp    8048828 <_init+0x30>

080489d8 <cuserid@plt>:
 80489d8:	ff 25 cc b2 04 08    	jmp    *0x804b2cc
 80489de:	68 d0 00 00 00       	push   $0xd0
 80489e3:	e9 40 fe ff ff       	jmp    8048828 <_init+0x30>

080489e8 <fputc@plt>:
 80489e8:	ff 25 d0 b2 04 08    	jmp    *0x804b2d0
 80489ee:	68 d8 00 00 00       	push   $0xd8
 80489f3:	e9 30 fe ff ff       	jmp    8048828 <_init+0x30>

080489f8 <sleep@plt>:
 80489f8:	ff 25 d4 b2 04 08    	jmp    *0x804b2d4
 80489fe:	68 e0 00 00 00       	push   $0xe0
 8048a03:	e9 20 fe ff ff       	jmp    8048828 <_init+0x30>

08048a08 <strcat@plt>:
 8048a08:	ff 25 d8 b2 04 08    	jmp    *0x804b2d8
 8048a0e:	68 e8 00 00 00       	push   $0xe8
 8048a13:	e9 10 fe ff ff       	jmp    8048828 <_init+0x30>

08048a18 <puts@plt>:
 8048a18:	ff 25 dc b2 04 08    	jmp    *0x804b2dc
 8048a1e:	68 f0 00 00 00       	push   $0xf0
 8048a23:	e9 00 fe ff ff       	jmp    8048828 <_init+0x30>

08048a28 <sscanf@plt>:
 8048a28:	ff 25 e0 b2 04 08    	jmp    *0x804b2e0
 8048a2e:	68 f8 00 00 00       	push   $0xf8
 8048a33:	e9 f0 fd ff ff       	jmp    8048828 <_init+0x30>

08048a38 <gethostbyname@plt>:
 8048a38:	ff 25 e4 b2 04 08    	jmp    *0x804b2e4
 8048a3e:	68 00 01 00 00       	push   $0x100
 8048a43:	e9 e0 fd ff ff       	jmp    8048828 <_init+0x30>

08048a48 <exit@plt>:
 8048a48:	ff 25 e8 b2 04 08    	jmp    *0x804b2e8
 8048a4e:	68 08 01 00 00       	push   $0x108
 8048a53:	e9 d0 fd ff ff       	jmp    8048828 <_init+0x30>

Disassembly of section .text:

08048a60 <_start>:
 8048a60:	31 ed                	xor    %ebp,%ebp
 8048a62:	5e                   	pop    %esi
 8048a63:	89 e1                	mov    %esp,%ecx
 8048a65:	83 e4 f0             	and    $0xfffffff0,%esp
 8048a68:	50                   	push   %eax
 8048a69:	54                   	push   %esp
 8048a6a:	52                   	push   %edx
 8048a6b:	68 d8 9a 04 08       	push   $0x8049ad8
 8048a70:	68 dd 9a 04 08       	push   $0x8049add
 8048a75:	51                   	push   %ecx
 8048a76:	56                   	push   %esi
 8048a77:	68 14 8b 04 08       	push   $0x8048b14
 8048a7c:	e8 57 fe ff ff       	call   80488d8 <__libc_start_main@plt>
 8048a81:	f4                   	hlt    
 8048a82:	90                   	nop
 8048a83:	90                   	nop
 8048a84:	90                   	nop
 8048a85:	90                   	nop
 8048a86:	90                   	nop
 8048a87:	90                   	nop
 8048a88:	90                   	nop
 8048a89:	90                   	nop
 8048a8a:	90                   	nop
 8048a8b:	90                   	nop
 8048a8c:	90                   	nop
 8048a8d:	90                   	nop
 8048a8e:	90                   	nop
 8048a8f:	90                   	nop

08048a90 <__do_global_dtors_aux>:
 8048a90:	55                   	push   %ebp
 8048a91:	89 e5                	mov    %esp,%ebp
 8048a93:	53                   	push   %ebx
 8048a94:	83 ec 04             	sub    $0x4,%esp
 8048a97:	80 3d a4 b8 04 08 00 	cmpb   $0x0,0x804b8a4
 8048a9e:	75 3f                	jne    8048adf <__do_global_dtors_aux+0x4f>
 8048aa0:	a1 a8 b8 04 08       	mov    0x804b8a8,%eax
 8048aa5:	bb 84 b1 04 08       	mov    $0x804b184,%ebx
 8048aaa:	81 eb 80 b1 04 08    	sub    $0x804b180,%ebx
 8048ab0:	c1 fb 02             	sar    $0x2,%ebx
 8048ab3:	83 eb 01             	sub    $0x1,%ebx
 8048ab6:	39 d8                	cmp    %ebx,%eax
 8048ab8:	73 1e                	jae    8048ad8 <__do_global_dtors_aux+0x48>
 8048aba:	8d b6 00 00 00 00    	lea    0x0(%esi),%esi
 8048ac0:	83 c0 01             	add    $0x1,%eax
 8048ac3:	a3 a8 b8 04 08       	mov    %eax,0x804b8a8
 8048ac8:	ff 14 85 80 b1 04 08 	call   *0x804b180(,%eax,4)
 8048acf:	a1 a8 b8 04 08       	mov    0x804b8a8,%eax
 8048ad4:	39 d8                	cmp    %ebx,%eax
 8048ad6:	72 e8                	jb     8048ac0 <__do_global_dtors_aux+0x30>
 8048ad8:	c6 05 a4 b8 04 08 01 	movb   $0x1,0x804b8a4
 8048adf:	83 c4 04             	add    $0x4,%esp
 8048ae2:	5b                   	pop    %ebx
 8048ae3:	5d                   	pop    %ebp
 8048ae4:	c3                   	ret    
 8048ae5:	8d 74 26 00          	lea    0x0(%esi,%eiz,1),%esi
 8048ae9:	8d bc 27 00 00 00 00 	lea    0x0(%edi,%eiz,1),%edi

08048af0 <frame_dummy>:
 8048af0:	55                   	push   %ebp
 8048af1:	89 e5                	mov    %esp,%ebp
 8048af3:	83 ec 18             	sub    $0x18,%esp
 8048af6:	a1 88 b1 04 08       	mov    0x804b188,%eax
 8048afb:	85 c0                	test   %eax,%eax
 8048afd:	74 12                	je     8048b11 <frame_dummy+0x21>
 8048aff:	b8 00 00 00 00       	mov    $0x0,%eax
 8048b04:	85 c0                	test   %eax,%eax
 8048b06:	74 09                	je     8048b11 <frame_dummy+0x21>
 8048b08:	c7 04 24 88 b1 04 08 	movl   $0x804b188,(%esp)
 8048b0f:	ff d0                	call   *%eax
 8048b11:	c9                   	leave  
 8048b12:	c3                   	ret    
 8048b13:	90                   	nop

08048b14 <main>:
 8048b14:	55                   	push   %ebp
 8048b15:	89 e5                	mov    %esp,%ebp
 8048b17:	83 e4 f0             	and    $0xfffffff0,%esp
 8048b1a:	56                   	push   %esi
 8048b1b:	53                   	push   %ebx
 8048b1c:	83 ec 18             	sub    $0x18,%esp
 8048b1f:	8b 45 08             	mov    0x8(%ebp),%eax
 8048b22:	8b 75 0c             	mov    0xc(%ebp),%esi
 8048b25:	83 f8 01             	cmp    $0x1,%eax
 8048b28:	75 0e                	jne    8048b38 <main+0x24>
 8048b2a:	8b 1d 80 b8 04 08    	mov    0x804b880,%ebx
 8048b30:	89 1d b0 b8 04 08    	mov    %ebx,0x804b8b0
 8048b36:	eb 65                	jmp    8048b9d <main+0x89>
 8048b38:	83 f8 02             	cmp    $0x2,%eax
 8048b3b:	75 42                	jne    8048b7f <main+0x6b>
 8048b3d:	8d 5e 04             	lea    0x4(%esi),%ebx
 8048b40:	c7 44 24 04 b2 9d 04 	movl   $0x8049db2,0x4(%esp)
 8048b47:	08 
 8048b48:	8b 03                	mov    (%ebx),%eax
 8048b4a:	89 04 24             	mov    %eax,(%esp)
 8048b4d:	e8 26 fe ff ff       	call   8048978 <fopen@plt>
 8048b52:	a3 b0 b8 04 08       	mov    %eax,0x804b8b0
 8048b57:	85 c0                	test   %eax,%eax
 8048b59:	75 42                	jne    8048b9d <main+0x89>
 8048b5b:	8b 03                	mov    (%ebx),%eax
 8048b5d:	89 44 24 08          	mov    %eax,0x8(%esp)
 8048b61:	8b 06                	mov    (%esi),%eax
 8048b63:	89 44 24 04          	mov    %eax,0x4(%esp)
 8048b67:	c7 04 24 a8 9b 04 08 	movl   $0x8049ba8,(%esp)
 8048b6e:	e8 25 fe ff ff       	call   8048998 <printf@plt>
 8048b73:	c7 04 24 08 00 00 00 	movl   $0x8,(%esp)
 8048b7a:	e8 c9 fe ff ff       	call   8048a48 <exit@plt>
 8048b7f:	8b 06                	mov    (%esi),%eax
 8048b81:	89 44 24 04          	mov    %eax,0x4(%esp)
 8048b85:	c7 04 24 c5 9b 04 08 	movl   $0x8049bc5,(%esp)
 8048b8c:	e8 07 fe ff ff       	call   8048998 <printf@plt>
 8048b91:	c7 04 24 08 00 00 00 	movl   $0x8,(%esp)
 8048b98:	e8 ab fe ff ff       	call   8048a48 <exit@plt>
 8048b9d:	e8 fc 0e 00 00       	call   8049a9e <initialize_bomb>
 8048ba2:	c7 04 24 2c 9c 04 08 	movl   $0x8049c2c,(%esp)
 8048ba9:	e8 6a fe ff ff       	call   8048a18 <puts@plt>
 8048bae:	c7 04 24 68 9c 04 08 	movl   $0x8049c68,(%esp)
 8048bb5:	e8 5e fe ff ff       	call   8048a18 <puts@plt>
 8048bba:	e8 8b 0c 00 00       	call   804984a <read_line>
 8048bbf:	89 04 24             	mov    %eax,(%esp)
 8048bc2:	e8 03 04 00 00       	call   8048fca <phase_1>
 8048bc7:	e8 ce 0a 00 00       	call   804969a <phase_defused>
 8048bcc:	c7 04 24 94 9c 04 08 	movl   $0x8049c94,(%esp)
 8048bd3:	e8 40 fe ff ff       	call   8048a18 <puts@plt>
 8048bd8:	e8 6d 0c 00 00       	call   804984a <read_line>
 8048bdd:	89 04 24             	mov    %eax,(%esp)
 8048be0:	e8 a8 03 00 00       	call   8048f8d <phase_2>
 8048be5:	e8 b0 0a 00 00       	call   804969a <phase_defused>
 8048bea:	c7 04 24 df 9b 04 08 	movl   $0x8049bdf,(%esp)
 8048bf1:	e8 22 fe ff ff       	call   8048a18 <puts@plt>
 8048bf6:	e8 4f 0c 00 00       	call   804984a <read_line>
 8048bfb:	89 04 24             	mov    %eax,(%esp)
 8048bfe:	e8 de 02 00 00       	call   8048ee1 <phase_3>
 8048c03:	e8 92 0a 00 00       	call   804969a <phase_defused>
 8048c08:	c7 04 24 fd 9b 04 08 	movl   $0x8049bfd,(%esp)
 8048c0f:	e8 04 fe ff ff       	call   8048a18 <puts@plt>
 8048c14:	e8 31 0c 00 00       	call   804984a <read_line>
 8048c19:	89 04 24             	mov    %eax,(%esp)
 8048c1c:	e8 68 02 00 00       	call   8048e89 <phase_4>
 8048c21:	e8 74 0a 00 00       	call   804969a <phase_defused>
 8048c26:	c7 04 24 c0 9c 04 08 	movl   $0x8049cc0,(%esp)
 8048c2d:	e8 e6 fd ff ff       	call   8048a18 <puts@plt>
 8048c32:	e8 13 0c 00 00       	call   804984a <read_line>
 8048c37:	89 04 24             	mov    %eax,(%esp)
 8048c3a:	e8 cb 01 00 00       	call   8048e0a <phase_5>
 8048c3f:	e8 56 0a 00 00       	call   804969a <phase_defused>
 8048c44:	c7 04 24 0c 9c 04 08 	movl   $0x8049c0c,(%esp)
 8048c4b:	e8 c8 fd ff ff       	call   8048a18 <puts@plt>
 8048c50:	e8 f5 0b 00 00       	call   804984a <read_line>
 8048c55:	89 04 24             	mov    %eax,(%esp)
 8048c58:	e8 5f 01 00 00       	call   8048dbc <phase_6>
 8048c5d:	e8 38 0a 00 00       	call   804969a <phase_defused>
 8048c62:	b8 00 00 00 00       	mov    $0x0,%eax
 8048c67:	83 c4 18             	add    $0x18,%esp
 8048c6a:	5b                   	pop    %ebx
 8048c6b:	5e                   	pop    %esi
 8048c6c:	89 ec                	mov    %ebp,%esp
 8048c6e:	5d                   	pop    %ebp
 8048c6f:	c3                   	ret    

08048c70 <func4>:
 8048c70:	55                   	push   %ebp
 8048c71:	89 e5                	mov    %esp,%ebp
 8048c73:	83 ec 18             	sub    $0x18,%esp
 8048c76:	8b 55 08             	mov    0x8(%ebp),%edx
 8048c79:	b8 01 00 00 00       	mov    $0x1,%eax
 8048c7e:	85 d2                	test   %edx,%edx
 8048c80:	7e 16                	jle    8048c98 <func4+0x28>
 8048c82:	83 ea 01             	sub    $0x1,%edx
 8048c85:	89 14 24             	mov    %edx,(%esp)
 8048c88:	e8 e3 ff ff ff       	call   8048c70 <func4>
 8048c8d:	8d 14 c5 00 00 00 00 	lea    0x0(,%eax,8),%edx
 8048c94:	29 c2                	sub    %eax,%edx
 8048c96:	89 d0                	mov    %edx,%eax
 8048c98:	c9                   	leave  
 8048c99:	c3                   	ret    

08048c9a <fun6>:
 8048c9a:	55                   	push   %ebp
 8048c9b:	89 e5                	mov    %esp,%ebp
 8048c9d:	57                   	push   %edi
 8048c9e:	56                   	push   %esi
 8048c9f:	53                   	push   %ebx
 8048ca0:	83 ec 04             	sub    $0x4,%esp
 8048ca3:	8b 45 08             	mov    0x8(%ebp),%eax
 8048ca6:	8b 78 08             	mov    0x8(%eax),%edi
 8048ca9:	c7 40 08 00 00 00 00 	movl   $0x0,0x8(%eax)
 8048cb0:	89 45 f0             	mov    %eax,-0x10(%ebp)
 8048cb3:	89 c3                	mov    %eax,%ebx
 8048cb5:	89 c6                	mov    %eax,%esi
 8048cb7:	85 ff                	test   %edi,%edi
 8048cb9:	75 33                	jne    8048cee <fun6+0x54>
 8048cbb:	eb 3d                	jmp    8048cfa <fun6+0x60>
 8048cbd:	89 de                	mov    %ebx,%esi
 8048cbf:	8b 5b 08             	mov    0x8(%ebx),%ebx
 8048cc2:	85 db                	test   %ebx,%ebx
 8048cc4:	74 04                	je     8048cca <fun6+0x30>
 8048cc6:	39 03                	cmp    %eax,(%ebx)
 8048cc8:	7f f3                	jg     8048cbd <fun6+0x23>
 8048cca:	39 de                	cmp    %ebx,%esi
 8048ccc:	75 0c                	jne    8048cda <fun6+0x40>
 8048cce:	89 7d f0             	mov    %edi,-0x10(%ebp)
 8048cd1:	8d b4 26 00 00 00 00 	lea    0x0(%esi,%eiz,1),%esi
 8048cd8:	eb 03                	jmp    8048cdd <fun6+0x43>
 8048cda:	89 7e 08             	mov    %edi,0x8(%esi)
 8048cdd:	8b 77 08             	mov    0x8(%edi),%esi
 8048ce0:	89 5f 08             	mov    %ebx,0x8(%edi)
 8048ce3:	85 f6                	test   %esi,%esi
 8048ce5:	74 13                	je     8048cfa <fun6+0x60>
 8048ce7:	89 f7                	mov    %esi,%edi
 8048ce9:	8b 5d f0             	mov    -0x10(%ebp),%ebx
 8048cec:	89 de                	mov    %ebx,%esi
 8048cee:	85 db                	test   %ebx,%ebx
 8048cf0:	74 d8                	je     8048cca <fun6+0x30>
 8048cf2:	8b 07                	mov    (%edi),%eax
 8048cf4:	39 03                	cmp    %eax,(%ebx)
 8048cf6:	7f c5                	jg     8048cbd <fun6+0x23>
 8048cf8:	eb d0                	jmp    8048cca <fun6+0x30>
 8048cfa:	8b 45 f0             	mov    -0x10(%ebp),%eax
 8048cfd:	83 c4 04             	add    $0x4,%esp
 8048d00:	5b                   	pop    %ebx
 8048d01:	5e                   	pop    %esi
 8048d02:	5f                   	pop    %edi
 8048d03:	5d                   	pop    %ebp
 8048d04:	c3                   	ret    

08048d05 <fun7>:
 8048d05:	55                   	push   %ebp
 8048d06:	89 e5                	mov    %esp,%ebp
 8048d08:	53                   	push   %ebx
 8048d09:	83 ec 14             	sub    $0x14,%esp
 8048d0c:	8b 55 08             	mov    0x8(%ebp),%edx
 8048d0f:	8b 4d 0c             	mov    0xc(%ebp),%ecx
 8048d12:	b8 ff ff ff ff       	mov    $0xffffffff,%eax
 8048d17:	85 d2                	test   %edx,%edx
 8048d19:	74 35                	je     8048d50 <fun7+0x4b>
 8048d1b:	8b 1a                	mov    (%edx),%ebx
 8048d1d:	39 cb                	cmp    %ecx,%ebx
 8048d1f:	7e 13                	jle    8048d34 <fun7+0x2f>
 8048d21:	89 4c 24 04          	mov    %ecx,0x4(%esp)
 8048d25:	8b 42 04             	mov    0x4(%edx),%eax
 8048d28:	89 04 24             	mov    %eax,(%esp)
 8048d2b:	e8 d5 ff ff ff       	call   8048d05 <fun7>
 8048d30:	01 c0                	add    %eax,%eax
 8048d32:	eb 1c                	jmp    8048d50 <fun7+0x4b>
 8048d34:	b8 00 00 00 00       	mov    $0x0,%eax
 8048d39:	39 cb                	cmp    %ecx,%ebx
 8048d3b:	74 13                	je     8048d50 <fun7+0x4b>
 8048d3d:	89 4c 24 04          	mov    %ecx,0x4(%esp)
 8048d41:	8b 42 08             	mov    0x8(%edx),%eax
 8048d44:	89 04 24             	mov    %eax,(%esp)
 8048d47:	e8 b9 ff ff ff       	call   8048d05 <fun7>
 8048d4c:	8d 44 00 01          	lea    0x1(%eax,%eax,1),%eax
 8048d50:	83 c4 14             	add    $0x14,%esp
 8048d53:	5b                   	pop    %ebx
 8048d54:	5d                   	pop    %ebp
 8048d55:	c3                   	ret    

08048d56 <secret_phase>:
 8048d56:	55                   	push   %ebp
 8048d57:	89 e5                	mov    %esp,%ebp
 8048d59:	53                   	push   %ebx
 8048d5a:	83 ec 14             	sub    $0x14,%esp
 8048d5d:	e8 e8 0a 00 00       	call   804984a <read_line>
 8048d62:	c7 44 24 08 0a 00 00 	movl   $0xa,0x8(%esp)
 8048d69:	00 
 8048d6a:	c7 44 24 04 00 00 00 	movl   $0x0,0x4(%esp)
 8048d71:	00 
 8048d72:	89 04 24             	mov    %eax,(%esp)
 8048d75:	e8 7e fb ff ff       	call   80488f8 <strtol@plt>
 8048d7a:	89 c3                	mov    %eax,%ebx
 8048d7c:	8d 40 ff             	lea    -0x1(%eax),%eax
 8048d7f:	3d e8 03 00 00       	cmp    $0x3e8,%eax
 8048d84:	76 05                	jbe    8048d8b <secret_phase+0x35>
 8048d86:	e8 a4 09 00 00       	call   804972f <explode_bomb>
 8048d8b:	89 5c 24 04          	mov    %ebx,0x4(%esp)
 8048d8f:	c7 04 24 60 b8 04 08 	movl   $0x804b860,(%esp)
 8048d96:	e8 6a ff ff ff       	call   8048d05 <fun7>
 8048d9b:	83 f8 07             	cmp    $0x7,%eax
 8048d9e:	74 05                	je     8048da5 <secret_phase+0x4f>
 8048da0:	e8 8a 09 00 00       	call   804972f <explode_bomb>
 8048da5:	c7 04 24 e4 9c 04 08 	movl   $0x8049ce4,(%esp)
 8048dac:	e8 67 fc ff ff       	call   8048a18 <puts@plt>
 8048db1:	e8 e4 08 00 00       	call   804969a <phase_defused>
 8048db6:	83 c4 14             	add    $0x14,%esp
 8048db9:	5b                   	pop    %ebx
 8048dba:	5d                   	pop    %ebp
 8048dbb:	c3                   	ret    

08048dbc <phase_6>:
 8048dbc:	55                   	push   %ebp
 8048dbd:	89 e5                	mov    %esp,%ebp
 8048dbf:	83 ec 18             	sub    $0x18,%esp
 8048dc2:	89 5d f8             	mov    %ebx,-0x8(%ebp)
 8048dc5:	89 75 fc             	mov    %esi,-0x4(%ebp)
 8048dc8:	c7 44 24 08 0a 00 00 	movl   $0xa,0x8(%esp)
 8048dcf:	00 
 8048dd0:	c7 44 24 04 00 00 00 	movl   $0x0,0x4(%esp)
 8048dd7:	00 
 8048dd8:	8b 45 08             	mov    0x8(%ebp),%eax
 8048ddb:	89 04 24             	mov    %eax,(%esp)
 8048dde:	e8 15 fb ff ff       	call   80488f8 <strtol@plt>
 8048de3:	be ac b7 04 08       	mov    $0x804b7ac,%esi
 8048de8:	89 06                	mov    %eax,(%esi)
 8048dea:	89 34 24             	mov    %esi,(%esp)
 8048ded:	e8 a8 fe ff ff       	call   8048c9a <fun6>
 8048df2:	8b 40 08             	mov    0x8(%eax),%eax
 8048df5:	8b 00                	mov    (%eax),%eax
 8048df7:	3b 06                	cmp    (%esi),%eax
 8048df9:	74 05                	je     8048e00 <phase_6+0x44>
 8048dfb:	e8 2f 09 00 00       	call   804972f <explode_bomb>
 8048e00:	8b 5d f8             	mov    -0x8(%ebp),%ebx
 8048e03:	8b 75 fc             	mov    -0x4(%ebp),%esi
 8048e06:	89 ec                	mov    %ebp,%esp
 8048e08:	5d                   	pop    %ebp
 8048e09:	c3                   	ret    

08048e0a <phase_5>:
 8048e0a:	55                   	push   %ebp
 8048e0b:	89 e5                	mov    %esp,%ebp
 8048e0d:	56                   	push   %esi
 8048e0e:	53                   	push   %ebx
 8048e0f:	83 ec 20             	sub    $0x20,%esp
 8048e12:	8d 45 f0             	lea    -0x10(%ebp),%eax
 8048e15:	89 44 24 0c          	mov    %eax,0xc(%esp)
 8048e19:	8d 45 f4             	lea    -0xc(%ebp),%eax
 8048e1c:	89 44 24 08          	mov    %eax,0x8(%esp)
 8048e20:	c7 44 24 04 54 9f 04 	movl   $0x8049f54,0x4(%esp)
 8048e27:	08 
 8048e28:	8b 45 08             	mov    0x8(%ebp),%eax
 8048e2b:	89 04 24             	mov    %eax,(%esp)
 8048e2e:	e8 f5 fb ff ff       	call   8048a28 <sscanf@plt>
 8048e33:	83 f8 01             	cmp    $0x1,%eax
 8048e36:	7f 05                	jg     8048e3d <phase_5+0x33>
 8048e38:	e8 f2 08 00 00       	call   804972f <explode_bomb>
 8048e3d:	8b 45 f4             	mov    -0xc(%ebp),%eax
 8048e40:	83 e0 0f             	and    $0xf,%eax
 8048e43:	89 45 f4             	mov    %eax,-0xc(%ebp)
 8048e46:	83 f8 0f             	cmp    $0xf,%eax
 8048e49:	74 29                	je     8048e74 <phase_5+0x6a>
 8048e4b:	be 00 00 00 00       	mov    $0x0,%esi
 8048e50:	bb 00 00 00 00       	mov    $0x0,%ebx
 8048e55:	ba 60 9d 04 08       	mov    $0x8049d60,%edx
 8048e5a:	83 c3 01             	add    $0x1,%ebx
 8048e5d:	8b 04 82             	mov    (%edx,%eax,4),%eax
 8048e60:	01 c6                	add    %eax,%esi
 8048e62:	83 f8 0f             	cmp    $0xf,%eax
 8048e65:	75 f3                	jne    8048e5a <phase_5+0x50>
 8048e67:	89 45 f4             	mov    %eax,-0xc(%ebp)
 8048e6a:	83 fb 08             	cmp    $0x8,%ebx
 8048e6d:	75 05                	jne    8048e74 <phase_5+0x6a>
 8048e6f:	39 75 f0             	cmp    %esi,-0x10(%ebp)
 8048e72:	74 09                	je     8048e7d <phase_5+0x73>
 8048e74:	8d 74 26 00          	lea    0x0(%esi,%eiz,1),%esi
 8048e78:	e8 b2 08 00 00       	call   804972f <explode_bomb>
 8048e7d:	83 c4 20             	add    $0x20,%esp
 8048e80:	5b                   	pop    %ebx
 8048e81:	5e                   	pop    %esi
 8048e82:	5d                   	pop    %ebp
 8048e83:	90                   	nop
 8048e84:	8d 74 26 00          	lea    0x0(%esi,%eiz,1),%esi
 8048e88:	c3                   	ret    

08048e89 <phase_4>:
 8048e89:	55                   	push   %ebp
 8048e8a:	89 e5                	mov    %esp,%ebp
 8048e8c:	53                   	push   %ebx
 8048e8d:	83 ec 24             	sub    $0x24,%esp
 8048e90:	8d 45 f4             	lea    -0xc(%ebp),%eax
 8048e93:	89 44 24 08          	mov    %eax,0x8(%esp)
 8048e97:	c7 44 24 04 57 9f 04 	movl   $0x8049f57,0x4(%esp)
 8048e9e:	08 
 8048e9f:	8b 45 08             	mov    0x8(%ebp),%eax
 8048ea2:	89 04 24             	mov    %eax,(%esp)
 8048ea5:	e8 7e fb ff ff       	call   8048a28 <sscanf@plt>
 8048eaa:	83 f8 01             	cmp    $0x1,%eax
 8048ead:	75 06                	jne    8048eb5 <phase_4+0x2c>
 8048eaf:	83 7d f4 00          	cmpl   $0x0,-0xc(%ebp)
 8048eb3:	7f 08                	jg     8048ebd <phase_4+0x34>
 8048eb5:	8d 76 00             	lea    0x0(%esi),%esi
 8048eb8:	e8 72 08 00 00       	call   804972f <explode_bomb>
 8048ebd:	8b 5d f4             	mov    -0xc(%ebp),%ebx
 8048ec0:	89 1c 24             	mov    %ebx,(%esp)
 8048ec3:	e8 a8 fd ff ff       	call   8048c70 <func4>
 8048ec8:	3d a7 41 00 00       	cmp    $0x41a7,%eax
 8048ecd:	74 05                	je     8048ed4 <phase_4+0x4b>
 8048ecf:	e8 5b 08 00 00       	call   804972f <explode_bomb>
 8048ed4:	83 c4 24             	add    $0x24,%esp
 8048ed7:	5b                   	pop    %ebx
 8048ed8:	5d                   	pop    %ebp
 8048ed9:	8d b4 26 00 00 00 00 	lea    0x0(%esi,%eiz,1),%esi
 8048ee0:	c3                   	ret    

08048ee1 <phase_3>:
 8048ee1:	55                   	push   %ebp
 8048ee2:	89 e5                	mov    %esp,%ebp
 8048ee4:	53                   	push   %ebx
 8048ee5:	83 ec 24             	sub    $0x24,%esp
 8048ee8:	8d 45 f0             	lea    -0x10(%ebp),%eax
 8048eeb:	89 44 24 0c          	mov    %eax,0xc(%esp)
 8048eef:	8d 45 f4             	lea    -0xc(%ebp),%eax
 8048ef2:	89 44 24 08          	mov    %eax,0x8(%esp)
 8048ef6:	c7 44 24 04 54 9f 04 	movl   $0x8049f54,0x4(%esp)
 8048efd:	08 
 8048efe:	8b 45 08             	mov    0x8(%ebp),%eax
 8048f01:	89 04 24             	mov    %eax,(%esp)
 8048f04:	e8 1f fb ff ff       	call   8048a28 <sscanf@plt>
 8048f09:	83 f8 01             	cmp    $0x1,%eax
 8048f0c:	7f 05                	jg     8048f13 <phase_3+0x32>
 8048f0e:	e8 1c 08 00 00       	call   804972f <explode_bomb>
 8048f13:	83 7d f4 07          	cmpl   $0x7,-0xc(%ebp)
 8048f17:	90                   	nop
 8048f18:	77 50                	ja     8048f6a <phase_3+0x89>
 8048f1a:	8b 5d f4             	mov    -0xc(%ebp),%ebx
 8048f1d:	8d 76 00             	lea    0x0(%esi),%esi
 8048f20:	ff 24 9d 40 9d 04 08 	jmp    *0x8049d40(,%ebx,4)
 8048f27:	bb 90 03 00 00       	mov    $0x390,%ebx
 8048f2c:	8d 74 26 00          	lea    0x0(%esi,%eiz,1),%esi
 8048f30:	eb 48                	jmp    8048f7a <phase_3+0x99>
 8048f32:	bb c4 02 00 00       	mov    $0x2c4,%ebx
 8048f37:	90                   	nop
 8048f38:	eb 40                	jmp    8048f7a <phase_3+0x99>
 8048f3a:	bb 89 01 00 00       	mov    $0x189,%ebx
 8048f3f:	90                   	nop
 8048f40:	eb 38                	jmp    8048f7a <phase_3+0x99>
 8048f42:	bb c4 01 00 00       	mov    $0x1c4,%ebx
 8048f47:	90                   	nop
 8048f48:	eb 30                	jmp    8048f7a <phase_3+0x99>
 8048f4a:	bb 5f 01 00 00       	mov    $0x15f,%ebx
 8048f4f:	90                   	nop
 8048f50:	eb 28                	jmp    8048f7a <phase_3+0x99>
 8048f52:	bb 91 00 00 00       	mov    $0x91,%ebx
 8048f57:	90                   	nop
 8048f58:	eb 20                	jmp    8048f7a <phase_3+0x99>
 8048f5a:	bb e0 00 00 00       	mov    $0xe0,%ebx
 8048f5f:	90                   	nop
 8048f60:	eb 18                	jmp    8048f7a <phase_3+0x99>
 8048f62:	bb 7b 02 00 00       	mov    $0x27b,%ebx
 8048f67:	90                   	nop
 8048f68:	eb 10                	jmp    8048f7a <phase_3+0x99>
 8048f6a:	8d b6 00 00 00 00    	lea    0x0(%esi),%esi
 8048f70:	e8 ba 07 00 00       	call   804972f <explode_bomb>
 8048f75:	bb 00 00 00 00       	mov    $0x0,%ebx
 8048f7a:	3b 5d f0             	cmp    -0x10(%ebp),%ebx
 8048f7d:	8d 76 00             	lea    0x0(%esi),%esi
 8048f80:	74 05                	je     8048f87 <phase_3+0xa6>
 8048f82:	e8 a8 07 00 00       	call   804972f <explode_bomb>
 8048f87:	83 c4 24             	add    $0x24,%esp
 8048f8a:	5b                   	pop    %ebx
 8048f8b:	5d                   	pop    %ebp
 8048f8c:	c3                   	ret    

08048f8d <phase_2>:
 8048f8d:	55                   	push   %ebp
 8048f8e:	89 e5                	mov    %esp,%ebp
 8048f90:	56                   	push   %esi
 8048f91:	53                   	push   %ebx
 8048f92:	83 ec 30             	sub    $0x30,%esp
 8048f95:	8d 45 e0             	lea    -0x20(%ebp),%eax
 8048f98:	89 44 24 04          	mov    %eax,0x4(%esp)
 8048f9c:	8b 45 08             	mov    0x8(%ebp),%eax
 8048f9f:	89 04 24             	mov    %eax,(%esp)
 8048fa2:	e8 ca 07 00 00       	call   8049771 <read_six_numbers>
 8048fa7:	8d 5d e4             	lea    -0x1c(%ebp),%ebx
 8048faa:	8d 75 f8             	lea    -0x8(%ebp),%esi
 8048fad:	8b 43 fc             	mov    -0x4(%ebx),%eax
 8048fb0:	83 c0 05             	add    $0x5,%eax
 8048fb3:	39 03                	cmp    %eax,(%ebx)
 8048fb5:	74 05                	je     8048fbc <phase_2+0x2f>
 8048fb7:	e8 73 07 00 00       	call   804972f <explode_bomb>
 8048fbc:	83 c3 04             	add    $0x4,%ebx
 8048fbf:	39 f3                	cmp    %esi,%ebx
 8048fc1:	75 ea                	jne    8048fad <phase_2+0x20>
 8048fc3:	83 c4 30             	add    $0x30,%esp
 8048fc6:	5b                   	pop    %ebx
 8048fc7:	5e                   	pop    %esi
 8048fc8:	5d                   	pop    %ebp
 8048fc9:	c3                   	ret    

08048fca <phase_1>:
 8048fca:	55                   	push   %ebp
 8048fcb:	89 e5                	mov    %esp,%ebp
 8048fcd:	83 ec 18             	sub    $0x18,%esp
 8048fd0:	c7 44 24 04 0c 9d 04 	movl   $0x8049d0c,0x4(%esp)
 8048fd7:	08 
 8048fd8:	8b 45 08             	mov    0x8(%ebp),%eax
 8048fdb:	89 04 24             	mov    %eax,(%esp)
 8048fde:	e8 3c 00 00 00       	call   804901f <strings_not_equal>
 8048fe3:	85 c0                	test   %eax,%eax
 8048fe5:	74 05                	je     8048fec <phase_1+0x22>
 8048fe7:	e8 43 07 00 00       	call   804972f <explode_bomb>
 8048fec:	c9                   	leave  
 8048fed:	8d 76 00             	lea    0x0(%esi),%esi
 8048ff0:	c3                   	ret    
 8048ff1:	90                   	nop
 8048ff2:	90                   	nop
 8048ff3:	90                   	nop
 8048ff4:	90                   	nop
 8048ff5:	90                   	nop
 8048ff6:	90                   	nop
 8048ff7:	90                   	nop
 8048ff8:	90                   	nop
 8048ff9:	90                   	nop
 8048ffa:	90                   	nop
 8048ffb:	90                   	nop
 8048ffc:	90                   	nop
 8048ffd:	90                   	nop
 8048ffe:	90                   	nop
 8048fff:	90                   	nop

08049000 <string_length>:
 8049000:	55                   	push   %ebp
 8049001:	89 e5                	mov    %esp,%ebp
 8049003:	53                   	push   %ebx
 8049004:	8b 45 08             	mov    0x8(%ebp),%eax
 8049007:	bb 00 00 00 00       	mov    $0x0,%ebx
 804900c:	80 38 00             	cmpb   $0x0,(%eax)
 804900f:	74 09                	je     804901a <string_length+0x1a>
 8049011:	83 c3 01             	add    $0x1,%ebx
 8049014:	80 3c 18 00          	cmpb   $0x0,(%eax,%ebx,1)
 8049018:	75 f7                	jne    8049011 <string_length+0x11>
 804901a:	89 d8                	mov    %ebx,%eax
 804901c:	5b                   	pop    %ebx
 804901d:	5d                   	pop    %ebp
 804901e:	c3                   	ret    

0804901f <strings_not_equal>:
 804901f:	55                   	push   %ebp
 8049020:	89 e5                	mov    %esp,%ebp
 8049022:	57                   	push   %edi
 8049023:	56                   	push   %esi
 8049024:	53                   	push   %ebx
 8049025:	83 ec 04             	sub    $0x4,%esp
 8049028:	8b 5d 08             	mov    0x8(%ebp),%ebx
 804902b:	8b 75 0c             	mov    0xc(%ebp),%esi
 804902e:	89 1c 24             	mov    %ebx,(%esp)
 8049031:	e8 ca ff ff ff       	call   8049000 <string_length>
 8049036:	89 c7                	mov    %eax,%edi
 8049038:	89 34 24             	mov    %esi,(%esp)
 804903b:	e8 c0 ff ff ff       	call   8049000 <string_length>
 8049040:	39 c7                	cmp    %eax,%edi
 8049042:	75 2d                	jne    8049071 <strings_not_equal+0x52>
 8049044:	0f b6 13             	movzbl (%ebx),%edx
 8049047:	84 d2                	test   %dl,%dl
 8049049:	74 2f                	je     804907a <strings_not_equal+0x5b>
 804904b:	b8 00 00 00 00       	mov    $0x0,%eax
 8049050:	3a 16                	cmp    (%esi),%dl
 8049052:	74 12                	je     8049066 <strings_not_equal+0x47>
 8049054:	8d 74 26 00          	lea    0x0(%esi,%eiz,1),%esi
 8049058:	eb 17                	jmp    8049071 <strings_not_equal+0x52>
 804905a:	0f b6 4c 06 01       	movzbl 0x1(%esi,%eax,1),%ecx
 804905f:	83 c0 01             	add    $0x1,%eax
 8049062:	38 ca                	cmp    %cl,%dl
 8049064:	75 0b                	jne    8049071 <strings_not_equal+0x52>
 8049066:	0f b6 54 03 01       	movzbl 0x1(%ebx,%eax,1),%edx
 804906b:	84 d2                	test   %dl,%dl
 804906d:	75 eb                	jne    804905a <strings_not_equal+0x3b>
 804906f:	eb 09                	jmp    804907a <strings_not_equal+0x5b>
 8049071:	b8 01 00 00 00       	mov    $0x1,%eax
 8049076:	66 90                	xchg   %ax,%ax
 8049078:	eb 05                	jmp    804907f <strings_not_equal+0x60>
 804907a:	b8 00 00 00 00       	mov    $0x0,%eax
 804907f:	83 c4 04             	add    $0x4,%esp
 8049082:	5b                   	pop    %ebx
 8049083:	5e                   	pop    %esi
 8049084:	5f                   	pop    %edi
 8049085:	5d                   	pop    %ebp
 8049086:	66 90                	xchg   %ax,%ax
 8049088:	c3                   	ret    

08049089 <send_msg_2>:
 8049089:	55                   	push   %ebp
 804908a:	89 e5                	mov    %esp,%ebp
 804908c:	57                   	push   %edi
 804908d:	56                   	push   %esi
 804908e:	53                   	push   %ebx
 804908f:	81 ec 8c 00 00 00    	sub    $0x8c,%esp
 8049095:	c7 04 24 00 00 00 00 	movl   $0x0,(%esp)
 804909c:	e8 c7 f8 ff ff       	call   8048968 <dup@plt>
 80490a1:	89 45 94             	mov    %eax,-0x6c(%ebp)
 80490a4:	83 f8 ff             	cmp    $0xffffffff,%eax
 80490a7:	75 18                	jne    80490c1 <send_msg_2+0x38>
 80490a9:	c7 04 24 a0 9d 04 08 	movl   $0x8049da0,(%esp)
 80490b0:	e8 63 f9 ff ff       	call   8048a18 <puts@plt>
 80490b5:	c7 04 24 08 00 00 00 	movl   $0x8,(%esp)
 80490bc:	e8 87 f9 ff ff       	call   8048a48 <exit@plt>
 80490c1:	c7 04 24 00 00 00 00 	movl   $0x0,(%esp)
 80490c8:	e8 db f8 ff ff       	call   80489a8 <close@plt>
 80490cd:	83 f8 ff             	cmp    $0xffffffff,%eax
 80490d0:	75 18                	jne    80490ea <send_msg_2+0x61>
 80490d2:	c7 04 24 b4 9d 04 08 	movl   $0x8049db4,(%esp)
 80490d9:	e8 3a f9 ff ff       	call   8048a18 <puts@plt>
 80490de:	c7 04 24 08 00 00 00 	movl   $0x8,(%esp)
 80490e5:	e8 5e f9 ff ff       	call   8048a48 <exit@plt>
 80490ea:	e8 f9 f7 ff ff       	call   80488e8 <tmpfile@plt>
 80490ef:	89 c7                	mov    %eax,%edi
 80490f1:	85 c0                	test   %eax,%eax
 80490f3:	75 18                	jne    804910d <send_msg_2+0x84>
 80490f5:	c7 04 24 c7 9d 04 08 	movl   $0x8049dc7,(%esp)
 80490fc:	e8 17 f9 ff ff       	call   8048a18 <puts@plt>
 8049101:	c7 04 24 08 00 00 00 	movl   $0x8,(%esp)
 8049108:	e8 3b f9 ff ff       	call   8048a48 <exit@plt>
 804910d:	89 44 24 0c          	mov    %eax,0xc(%esp)
 8049111:	c7 44 24 08 1b 00 00 	movl   $0x1b,0x8(%esp)
 8049118:	00 
 8049119:	c7 44 24 04 01 00 00 	movl   $0x1,0x4(%esp)
 8049120:	00 
 8049121:	c7 04 24 dc 9d 04 08 	movl   $0x8049ddc,(%esp)
 8049128:	e8 8b f8 ff ff       	call   80489b8 <fwrite@plt>
 804912d:	89 7c 24 04          	mov    %edi,0x4(%esp)
 8049131:	c7 04 24 0a 00 00 00 	movl   $0xa,(%esp)
 8049138:	e8 ab f8 ff ff       	call   80489e8 <fputc@plt>
 804913d:	c7 04 24 00 00 00 00 	movl   $0x0,(%esp)
 8049144:	e8 8f f8 ff ff       	call   80489d8 <cuserid@plt>
 8049149:	85 c0                	test   %eax,%eax
 804914b:	75 15                	jne    8049162 <send_msg_2+0xd9>
 804914d:	8d 45 98             	lea    -0x68(%ebp),%eax
 8049150:	c7 00 6e 6f 62 6f    	movl   $0x6f626f6e,(%eax)
 8049156:	66 c7 40 04 64 79    	movw   $0x7964,0x4(%eax)
 804915c:	c6 40 06 00          	movb   $0x0,0x6(%eax)
 8049160:	eb 0f                	jmp    8049171 <send_msg_2+0xe8>
 8049162:	89 44 24 04          	mov    %eax,0x4(%esp)
 8049166:	8d 45 98             	lea    -0x68(%ebp),%eax
 8049169:	89 04 24             	mov    %eax,(%esp)
 804916c:	e8 17 f8 ff ff       	call   8048988 <strcpy@plt>
 8049171:	8b 15 ac b8 04 08    	mov    0x804b8ac,%edx
 8049177:	b8 01 9e 04 08       	mov    $0x8049e01,%eax
 804917c:	83 7d 08 00          	cmpl   $0x0,0x8(%ebp)
 8049180:	75 05                	jne    8049187 <send_msg_2+0xfe>
 8049182:	b8 f8 9d 04 08       	mov    $0x8049df8,%eax
 8049187:	89 54 24 18          	mov    %edx,0x18(%esp)
 804918b:	89 44 24 14          	mov    %eax,0x14(%esp)
 804918f:	8d 45 98             	lea    -0x68(%ebp),%eax
 8049192:	89 44 24 10          	mov    %eax,0x10(%esp)
 8049196:	8b 1d 20 b3 04 08    	mov    0x804b320,%ebx
 804919c:	89 5c 24 0c          	mov    %ebx,0xc(%esp)
 80491a0:	c7 44 24 08 40 b3 04 	movl   $0x804b340,0x8(%esp)
 80491a7:	08 
 80491a8:	c7 44 24 04 09 9e 04 	movl   $0x8049e09,0x4(%esp)
 80491af:	08 
 80491b0:	89 3c 24             	mov    %edi,(%esp)
 80491b3:	e8 10 f8 ff ff       	call   80489c8 <fprintf@plt>
 80491b8:	83 3d ac b8 04 08 00 	cmpl   $0x0,0x804b8ac
 80491bf:	7e 48                	jle    8049209 <send_msg_2+0x180>
 80491c1:	be c0 b8 04 08       	mov    $0x804b8c0,%esi
 80491c6:	bb 00 00 00 00       	mov    $0x0,%ebx
 80491cb:	83 c3 01             	add    $0x1,%ebx
 80491ce:	89 74 24 18          	mov    %esi,0x18(%esp)
 80491d2:	89 5c 24 14          	mov    %ebx,0x14(%esp)
 80491d6:	8d 45 98             	lea    -0x68(%ebp),%eax
 80491d9:	89 44 24 10          	mov    %eax,0x10(%esp)
 80491dd:	a1 20 b3 04 08       	mov    0x804b320,%eax
 80491e2:	89 44 24 0c          	mov    %eax,0xc(%esp)
 80491e6:	c7 44 24 08 40 b3 04 	movl   $0x804b340,0x8(%esp)
 80491ed:	08 
 80491ee:	c7 44 24 04 25 9e 04 	movl   $0x8049e25,0x4(%esp)
 80491f5:	08 
 80491f6:	89 3c 24             	mov    %edi,(%esp)
 80491f9:	e8 ca f7 ff ff       	call   80489c8 <fprintf@plt>
 80491fe:	83 c6 50             	add    $0x50,%esi
 8049201:	39 1d ac b8 04 08    	cmp    %ebx,0x804b8ac
 8049207:	7f c2                	jg     80491cb <send_msg_2+0x142>
 8049209:	89 3c 24             	mov    %edi,(%esp)
 804920c:	e8 77 f6 ff ff       	call   8048888 <rewind@plt>
 8049211:	c7 44 24 10 41 9e 04 	movl   $0x8049e41,0x10(%esp)
 8049218:	08 
 8049219:	c7 44 24 0c 4b 9e 04 	movl   $0x8049e4b,0xc(%esp)
 8049220:	08 
 8049221:	c7 44 24 08 53 9e 04 	movl   $0x8049e53,0x8(%esp)
 8049228:	08 
 8049229:	c7 44 24 04 6a 9e 04 	movl   $0x8049e6a,0x4(%esp)
 8049230:	08 
 8049231:	c7 04 24 00 bf 04 08 	movl   $0x804bf00,(%esp)
 8049238:	e8 0b f6 ff ff       	call   8048848 <sprintf@plt>
 804923d:	c7 04 24 00 bf 04 08 	movl   $0x804bf00,(%esp)
 8049244:	e8 5f f6 ff ff       	call   80488a8 <system@plt>
 8049249:	85 c0                	test   %eax,%eax
 804924b:	74 18                	je     8049265 <send_msg_2+0x1dc>
 804924d:	c7 04 24 73 9e 04 08 	movl   $0x8049e73,(%esp)
 8049254:	e8 bf f7 ff ff       	call   8048a18 <puts@plt>
 8049259:	c7 04 24 08 00 00 00 	movl   $0x8,(%esp)
 8049260:	e8 e3 f7 ff ff       	call   8048a48 <exit@plt>
 8049265:	89 3c 24             	mov    %edi,(%esp)
 8049268:	e8 db f6 ff ff       	call   8048948 <fclose@plt>
 804926d:	85 c0                	test   %eax,%eax
 804926f:	74 18                	je     8049289 <send_msg_2+0x200>
 8049271:	c7 04 24 8d 9e 04 08 	movl   $0x8049e8d,(%esp)
 8049278:	e8 9b f7 ff ff       	call   8048a18 <puts@plt>
 804927d:	c7 04 24 08 00 00 00 	movl   $0x8,(%esp)
 8049284:	e8 bf f7 ff ff       	call   8048a48 <exit@plt>
 8049289:	8b 45 94             	mov    -0x6c(%ebp),%eax
 804928c:	89 04 24             	mov    %eax,(%esp)
 804928f:	e8 d4 f6 ff ff       	call   8048968 <dup@plt>
 8049294:	85 c0                	test   %eax,%eax
 8049296:	74 18                	je     80492b0 <send_msg_2+0x227>
 8049298:	c7 04 24 a6 9e 04 08 	movl   $0x8049ea6,(%esp)
 804929f:	e8 74 f7 ff ff       	call   8048a18 <puts@plt>
 80492a4:	c7 04 24 08 00 00 00 	movl   $0x8,(%esp)
 80492ab:	e8 98 f7 ff ff       	call   8048a48 <exit@plt>
 80492b0:	8b 45 94             	mov    -0x6c(%ebp),%eax
 80492b3:	89 04 24             	mov    %eax,(%esp)
 80492b6:	e8 ed f6 ff ff       	call   80489a8 <close@plt>
 80492bb:	85 c0                	test   %eax,%eax
 80492bd:	74 18                	je     80492d7 <send_msg_2+0x24e>
 80492bf:	c7 04 24 c1 9e 04 08 	movl   $0x8049ec1,(%esp)
 80492c6:	e8 4d f7 ff ff       	call   8048a18 <puts@plt>
 80492cb:	c7 04 24 08 00 00 00 	movl   $0x8,(%esp)
 80492d2:	e8 71 f7 ff ff       	call   8048a48 <exit@plt>
 80492d7:	81 c4 8c 00 00 00    	add    $0x8c,%esp
 80492dd:	5b                   	pop    %ebx
 80492de:	5e                   	pop    %esi
 80492df:	5f                   	pop    %edi
 80492e0:	5d                   	pop    %ebp
 80492e1:	c3                   	ret    

080492e2 <writen>:
 80492e2:	55                   	push   %ebp
 80492e3:	89 e5                	mov    %esp,%ebp
 80492e5:	57                   	push   %edi
 80492e6:	56                   	push   %esi
 80492e7:	53                   	push   %ebx
 80492e8:	83 ec 1c             	sub    $0x1c,%esp
 80492eb:	83 7d 10 00          	cmpl   $0x0,0x10(%ebp)
 80492ef:	74 49                	je     804933a <writen+0x58>
 80492f1:	8b 7d 0c             	mov    0xc(%ebp),%edi
 80492f4:	8b 75 10             	mov    0x10(%ebp),%esi
 80492f7:	89 74 24 08          	mov    %esi,0x8(%esp)
 80492fb:	89 7c 24 04          	mov    %edi,0x4(%esp)
 80492ff:	8b 45 08             	mov    0x8(%ebp),%eax
 8049302:	89 04 24             	mov    %eax,(%esp)
 8049305:	e8 ae f5 ff ff       	call   80488b8 <write@plt>
 804930a:	89 c3                	mov    %eax,%ebx
 804930c:	85 c0                	test   %eax,%eax
 804930e:	7f 17                	jg     8049327 <writen+0x45>
 8049310:	e8 23 f5 ff ff       	call   8048838 <__errno_location@plt>
 8049315:	83 38 04             	cmpl   $0x4,(%eax)
 8049318:	74 08                	je     8049322 <writen+0x40>
 804931a:	b8 ff ff ff ff       	mov    $0xffffffff,%eax
 804931f:	90                   	nop
 8049320:	eb 1b                	jmp    804933d <writen+0x5b>
 8049322:	bb 00 00 00 00       	mov    $0x0,%ebx
 8049327:	29 de                	sub    %ebx,%esi
 8049329:	8d b4 26 00 00 00 00 	lea    0x0(%esi,%eiz,1),%esi
 8049330:	74 08                	je     804933a <writen+0x58>
 8049332:	01 df                	add    %ebx,%edi
 8049334:	8d 74 26 00          	lea    0x0(%esi,%eiz,1),%esi
 8049338:	eb bd                	jmp    80492f7 <writen+0x15>
 804933a:	8b 45 10             	mov    0x10(%ebp),%eax
 804933d:	83 c4 1c             	add    $0x1c,%esp
 8049340:	5b                   	pop    %ebx
 8049341:	5e                   	pop    %esi
 8049342:	5f                   	pop    %edi
 8049343:	5d                   	pop    %ebp
 8049344:	c3                   	ret    

08049345 <send_msg>:
 8049345:	55                   	push   %ebp
 8049346:	89 e5                	mov    %esp,%ebp
 8049348:	57                   	push   %edi
 8049349:	56                   	push   %esi
 804934a:	53                   	push   %ebx
 804934b:	81 ec 9c 24 00 00    	sub    $0x249c,%esp
 8049351:	c7 44 24 08 00 00 00 	movl   $0x0,0x8(%esp)
 8049358:	00 
 8049359:	c7 44 24 04 01 00 00 	movl   $0x1,0x4(%esp)
 8049360:	00 
 8049361:	c7 04 24 02 00 00 00 	movl   $0x2,(%esp)
 8049368:	e8 bb f5 ff ff       	call   8048928 <socket@plt>
 804936d:	89 85 84 db ff ff    	mov    %eax,-0x247c(%ebp)
 8049373:	85 c0                	test   %eax,%eax
 8049375:	79 38                	jns    80493af <send_msg+0x6a>
 8049377:	c7 44 24 08 d8 9e 04 	movl   $0x8049ed8,0x8(%esp)
 804937e:	08 
 804937f:	c7 44 24 04 c1 9b 04 	movl   $0x8049bc1,0x4(%esp)
 8049386:	08 
 8049387:	8b 1d a0 b8 04 08    	mov    0x804b8a0,%ebx
 804938d:	89 1c 24             	mov    %ebx,(%esp)
 8049390:	e8 33 f6 ff ff       	call   80489c8 <fprintf@plt>
 8049395:	8b 85 84 db ff ff    	mov    -0x247c(%ebp),%eax
 804939b:	89 04 24             	mov    %eax,(%esp)
 804939e:	e8 05 f6 ff ff       	call   80489a8 <close@plt>
 80493a3:	c7 04 24 01 00 00 00 	movl   $0x1,(%esp)
 80493aa:	e8 99 f6 ff ff       	call   8048a48 <exit@plt>
 80493af:	8d 45 d8             	lea    -0x28(%ebp),%eax
 80493b2:	c7 40 04 00 00 00 00 	movl   $0x0,0x4(%eax)
 80493b9:	c7 40 08 00 00 00 00 	movl   $0x0,0x8(%eax)
 80493c0:	c7 40 0c 00 00 00 00 	movl   $0x0,0xc(%eax)
 80493c7:	66 c7 45 d8 02 00    	movw   $0x2,-0x28(%ebp)
 80493cd:	66 c7 45 da c8 7a    	movw   $0x7ac8,-0x26(%ebp)
 80493d3:	8d 45 dc             	lea    -0x24(%ebp),%eax
 80493d6:	89 44 24 08          	mov    %eax,0x8(%esp)
 80493da:	c7 44 24 04 e5 9e 04 	movl   $0x8049ee5,0x4(%esp)
 80493e1:	08 
 80493e2:	c7 04 24 02 00 00 00 	movl   $0x2,(%esp)
 80493e9:	e8 1a f5 ff ff       	call   8048908 <inet_pton@plt>
 80493ee:	85 c0                	test   %eax,%eax
 80493f0:	79 41                	jns    8049433 <send_msg+0xee>
 80493f2:	c7 44 24 08 ae 9d 04 	movl   $0x8049dae,0x8(%esp)
 80493f9:	08 
 80493fa:	c7 44 24 04 c1 9b 04 	movl   $0x8049bc1,0x4(%esp)
 8049401:	08 
 8049402:	8b 1d a0 b8 04 08    	mov    0x804b8a0,%ebx
 8049408:	89 1c 24             	mov    %ebx,(%esp)
 804940b:	e8 b8 f5 ff ff       	call   80489c8 <fprintf@plt>
 8049410:	83 bd 84 db ff ff 00 	cmpl   $0x0,-0x247c(%ebp)
 8049417:	74 0e                	je     8049427 <send_msg+0xe2>
 8049419:	8b 8d 84 db ff ff    	mov    -0x247c(%ebp),%ecx
 804941f:	89 0c 24             	mov    %ecx,(%esp)
 8049422:	e8 81 f5 ff ff       	call   80489a8 <close@plt>
 8049427:	c7 04 24 01 00 00 00 	movl   $0x1,(%esp)
 804942e:	e8 15 f6 ff ff       	call   8048a48 <exit@plt>
 8049433:	c7 44 24 08 10 00 00 	movl   $0x10,0x8(%esp)
 804943a:	00 
 804943b:	8d 45 d8             	lea    -0x28(%ebp),%eax
 804943e:	89 44 24 04          	mov    %eax,0x4(%esp)
 8049442:	8b 85 84 db ff ff    	mov    -0x247c(%ebp),%eax
 8049448:	89 04 24             	mov    %eax,(%esp)
 804944b:	e8 08 f4 ff ff       	call   8048858 <connect@plt>
 8049450:	85 c0                	test   %eax,%eax
 8049452:	79 41                	jns    8049495 <send_msg+0x150>
 8049454:	c7 44 24 08 f4 9e 04 	movl   $0x8049ef4,0x8(%esp)
 804945b:	08 
 804945c:	c7 44 24 04 c1 9b 04 	movl   $0x8049bc1,0x4(%esp)
 8049463:	08 
 8049464:	8b 1d a0 b8 04 08    	mov    0x804b8a0,%ebx
 804946a:	89 1c 24             	mov    %ebx,(%esp)
 804946d:	e8 56 f5 ff ff       	call   80489c8 <fprintf@plt>
 8049472:	83 bd 84 db ff ff 00 	cmpl   $0x0,-0x247c(%ebp)
 8049479:	74 0e                	je     8049489 <send_msg+0x144>
 804947b:	8b 8d 84 db ff ff    	mov    -0x247c(%ebp),%ecx
 8049481:	89 0c 24             	mov    %ecx,(%esp)
 8049484:	e8 1f f5 ff ff       	call   80489a8 <close@plt>
 8049489:	c7 04 24 01 00 00 00 	movl   $0x1,(%esp)
 8049490:	e8 b3 f5 ff ff       	call   8048a48 <exit@plt>
 8049495:	8d bd d8 db ff ff    	lea    -0x2428(%ebp),%edi
 804949b:	c7 07 53 75 62 6a    	movl   $0x6a627553,(%edi)
 80494a1:	c7 47 04 65 63 74 3a 	movl   $0x3a746365,0x4(%edi)
 80494a8:	c7 47 08 20 42 6f 6d 	movl   $0x6d6f4220,0x8(%edi)
 80494af:	c7 47 0c 62 20 6e 6f 	movl   $0x6f6e2062,0xc(%edi)
 80494b6:	c7 47 10 74 69 66 69 	movl   $0x69666974,0x10(%edi)
 80494bd:	c7 47 14 63 61 74 69 	movl   $0x69746163,0x14(%edi)
 80494c4:	c7 47 18 6f 6e 0a 00 	movl   $0xa6e6f,0x18(%edi)
 80494cb:	89 7c 24 04          	mov    %edi,0x4(%esp)
 80494cf:	8d 9d d8 df ff ff    	lea    -0x2028(%ebp),%ebx
 80494d5:	89 1c 24             	mov    %ebx,(%esp)
 80494d8:	e8 2b f5 ff ff       	call   8048a08 <strcat@plt>
 80494dd:	66 c7 07 0a 00       	movw   $0xa,(%edi)
 80494e2:	89 7c 24 04          	mov    %edi,0x4(%esp)
 80494e6:	89 1c 24             	mov    %ebx,(%esp)
 80494e9:	e8 1a f5 ff ff       	call   8048a08 <strcat@plt>
 80494ee:	c7 04 24 00 00 00 00 	movl   $0x0,(%esp)
 80494f5:	e8 de f4 ff ff       	call   80489d8 <cuserid@plt>
 80494fa:	85 c0                	test   %eax,%eax
 80494fc:	75 18                	jne    8049516 <send_msg+0x1d1>
 80494fe:	8d 85 88 db ff ff    	lea    -0x2478(%ebp),%eax
 8049504:	c7 00 6e 6f 62 6f    	movl   $0x6f626f6e,(%eax)
 804950a:	66 c7 40 04 64 79    	movw   $0x7964,0x4(%eax)
 8049510:	c6 40 06 00          	movb   $0x0,0x6(%eax)
 8049514:	eb 12                	jmp    8049528 <send_msg+0x1e3>
 8049516:	89 44 24 04          	mov    %eax,0x4(%esp)
 804951a:	8d 85 88 db ff ff    	lea    -0x2478(%ebp),%eax
 8049520:	89 04 24             	mov    %eax,(%esp)
 8049523:	e8 60 f4 ff ff       	call   8048988 <strcpy@plt>
 8049528:	8b 15 ac b8 04 08    	mov    0x804b8ac,%edx
 804952e:	b8 01 9e 04 08       	mov    $0x8049e01,%eax
 8049533:	83 7d 08 00          	cmpl   $0x0,0x8(%ebp)
 8049537:	75 05                	jne    804953e <send_msg+0x1f9>
 8049539:	b8 f8 9d 04 08       	mov    $0x8049df8,%eax
 804953e:	89 54 24 18          	mov    %edx,0x18(%esp)
 8049542:	89 44 24 14          	mov    %eax,0x14(%esp)
 8049546:	8d 85 88 db ff ff    	lea    -0x2478(%ebp),%eax
 804954c:	89 44 24 10          	mov    %eax,0x10(%esp)
 8049550:	8b 1d 20 b3 04 08    	mov    0x804b320,%ebx
 8049556:	89 5c 24 0c          	mov    %ebx,0xc(%esp)
 804955a:	c7 44 24 08 40 b3 04 	movl   $0x804b340,0x8(%esp)
 8049561:	08 
 8049562:	c7 44 24 04 09 9e 04 	movl   $0x8049e09,0x4(%esp)
 8049569:	08 
 804956a:	8d 85 d8 db ff ff    	lea    -0x2428(%ebp),%eax
 8049570:	89 04 24             	mov    %eax,(%esp)
 8049573:	e8 d0 f2 ff ff       	call   8048848 <sprintf@plt>
 8049578:	89 7c 24 04          	mov    %edi,0x4(%esp)
 804957c:	8d 85 d8 df ff ff    	lea    -0x2028(%ebp),%eax
 8049582:	89 04 24             	mov    %eax,(%esp)
 8049585:	e8 7e f4 ff ff       	call   8048a08 <strcat@plt>
 804958a:	83 3d ac b8 04 08 00 	cmpl   $0x0,0x804b8ac
 8049591:	7e 64                	jle    80495f7 <send_msg+0x2b2>
 8049593:	be c0 b8 04 08       	mov    $0x804b8c0,%esi
 8049598:	bb 00 00 00 00       	mov    $0x0,%ebx
 804959d:	83 c3 01             	add    $0x1,%ebx
 80495a0:	89 74 24 18          	mov    %esi,0x18(%esp)
 80495a4:	89 5c 24 14          	mov    %ebx,0x14(%esp)
 80495a8:	8d 85 88 db ff ff    	lea    -0x2478(%ebp),%eax
 80495ae:	89 44 24 10          	mov    %eax,0x10(%esp)
 80495b2:	8b 0d 20 b3 04 08    	mov    0x804b320,%ecx
 80495b8:	89 4c 24 0c          	mov    %ecx,0xc(%esp)
 80495bc:	c7 44 24 08 40 b3 04 	movl   $0x804b340,0x8(%esp)
 80495c3:	08 
 80495c4:	c7 44 24 04 25 9e 04 	movl   $0x8049e25,0x4(%esp)
 80495cb:	08 
 80495cc:	8d 85 d8 db ff ff    	lea    -0x2428(%ebp),%eax
 80495d2:	89 04 24             	mov    %eax,(%esp)
 80495d5:	e8 6e f2 ff ff       	call   8048848 <sprintf@plt>
 80495da:	89 7c 24 04          	mov    %edi,0x4(%esp)
 80495de:	8d 8d d8 df ff ff    	lea    -0x2028(%ebp),%ecx
 80495e4:	89 0c 24             	mov    %ecx,(%esp)
 80495e7:	e8 1c f4 ff ff       	call   8048a08 <strcat@plt>
 80495ec:	83 c6 50             	add    $0x50,%esi
 80495ef:	39 1d ac b8 04 08    	cmp    %ebx,0x804b8ac
 80495f5:	7f a6                	jg     804959d <send_msg+0x258>
 80495f7:	8d 9d d8 df ff ff    	lea    -0x2028(%ebp),%ebx
 80495fd:	be ff ff ff ff       	mov    $0xffffffff,%esi
 8049602:	89 df                	mov    %ebx,%edi
 8049604:	89 f1                	mov    %esi,%ecx
 8049606:	b8 00 00 00 00       	mov    $0x0,%eax
 804960b:	f2 ae                	repnz scas %es:(%edi),%al
 804960d:	f7 d1                	not    %ecx
 804960f:	83 e9 01             	sub    $0x1,%ecx
 8049612:	89 4c 24 08          	mov    %ecx,0x8(%esp)
 8049616:	89 5c 24 04          	mov    %ebx,0x4(%esp)
 804961a:	8b 8d 84 db ff ff    	mov    -0x247c(%ebp),%ecx
 8049620:	89 0c 24             	mov    %ecx,(%esp)
 8049623:	e8 ba fc ff ff       	call   80492e2 <writen>
 8049628:	89 c2                	mov    %eax,%edx
 804962a:	89 df                	mov    %ebx,%edi
 804962c:	89 f1                	mov    %esi,%ecx
 804962e:	b8 00 00 00 00       	mov    $0x0,%eax
 8049633:	f2 ae                	repnz scas %es:(%edi),%al
 8049635:	89 ce                	mov    %ecx,%esi
 8049637:	f7 d6                	not    %esi
 8049639:	83 ee 01             	sub    $0x1,%esi
 804963c:	39 f2                	cmp    %esi,%edx
 804963e:	73 41                	jae    8049681 <send_msg+0x33c>
 8049640:	c7 44 24 08 02 9f 04 	movl   $0x8049f02,0x8(%esp)
 8049647:	08 
 8049648:	c7 44 24 04 c1 9b 04 	movl   $0x8049bc1,0x4(%esp)
 804964f:	08 
 8049650:	8b 1d a0 b8 04 08    	mov    0x804b8a0,%ebx
 8049656:	89 1c 24             	mov    %ebx,(%esp)
 8049659:	e8 6a f3 ff ff       	call   80489c8 <fprintf@plt>
 804965e:	83 bd 84 db ff ff 00 	cmpl   $0x0,-0x247c(%ebp)
 8049665:	74 0e                	je     8049675 <send_msg+0x330>
 8049667:	8b 85 84 db ff ff    	mov    -0x247c(%ebp),%eax
 804966d:	89 04 24             	mov    %eax,(%esp)
 8049670:	e8 33 f3 ff ff       	call   80489a8 <close@plt>
 8049675:	c7 04 24 01 00 00 00 	movl   $0x1,(%esp)
 804967c:	e8 c7 f3 ff ff       	call   8048a48 <exit@plt>
 8049681:	8b 8d 84 db ff ff    	mov    -0x247c(%ebp),%ecx
 8049687:	89 0c 24             	mov    %ecx,(%esp)
 804968a:	e8 19 f3 ff ff       	call   80489a8 <close@plt>
 804968f:	81 c4 9c 24 00 00    	add    $0x249c,%esp
 8049695:	5b                   	pop    %ebx
 8049696:	5e                   	pop    %esi
 8049697:	5f                   	pop    %edi
 8049698:	5d                   	pop    %ebp
 8049699:	c3                   	ret    

0804969a <phase_defused>:
 804969a:	55                   	push   %ebp
 804969b:	89 e5                	mov    %esp,%ebp
 804969d:	53                   	push   %ebx
 804969e:	83 ec 74             	sub    $0x74,%esp
 80496a1:	c7 04 24 01 00 00 00 	movl   $0x1,(%esp)
 80496a8:	e8 98 fc ff ff       	call   8049345 <send_msg>
 80496ad:	83 3d ac b8 04 08 06 	cmpl   $0x6,0x804b8ac
 80496b4:	75 73                	jne    8049729 <phase_defused+0x8f>
 80496b6:	8d 45 a8             	lea    -0x58(%ebp),%eax
 80496b9:	89 44 24 0c          	mov    %eax,0xc(%esp)
 80496bd:	8d 45 a4             	lea    -0x5c(%ebp),%eax
 80496c0:	89 44 24 08          	mov    %eax,0x8(%esp)
 80496c4:	c7 44 24 04 15 9f 04 	movl   $0x8049f15,0x4(%esp)
 80496cb:	08 
 80496cc:	c7 04 24 b0 b9 04 08 	movl   $0x804b9b0,(%esp)
 80496d3:	e8 50 f3 ff ff       	call   8048a28 <sscanf@plt>
 80496d8:	83 f8 02             	cmp    $0x2,%eax
 80496db:	75 34                	jne    8049711 <phase_defused+0x77>
 80496dd:	c7 44 24 04 1b 9f 04 	movl   $0x8049f1b,0x4(%esp)
 80496e4:	08 
 80496e5:	8d 45 a8             	lea    -0x58(%ebp),%eax
 80496e8:	89 04 24             	mov    %eax,(%esp)
 80496eb:	e8 2f f9 ff ff       	call   804901f <strings_not_equal>
 80496f0:	85 c0                	test   %eax,%eax
 80496f2:	75 1d                	jne    8049711 <phase_defused+0x77>
 80496f4:	c7 04 24 ec 9f 04 08 	movl   $0x8049fec,(%esp)
 80496fb:	e8 18 f3 ff ff       	call   8048a18 <puts@plt>
 8049700:	c7 04 24 14 a0 04 08 	movl   $0x804a014,(%esp)
 8049707:	e8 0c f3 ff ff       	call   8048a18 <puts@plt>
 804970c:	e8 45 f6 ff ff       	call   8048d56 <secret_phase>
 8049711:	c7 04 24 4c a0 04 08 	movl   $0x804a04c,(%esp)
 8049718:	e8 fb f2 ff ff       	call   8048a18 <puts@plt>
 804971d:	c7 04 24 78 a0 04 08 	movl   $0x804a078,(%esp)
 8049724:	e8 ef f2 ff ff       	call   8048a18 <puts@plt>
 8049729:	83 c4 74             	add    $0x74,%esp
 804972c:	5b                   	pop    %ebx
 804972d:	5d                   	pop    %ebp
 804972e:	c3                   	ret    

0804972f <explode_bomb>:
 804972f:	55                   	push   %ebp
 8049730:	89 e5                	mov    %esp,%ebp
 8049732:	83 ec 18             	sub    $0x18,%esp
 8049735:	c7 04 24 28 9f 04 08 	movl   $0x8049f28,(%esp)
 804973c:	e8 d7 f2 ff ff       	call   8048a18 <puts@plt>
 8049741:	c7 04 24 31 9f 04 08 	movl   $0x8049f31,(%esp)
 8049748:	e8 cb f2 ff ff       	call   8048a18 <puts@plt>
 804974d:	c7 04 24 00 00 00 00 	movl   $0x0,(%esp)
 8049754:	e8 ec fb ff ff       	call   8049345 <send_msg>
 8049759:	c7 04 24 bc a0 04 08 	movl   $0x804a0bc,(%esp)
 8049760:	e8 b3 f2 ff ff       	call   8048a18 <puts@plt>
 8049765:	c7 04 24 08 00 00 00 	movl   $0x8,(%esp)
 804976c:	e8 d7 f2 ff ff       	call   8048a48 <exit@plt>

08049771 <read_six_numbers>:
 8049771:	55                   	push   %ebp
 8049772:	89 e5                	mov    %esp,%ebp
 8049774:	53                   	push   %ebx
 8049775:	83 ec 24             	sub    $0x24,%esp
 8049778:	8b 45 0c             	mov    0xc(%ebp),%eax
 804977b:	8d 50 14             	lea    0x14(%eax),%edx
 804977e:	89 54 24 1c          	mov    %edx,0x1c(%esp)
 8049782:	8d 50 10             	lea    0x10(%eax),%edx
 8049785:	89 54 24 18          	mov    %edx,0x18(%esp)
 8049789:	8d 50 0c             	lea    0xc(%eax),%edx
 804978c:	89 54 24 14          	mov    %edx,0x14(%esp)
 8049790:	8d 50 08             	lea    0x8(%eax),%edx
 8049793:	89 54 24 10          	mov    %edx,0x10(%esp)
 8049797:	8d 50 04             	lea    0x4(%eax),%edx
 804979a:	89 54 24 0c          	mov    %edx,0xc(%esp)
 804979e:	89 44 24 08          	mov    %eax,0x8(%esp)
 80497a2:	c7 44 24 04 48 9f 04 	movl   $0x8049f48,0x4(%esp)
 80497a9:	08 
 80497aa:	8b 45 08             	mov    0x8(%ebp),%eax
 80497ad:	89 04 24             	mov    %eax,(%esp)
 80497b0:	e8 73 f2 ff ff       	call   8048a28 <sscanf@plt>
 80497b5:	83 f8 05             	cmp    $0x5,%eax
 80497b8:	7f 05                	jg     80497bf <read_six_numbers+0x4e>
 80497ba:	e8 70 ff ff ff       	call   804972f <explode_bomb>
 80497bf:	83 c4 24             	add    $0x24,%esp
 80497c2:	5b                   	pop    %ebx
 80497c3:	5d                   	pop    %ebp
 80497c4:	8d 74 26 00          	lea    0x0(%esi,%eiz,1),%esi
 80497c8:	c3                   	ret    

080497c9 <blank_line>:
 80497c9:	55                   	push   %ebp
 80497ca:	89 e5                	mov    %esp,%ebp
 80497cc:	56                   	push   %esi
 80497cd:	53                   	push   %ebx
 80497ce:	8b 75 08             	mov    0x8(%ebp),%esi
 80497d1:	eb 1b                	jmp    80497ee <blank_line+0x25>
 80497d3:	e8 60 f1 ff ff       	call   8048938 <__ctype_b_loc@plt>
 80497d8:	0f be db             	movsbl %bl,%ebx
 80497db:	8b 00                	mov    (%eax),%eax
 80497dd:	f6 44 58 01 20       	testb  $0x20,0x1(%eax,%ebx,2)
 80497e2:	75 07                	jne    80497eb <blank_line+0x22>
 80497e4:	b8 00 00 00 00       	mov    $0x0,%eax
 80497e9:	eb 0f                	jmp    80497fa <blank_line+0x31>
 80497eb:	83 c6 01             	add    $0x1,%esi
 80497ee:	0f b6 1e             	movzbl (%esi),%ebx
 80497f1:	84 db                	test   %bl,%bl
 80497f3:	75 de                	jne    80497d3 <blank_line+0xa>
 80497f5:	b8 01 00 00 00       	mov    $0x1,%eax
 80497fa:	5b                   	pop    %ebx
 80497fb:	5e                   	pop    %esi
 80497fc:	5d                   	pop    %ebp
 80497fd:	c3                   	ret    

080497fe <skip>:
 80497fe:	55                   	push   %ebp
 80497ff:	89 e5                	mov    %esp,%ebp
 8049801:	53                   	push   %ebx
 8049802:	83 ec 14             	sub    $0x14,%esp
 8049805:	8b 1d b0 b8 04 08    	mov    0x804b8b0,%ebx
 804980b:	89 5c 24 08          	mov    %ebx,0x8(%esp)
 804980f:	c7 44 24 04 50 00 00 	movl   $0x50,0x4(%esp)
 8049816:	00 
 8049817:	8b 1d ac b8 04 08    	mov    0x804b8ac,%ebx
 804981d:	8d 04 9b             	lea    (%ebx,%ebx,4),%eax
 8049820:	c1 e0 04             	shl    $0x4,%eax
 8049823:	05 c0 b8 04 08       	add    $0x804b8c0,%eax
 8049828:	89 04 24             	mov    %eax,(%esp)
 804982b:	e8 98 f0 ff ff       	call   80488c8 <fgets@plt>
 8049830:	89 c3                	mov    %eax,%ebx
 8049832:	85 c0                	test   %eax,%eax
 8049834:	74 0c                	je     8049842 <skip+0x44>
 8049836:	89 04 24             	mov    %eax,(%esp)
 8049839:	e8 8b ff ff ff       	call   80497c9 <blank_line>
 804983e:	85 c0                	test   %eax,%eax
 8049840:	75 c3                	jne    8049805 <skip+0x7>
 8049842:	89 d8                	mov    %ebx,%eax
 8049844:	83 c4 14             	add    $0x14,%esp
 8049847:	5b                   	pop    %ebx
 8049848:	5d                   	pop    %ebp
 8049849:	c3                   	ret    

0804984a <read_line>:
 804984a:	55                   	push   %ebp
 804984b:	89 e5                	mov    %esp,%ebp
 804984d:	57                   	push   %edi
 804984e:	53                   	push   %ebx
 804984f:	83 ec 10             	sub    $0x10,%esp
 8049852:	e8 a7 ff ff ff       	call   80497fe <skip>
 8049857:	85 c0                	test   %eax,%eax
 8049859:	75 63                	jne    80498be <read_line+0x74>
 804985b:	8b 1d b0 b8 04 08    	mov    0x804b8b0,%ebx
 8049861:	3b 1d 80 b8 04 08    	cmp    0x804b880,%ebx
 8049867:	75 13                	jne    804987c <read_line+0x32>
 8049869:	c7 04 24 5a 9f 04 08 	movl   $0x8049f5a,(%esp)
 8049870:	e8 a3 f1 ff ff       	call   8048a18 <puts@plt>
 8049875:	e8 b5 fe ff ff       	call   804972f <explode_bomb>
 804987a:	eb 42                	jmp    80498be <read_line+0x74>
 804987c:	c7 04 24 78 9f 04 08 	movl   $0x8049f78,(%esp)
 8049883:	e8 10 f0 ff ff       	call   8048898 <getenv@plt>
 8049888:	85 c0                	test   %eax,%eax
 804988a:	74 0c                	je     8049898 <read_line+0x4e>
 804988c:	c7 04 24 00 00 00 00 	movl   $0x0,(%esp)
 8049893:	e8 b0 f1 ff ff       	call   8048a48 <exit@plt>
 8049898:	8b 1d 80 b8 04 08    	mov    0x804b880,%ebx
 804989e:	89 1d b0 b8 04 08    	mov    %ebx,0x804b8b0
 80498a4:	e8 55 ff ff ff       	call   80497fe <skip>
 80498a9:	85 c0                	test   %eax,%eax
 80498ab:	75 11                	jne    80498be <read_line+0x74>
 80498ad:	c7 04 24 5a 9f 04 08 	movl   $0x8049f5a,(%esp)
 80498b4:	e8 5f f1 ff ff       	call   8048a18 <puts@plt>
 80498b9:	e8 71 fe ff ff       	call   804972f <explode_bomb>
 80498be:	8b 1d ac b8 04 08    	mov    0x804b8ac,%ebx
 80498c4:	8d 04 9b             	lea    (%ebx,%ebx,4),%eax
 80498c7:	c1 e0 04             	shl    $0x4,%eax
 80498ca:	8d b8 c0 b8 04 08    	lea    0x804b8c0(%eax),%edi
 80498d0:	b8 00 00 00 00       	mov    $0x0,%eax
 80498d5:	b9 ff ff ff ff       	mov    $0xffffffff,%ecx
 80498da:	f2 ae                	repnz scas %es:(%edi),%al
 80498dc:	f7 d1                	not    %ecx
 80498de:	8d 59 ff             	lea    -0x1(%ecx),%ebx
 80498e1:	83 fb 4f             	cmp    $0x4f,%ebx
 80498e4:	75 11                	jne    80498f7 <read_line+0xad>
 80498e6:	c7 04 24 83 9f 04 08 	movl   $0x8049f83,(%esp)
 80498ed:	e8 26 f1 ff ff       	call   8048a18 <puts@plt>
 80498f2:	e8 38 fe ff ff       	call   804972f <explode_bomb>
 80498f7:	8b 15 ac b8 04 08    	mov    0x804b8ac,%edx
 80498fd:	8d 04 92             	lea    (%edx,%edx,4),%eax
 8049900:	c1 e0 04             	shl    $0x4,%eax
 8049903:	c6 84 03 bf b8 04 08 	movb   $0x0,0x804b8bf(%ebx,%eax,1)
 804990a:	00 
 804990b:	83 c2 01             	add    $0x1,%edx
 804990e:	89 15 ac b8 04 08    	mov    %edx,0x804b8ac
 8049914:	05 c0 b8 04 08       	add    $0x804b8c0,%eax
 8049919:	83 c4 10             	add    $0x10,%esp
 804991c:	5b                   	pop    %ebx
 804991d:	5f                   	pop    %edi
 804991e:	5d                   	pop    %ebp
 804991f:	c3                   	ret    

08049920 <invalid_phase>:
 8049920:	55                   	push   %ebp
 8049921:	89 e5                	mov    %esp,%ebp
 8049923:	83 ec 18             	sub    $0x18,%esp
 8049926:	8b 45 08             	mov    0x8(%ebp),%eax
 8049929:	89 44 24 04          	mov    %eax,0x4(%esp)
 804992d:	c7 04 24 9e 9f 04 08 	movl   $0x8049f9e,(%esp)
 8049934:	e8 5f f0 ff ff       	call   8048998 <printf@plt>
 8049939:	c7 04 24 08 00 00 00 	movl   $0x8,(%esp)
 8049940:	e8 03 f1 ff ff       	call   8048a48 <exit@plt>

08049945 <sig_handler>:
 8049945:	55                   	push   %ebp
 8049946:	89 e5                	mov    %esp,%ebp
 8049948:	53                   	push   %ebx
 8049949:	83 ec 14             	sub    $0x14,%esp
 804994c:	c7 04 24 e0 a0 04 08 	movl   $0x804a0e0,(%esp)
 8049953:	e8 c0 f0 ff ff       	call   8048a18 <puts@plt>
 8049958:	c7 04 24 03 00 00 00 	movl   $0x3,(%esp)
 804995f:	e8 94 f0 ff ff       	call   80489f8 <sleep@plt>
 8049964:	c7 04 24 af 9f 04 08 	movl   $0x8049faf,(%esp)
 804996b:	e8 28 f0 ff ff       	call   8048998 <printf@plt>
 8049970:	8b 1d a0 b8 04 08    	mov    0x804b8a0,%ebx
 8049976:	89 1c 24             	mov    %ebx,(%esp)
 8049979:	e8 9a ef ff ff       	call   8048918 <fflush@plt>
 804997e:	c7 04 24 01 00 00 00 	movl   $0x1,(%esp)
 8049985:	e8 6e f0 ff ff       	call   80489f8 <sleep@plt>
 804998a:	c7 04 24 b7 9f 04 08 	movl   $0x8049fb7,(%esp)
 8049991:	e8 82 f0 ff ff       	call   8048a18 <puts@plt>
 8049996:	c7 04 24 10 00 00 00 	movl   $0x10,(%esp)
 804999d:	e8 a6 f0 ff ff       	call   8048a48 <exit@plt>

080499a2 <open_clientfd>:
 80499a2:	55                   	push   %ebp
 80499a3:	89 e5                	mov    %esp,%ebp
 80499a5:	83 ec 38             	sub    $0x38,%esp
 80499a8:	89 5d f4             	mov    %ebx,-0xc(%ebp)
 80499ab:	89 75 f8             	mov    %esi,-0x8(%ebp)
 80499ae:	89 7d fc             	mov    %edi,-0x4(%ebp)
 80499b1:	c7 44 24 08 00 00 00 	movl   $0x0,0x8(%esp)
 80499b8:	00 
 80499b9:	c7 44 24 04 01 00 00 	movl   $0x1,0x4(%esp)
 80499c0:	00 
 80499c1:	c7 04 24 02 00 00 00 	movl   $0x2,(%esp)
 80499c8:	e8 5b ef ff ff       	call   8048928 <socket@plt>
 80499cd:	89 c7                	mov    %eax,%edi
 80499cf:	85 c0                	test   %eax,%eax
 80499d1:	79 18                	jns    80499eb <open_clientfd+0x49>
 80499d3:	c7 04 24 bf 9f 04 08 	movl   $0x8049fbf,(%esp)
 80499da:	e8 39 f0 ff ff       	call   8048a18 <puts@plt>
 80499df:	c7 04 24 08 00 00 00 	movl   $0x8,(%esp)
 80499e6:	e8 5d f0 ff ff       	call   8048a48 <exit@plt>
 80499eb:	8b 45 08             	mov    0x8(%ebp),%eax
 80499ee:	89 04 24             	mov    %eax,(%esp)
 80499f1:	e8 42 f0 ff ff       	call   8048a38 <gethostbyname@plt>
 80499f6:	89 c3                	mov    %eax,%ebx
 80499f8:	85 c0                	test   %eax,%eax
 80499fa:	75 18                	jne    8049a14 <open_clientfd+0x72>
 80499fc:	c7 04 24 cd 9f 04 08 	movl   $0x8049fcd,(%esp)
 8049a03:	e8 10 f0 ff ff       	call   8048a18 <puts@plt>
 8049a08:	c7 04 24 08 00 00 00 	movl   $0x8,(%esp)
 8049a0f:	e8 34 f0 ff ff       	call   8048a48 <exit@plt>
 8049a14:	8d 75 d8             	lea    -0x28(%ebp),%esi
 8049a17:	c7 06 00 00 00 00    	movl   $0x0,(%esi)
 8049a1d:	c7 46 04 00 00 00 00 	movl   $0x0,0x4(%esi)
 8049a24:	c7 46 08 00 00 00 00 	movl   $0x0,0x8(%esi)
 8049a2b:	c7 46 0c 00 00 00 00 	movl   $0x0,0xc(%esi)
 8049a32:	66 c7 45 d8 02 00    	movw   $0x2,-0x28(%ebp)
 8049a38:	8b 40 0c             	mov    0xc(%eax),%eax
 8049a3b:	89 44 24 08          	mov    %eax,0x8(%esp)
 8049a3f:	8d 45 dc             	lea    -0x24(%ebp),%eax
 8049a42:	89 44 24 04          	mov    %eax,0x4(%esp)
 8049a46:	8b 43 10             	mov    0x10(%ebx),%eax
 8049a49:	8b 00                	mov    (%eax),%eax
 8049a4b:	89 04 24             	mov    %eax,(%esp)
 8049a4e:	e8 05 ef ff ff       	call   8048958 <bcopy@plt>
 8049a53:	0f b7 5d 0c          	movzwl 0xc(%ebp),%ebx
 8049a57:	66 c1 cb 08          	ror    $0x8,%bx
 8049a5b:	66 89 5d da          	mov    %bx,-0x26(%ebp)
 8049a5f:	c7 44 24 08 10 00 00 	movl   $0x10,0x8(%esp)
 8049a66:	00 
 8049a67:	89 74 24 04          	mov    %esi,0x4(%esp)
 8049a6b:	89 3c 24             	mov    %edi,(%esp)
 8049a6e:	e8 e5 ed ff ff       	call   8048858 <connect@plt>
 8049a73:	85 c0                	test   %eax,%eax
 8049a75:	79 18                	jns    8049a8f <open_clientfd+0xed>
 8049a77:	c7 04 24 db 9f 04 08 	movl   $0x8049fdb,(%esp)
 8049a7e:	e8 95 ef ff ff       	call   8048a18 <puts@plt>
 8049a83:	c7 04 24 08 00 00 00 	movl   $0x8,(%esp)
 8049a8a:	e8 b9 ef ff ff       	call   8048a48 <exit@plt>
 8049a8f:	89 f8                	mov    %edi,%eax
 8049a91:	8b 5d f4             	mov    -0xc(%ebp),%ebx
 8049a94:	8b 75 f8             	mov    -0x8(%ebp),%esi
 8049a97:	8b 7d fc             	mov    -0x4(%ebp),%edi
 8049a9a:	89 ec                	mov    %ebp,%esp
 8049a9c:	5d                   	pop    %ebp
 8049a9d:	c3                   	ret    

08049a9e <initialize_bomb>:
 8049a9e:	55                   	push   %ebp
 8049a9f:	89 e5                	mov    %esp,%ebp
 8049aa1:	83 ec 18             	sub    $0x18,%esp
 8049aa4:	c7 44 24 04 45 99 04 	movl   $0x8049945,0x4(%esp)
 8049aab:	08 
 8049aac:	c7 04 24 02 00 00 00 	movl   $0x2,(%esp)
 8049ab3:	e8 b0 ed ff ff       	call   8048868 <signal@plt>
 8049ab8:	c7 44 24 04 50 00 00 	movl   $0x50,0x4(%esp)
 8049abf:	00 
 8049ac0:	c7 04 24 e5 9e 04 08 	movl   $0x8049ee5,(%esp)
 8049ac7:	e8 d6 fe ff ff       	call   80499a2 <open_clientfd>
 8049acc:	89 04 24             	mov    %eax,(%esp)
 8049acf:	e8 d4 ee ff ff       	call   80489a8 <close@plt>
 8049ad4:	c9                   	leave  
 8049ad5:	c3                   	ret    
 8049ad6:	90                   	nop
 8049ad7:	90                   	nop

08049ad8 <__libc_csu_fini>:
 8049ad8:	55                   	push   %ebp
 8049ad9:	89 e5                	mov    %esp,%ebp
 8049adb:	5d                   	pop    %ebp
 8049adc:	c3                   	ret    

08049add <__libc_csu_init>:
 8049add:	55                   	push   %ebp
 8049ade:	89 e5                	mov    %esp,%ebp
 8049ae0:	57                   	push   %edi
 8049ae1:	56                   	push   %esi
 8049ae2:	53                   	push   %ebx
 8049ae3:	83 ec 0c             	sub    $0xc,%esp
 8049ae6:	e8 4c 00 00 00       	call   8049b37 <__i686.get_pc_thunk.bx>
 8049aeb:	81 c3 6d 17 00 00    	add    $0x176d,%ebx
 8049af1:	e8 02 ed ff ff       	call   80487f8 <_init>
 8049af6:	8d 83 20 ff ff ff    	lea    -0xe0(%ebx),%eax
 8049afc:	8d 93 20 ff ff ff    	lea    -0xe0(%ebx),%edx
 8049b02:	29 d0                	sub    %edx,%eax
 8049b04:	89 c7                	mov    %eax,%edi
 8049b06:	c1 ff 02             	sar    $0x2,%edi
 8049b09:	74 24                	je     8049b2f <__libc_csu_init+0x52>
 8049b0b:	31 f6                	xor    %esi,%esi
 8049b0d:	8b 45 10             	mov    0x10(%ebp),%eax
 8049b10:	89 44 24 08          	mov    %eax,0x8(%esp)
 8049b14:	8b 45 0c             	mov    0xc(%ebp),%eax
 8049b17:	89 44 24 04          	mov    %eax,0x4(%esp)
 8049b1b:	8b 45 08             	mov    0x8(%ebp),%eax
 8049b1e:	89 04 24             	mov    %eax,(%esp)
 8049b21:	ff 94 b3 20 ff ff ff 	call   *-0xe0(%ebx,%esi,4)
 8049b28:	83 c6 01             	add    $0x1,%esi
 8049b2b:	39 fe                	cmp    %edi,%esi
 8049b2d:	72 de                	jb     8049b0d <__libc_csu_init+0x30>
 8049b2f:	83 c4 0c             	add    $0xc,%esp
 8049b32:	5b                   	pop    %ebx
 8049b33:	5e                   	pop    %esi
 8049b34:	5f                   	pop    %edi
 8049b35:	5d                   	pop    %ebp
 8049b36:	c3                   	ret    

08049b37 <__i686.get_pc_thunk.bx>:
 8049b37:	8b 1c 24             	mov    (%esp),%ebx
 8049b3a:	c3                   	ret    
 8049b3b:	90                   	nop
 8049b3c:	90                   	nop
 8049b3d:	90                   	nop
 8049b3e:	90                   	nop
 8049b3f:	90                   	nop

08049b40 <__do_global_ctors_aux>:
 8049b40:	55                   	push   %ebp
 8049b41:	89 e5                	mov    %esp,%ebp
 8049b43:	53                   	push   %ebx
 8049b44:	83 ec 04             	sub    $0x4,%esp
 8049b47:	a1 78 b1 04 08       	mov    0x804b178,%eax
 8049b4c:	83 f8 ff             	cmp    $0xffffffff,%eax
 8049b4f:	74 13                	je     8049b64 <__do_global_ctors_aux+0x24>
 8049b51:	bb 78 b1 04 08       	mov    $0x804b178,%ebx
 8049b56:	66 90                	xchg   %ax,%ax
 8049b58:	83 eb 04             	sub    $0x4,%ebx
 8049b5b:	ff d0                	call   *%eax
 8049b5d:	8b 03                	mov    (%ebx),%eax
 8049b5f:	83 f8 ff             	cmp    $0xffffffff,%eax
 8049b62:	75 f4                	jne    8049b58 <__do_global_ctors_aux+0x18>
 8049b64:	83 c4 04             	add    $0x4,%esp
 8049b67:	5b                   	pop    %ebx
 8049b68:	5d                   	pop    %ebp
 8049b69:	c3                   	ret    
 8049b6a:	90                   	nop
 8049b6b:	90                   	nop

Disassembly of section .fini:

08049b6c <_fini>:
 8049b6c:	55                   	push   %ebp
 8049b6d:	89 e5                	mov    %esp,%ebp
 8049b6f:	53                   	push   %ebx
 8049b70:	83 ec 04             	sub    $0x4,%esp
 8049b73:	e8 00 00 00 00       	call   8049b78 <_fini+0xc>
 8049b78:	5b                   	pop    %ebx
 8049b79:	81 c3 e0 16 00 00    	add    $0x16e0,%ebx
 8049b7f:	e8 0c ef ff ff       	call   8048a90 <__do_global_dtors_aux>
 8049b84:	59                   	pop    %ecx
 8049b85:	5b                   	pop    %ebx
 8049b86:	c9                   	leave  
 8049b87:	c3                   	ret    

Disassembly of section .rodata:

08049ba0 <_fp_hw>:
 8049ba0:	03 00                	add    (%eax),%eax
	...

08049ba4 <_IO_stdin_used>:
 8049ba4:	01 00                	add    %eax,(%eax)
 8049ba6:	02 00                	add    (%eax),%al
 8049ba8:	25 73 3a 20 45       	and    $0x45203a73,%eax
 8049bad:	72 72                	jb     8049c21 <_IO_stdin_used+0x7d>
 8049baf:	6f                   	outsl  %ds:(%esi),(%dx)
 8049bb0:	72 3a                	jb     8049bec <_IO_stdin_used+0x48>
 8049bb2:	20 43 6f             	and    %al,0x6f(%ebx)
 8049bb5:	75 6c                	jne    8049c23 <_IO_stdin_used+0x7f>
 8049bb7:	64 6e                	outsb  %fs:(%esi),(%dx)
 8049bb9:	27                   	daa    
 8049bba:	74 20                	je     8049bdc <_IO_stdin_used+0x38>
 8049bbc:	6f                   	outsl  %ds:(%esi),(%dx)
 8049bbd:	70 65                	jo     8049c24 <_IO_stdin_used+0x80>
 8049bbf:	6e                   	outsb  %ds:(%esi),(%dx)
 8049bc0:	20 25 73 0a 00 55    	and    %ah,0x55000a73
 8049bc6:	73 61                	jae    8049c29 <_IO_stdin_used+0x85>
 8049bc8:	67 65 3a 20          	cmp    %gs:(%bx,%si),%ah
 8049bcc:	25 73 20 5b 3c       	and    $0x3c5b2073,%eax
 8049bd1:	69 6e 70 75 74 5f 66 	imul   $0x665f7475,0x70(%esi),%ebp
 8049bd8:	69 6c 65 3e 5d 0a 00 	imul   $0x54000a5d,0x3e(%ebp,%eiz,2),%ebp
 8049bdf:	54 
 8049be0:	68 61 74 27 73       	push   $0x73277461
 8049be5:	20 6e 75             	and    %ch,0x75(%esi)
 8049be8:	6d                   	insl   (%dx),%es:(%edi)
 8049be9:	62 65 72             	bound  %esp,0x72(%ebp)
 8049bec:	20 32                	and    %dh,(%edx)
 8049bee:	2e 20 20             	and    %ah,%cs:(%eax)
 8049bf1:	4b                   	dec    %ebx
 8049bf2:	65                   	gs
 8049bf3:	65                   	gs
 8049bf4:	70 20                	jo     8049c16 <_IO_stdin_used+0x72>
 8049bf6:	67 6f                	outsl  %ds:(%si),(%dx)
 8049bf8:	69 6e 67 21 00 48 61 	imul   $0x61480021,0x67(%esi),%ebp
 8049bff:	6c                   	insb   (%dx),%es:(%edi)
 8049c00:	66                   	data16
 8049c01:	77 61                	ja     8049c64 <_IO_stdin_used+0xc0>
 8049c03:	79 20                	jns    8049c25 <_IO_stdin_used+0x81>
 8049c05:	74 68                	je     8049c6f <_IO_stdin_used+0xcb>
 8049c07:	65                   	gs
 8049c08:	72 65                	jb     8049c6f <_IO_stdin_used+0xcb>
 8049c0a:	21 00                	and    %eax,(%eax)
 8049c0c:	47                   	inc    %edi
 8049c0d:	6f                   	outsl  %ds:(%esi),(%dx)
 8049c0e:	6f                   	outsl  %ds:(%esi),(%dx)
 8049c0f:	64 20 77 6f          	and    %dh,%fs:0x6f(%edi)
 8049c13:	72 6b                	jb     8049c80 <_IO_stdin_used+0xdc>
 8049c15:	21 20                	and    %esp,(%eax)
 8049c17:	20 4f 6e             	and    %cl,0x6e(%edi)
 8049c1a:	20 74 6f 20          	and    %dh,0x20(%edi,%ebp,2)
 8049c1e:	74 68                	je     8049c88 <_IO_stdin_used+0xe4>
 8049c20:	65 20 6e 65          	and    %ch,%gs:0x65(%esi)
 8049c24:	78 74                	js     8049c9a <_IO_stdin_used+0xf6>
 8049c26:	2e 2e 2e 00 00       	cs cs add %al,%cs:(%eax)
 8049c2b:	00 57 65             	add    %dl,0x65(%edi)
 8049c2e:	6c                   	insb   (%dx),%es:(%edi)
 8049c2f:	63 6f 6d             	arpl   %bp,0x6d(%edi)
 8049c32:	65 20 74 6f 20       	and    %dh,%gs:0x20(%edi,%ebp,2)
 8049c37:	6d                   	insl   (%dx),%es:(%edi)
 8049c38:	79 20                	jns    8049c5a <_IO_stdin_used+0xb6>
 8049c3a:	66 69 65 6e 64 69    	imul   $0x6964,0x6e(%ebp),%sp
 8049c40:	73 68                	jae    8049caa <_IO_stdin_used+0x106>
 8049c42:	20 6c 69 74          	and    %ch,0x74(%ecx,%ebp,2)
 8049c46:	74 6c                	je     8049cb4 <_IO_stdin_used+0x110>
 8049c48:	65 20 62 6f          	and    %ah,%gs:0x6f(%edx)
 8049c4c:	6d                   	insl   (%dx),%es:(%edi)
 8049c4d:	62 2e                	bound  %ebp,(%esi)
 8049c4f:	20 59 6f             	and    %bl,0x6f(%ecx)
 8049c52:	75 20                	jne    8049c74 <_IO_stdin_used+0xd0>
 8049c54:	68 61 76 65 20       	push   $0x20657661
 8049c59:	36 20 70 68          	and    %dh,%ss:0x68(%eax)
 8049c5d:	61                   	popa   
 8049c5e:	73 65                	jae    8049cc5 <_IO_stdin_used+0x121>
 8049c60:	73 20                	jae    8049c82 <_IO_stdin_used+0xde>
 8049c62:	77 69                	ja     8049ccd <_IO_stdin_used+0x129>
 8049c64:	74 68                	je     8049cce <_IO_stdin_used+0x12a>
 8049c66:	00 00                	add    %al,(%eax)
 8049c68:	77 68                	ja     8049cd2 <_IO_stdin_used+0x12e>
 8049c6a:	69 63 68 20 74 6f 20 	imul   $0x206f7420,0x68(%ebx),%esp
 8049c71:	62 6c 6f 77          	bound  %ebp,0x77(%edi,%ebp,2)
 8049c75:	20 79 6f             	and    %bh,0x6f(%ecx)
 8049c78:	75 72                	jne    8049cec <_IO_stdin_used+0x148>
 8049c7a:	73 65                	jae    8049ce1 <_IO_stdin_used+0x13d>
 8049c7c:	6c                   	insb   (%dx),%es:(%edi)
 8049c7d:	66                   	data16
 8049c7e:	20 75 70             	and    %dh,0x70(%ebp)
 8049c81:	2e 20 48 61          	and    %cl,%cs:0x61(%eax)
 8049c85:	76 65                	jbe    8049cec <_IO_stdin_used+0x148>
 8049c87:	20 61 20             	and    %ah,0x20(%ecx)
 8049c8a:	6e                   	outsb  %ds:(%esi),(%dx)
 8049c8b:	69 63 65 20 64 61 79 	imul   $0x79616420,0x65(%ebx),%esp
 8049c92:	21 00                	and    %eax,(%eax)
 8049c94:	50                   	push   %eax
 8049c95:	68 61 73 65 20       	push   $0x20657361
 8049c9a:	31 20                	xor    %esp,(%eax)
 8049c9c:	64                   	fs
 8049c9d:	65                   	gs
 8049c9e:	66                   	data16
 8049c9f:	75 73                	jne    8049d14 <_IO_stdin_used+0x170>
 8049ca1:	65 64 2e 20 48 6f    	gs fs and %cl,%cs:%fs:%gs:0x6f(%eax)
 8049ca7:	77 20                	ja     8049cc9 <_IO_stdin_used+0x125>
 8049ca9:	61                   	popa   
 8049caa:	62 6f 75             	bound  %ebp,0x75(%edi)
 8049cad:	74 20                	je     8049ccf <_IO_stdin_used+0x12b>
 8049caf:	74 68                	je     8049d19 <_IO_stdin_used+0x175>
 8049cb1:	65 20 6e 65          	and    %ch,%gs:0x65(%esi)
 8049cb5:	78 74                	js     8049d2b <_IO_stdin_used+0x187>
 8049cb7:	20 6f 6e             	and    %ch,0x6e(%edi)
 8049cba:	65                   	gs
 8049cbb:	3f                   	aas    
 8049cbc:	00 00                	add    %al,(%eax)
 8049cbe:	00 00                	add    %al,(%eax)
 8049cc0:	53                   	push   %ebx
 8049cc1:	6f                   	outsl  %ds:(%esi),(%dx)
 8049cc2:	20 79 6f             	and    %bh,0x6f(%ecx)
 8049cc5:	75 20                	jne    8049ce7 <_IO_stdin_used+0x143>
 8049cc7:	67 6f                	outsl  %ds:(%si),(%dx)
 8049cc9:	74 20                	je     8049ceb <_IO_stdin_used+0x147>
 8049ccb:	74 68                	je     8049d35 <_IO_stdin_used+0x191>
 8049ccd:	61                   	popa   
 8049cce:	74 20                	je     8049cf0 <_IO_stdin_used+0x14c>
 8049cd0:	6f                   	outsl  %ds:(%esi),(%dx)
 8049cd1:	6e                   	outsb  %ds:(%esi),(%dx)
 8049cd2:	65 2e 20 20          	gs and %ah,%cs:%gs:(%eax)
 8049cd6:	54                   	push   %esp
 8049cd7:	72 79                	jb     8049d52 <_IO_stdin_used+0x1ae>
 8049cd9:	20 74 68 69          	and    %dh,0x69(%eax,%ebp,2)
 8049cdd:	73 20                	jae    8049cff <_IO_stdin_used+0x15b>
 8049cdf:	6f                   	outsl  %ds:(%esi),(%dx)
 8049ce0:	6e                   	outsb  %ds:(%esi),(%dx)
 8049ce1:	65 2e 00 57 6f       	gs add %dl,%cs:%gs:0x6f(%edi)
 8049ce6:	77 21                	ja     8049d09 <_IO_stdin_used+0x165>
 8049ce8:	20 59 6f             	and    %bl,0x6f(%ecx)
 8049ceb:	75 27                	jne    8049d14 <_IO_stdin_used+0x170>
 8049ced:	76 65                	jbe    8049d54 <_IO_stdin_used+0x1b0>
 8049cef:	20 64 65 66          	and    %ah,0x66(%ebp,%eiz,2)
 8049cf3:	75 73                	jne    8049d68 <array.2793+0x8>
 8049cf5:	65 64 20 74 68 65    	gs and %dh,%fs:%gs:0x65(%eax,%ebp,2)
 8049cfb:	20 73 65             	and    %dh,0x65(%ebx)
 8049cfe:	63 72 65             	arpl   %si,0x65(%edx)
 8049d01:	74 20                	je     8049d23 <_IO_stdin_used+0x17f>
 8049d03:	73 74                	jae    8049d79 <array.2793+0x19>
 8049d05:	61                   	popa   
 8049d06:	67 65 21 00          	and    %eax,%gs:(%bx,%si)
 8049d0a:	00 00                	add    %al,(%eax)
 8049d0c:	46                   	inc    %esi
 8049d0d:	6f                   	outsl  %ds:(%esi),(%dx)
 8049d0e:	72 20                	jb     8049d30 <_IO_stdin_used+0x18c>
 8049d10:	4e                   	dec    %esi
 8049d11:	41                   	inc    %ecx
 8049d12:	53                   	push   %ebx
 8049d13:	41                   	inc    %ecx
 8049d14:	2c 20                	sub    $0x20,%al
 8049d16:	73 70                	jae    8049d88 <array.2793+0x28>
 8049d18:	61                   	popa   
 8049d19:	63 65 20             	arpl   %sp,0x20(%ebp)
 8049d1c:	69 73 20 73 74 69 6c 	imul   $0x6c697473,0x20(%ebx),%esi
 8049d23:	6c                   	insb   (%dx),%es:(%edi)
 8049d24:	20 61 20             	and    %ah,0x20(%ecx)
 8049d27:	68 69 67 68 20       	push   $0x20686769
 8049d2c:	70 72                	jo     8049da0 <array.2793+0x40>
 8049d2e:	69 6f 72 69 74 79 2e 	imul   $0x2e797469,0x72(%edi),%ebp
	...
 8049d3d:	00 00                	add    %al,(%eax)
 8049d3f:	00 32                	add    %dh,(%edx)
 8049d41:	8f 04 08             	popl   (%eax,%ecx,1)
 8049d44:	27                   	daa    
 8049d45:	8f 04 08             	popl   (%eax,%ecx,1)
 8049d48:	3a 8f 04 08 42 8f    	cmp    -0x70bdf7fc(%edi),%cl
 8049d4e:	04 08                	add    $0x8,%al
 8049d50:	4a                   	dec    %edx
 8049d51:	8f 04 08             	popl   (%eax,%ecx,1)
 8049d54:	52                   	push   %edx
 8049d55:	8f 04 08             	popl   (%eax,%ecx,1)
 8049d58:	5a                   	pop    %edx
 8049d59:	8f 04 08             	popl   (%eax,%ecx,1)
 8049d5c:	62 8f 04 08 0a 00    	bound  %ecx,0xa0804(%edi)

08049d60 <array.2793>:
 8049d60:	0a 00                	or     (%eax),%al
 8049d62:	00 00                	add    %al,(%eax)
 8049d64:	02 00                	add    (%eax),%al
 8049d66:	00 00                	add    %al,(%eax)
 8049d68:	0e                   	push   %cs
 8049d69:	00 00                	add    %al,(%eax)
 8049d6b:	00 07                	add    %al,(%edi)
 8049d6d:	00 00                	add    %al,(%eax)
 8049d6f:	00 08                	add    %cl,(%eax)
 8049d71:	00 00                	add    %al,(%eax)
 8049d73:	00 0c 00             	add    %cl,(%eax,%eax,1)
 8049d76:	00 00                	add    %al,(%eax)
 8049d78:	0f 00 00             	sldt   (%eax)
 8049d7b:	00 0b                	add    %cl,(%ebx)
 8049d7d:	00 00                	add    %al,(%eax)
 8049d7f:	00 00                	add    %al,(%eax)
 8049d81:	00 00                	add    %al,(%eax)
 8049d83:	00 04 00             	add    %al,(%eax,%eax,1)
 8049d86:	00 00                	add    %al,(%eax)
 8049d88:	01 00                	add    %eax,(%eax)
 8049d8a:	00 00                	add    %al,(%eax)
 8049d8c:	0d 00 00 00 03       	or     $0x3000000,%eax
 8049d91:	00 00                	add    %al,(%eax)
 8049d93:	00 09                	add    %cl,(%ecx)
 8049d95:	00 00                	add    %al,(%eax)
 8049d97:	00 06                	add    %al,(%esi)
 8049d99:	00 00                	add    %al,(%eax)
 8049d9b:	00 05 00 00 00 45    	add    %al,0x45000000
 8049da1:	52                   	push   %edx
 8049da2:	52                   	push   %edx
 8049da3:	4f                   	dec    %edi
 8049da4:	52                   	push   %edx
 8049da5:	3a 20                	cmp    (%eax),%ah
 8049da7:	64                   	fs
 8049da8:	75 70                	jne    8049e1a <array.2793+0xba>
 8049daa:	28 30                	sub    %dh,(%eax)
 8049dac:	29 20                	sub    %esp,(%eax)
 8049dae:	65                   	gs
 8049daf:	72 72                	jb     8049e23 <array.2793+0xc3>
 8049db1:	6f                   	outsl  %ds:(%esi),(%dx)
 8049db2:	72 00                	jb     8049db4 <array.2793+0x54>
 8049db4:	45                   	inc    %ebp
 8049db5:	52                   	push   %edx
 8049db6:	52                   	push   %edx
 8049db7:	4f                   	dec    %edi
 8049db8:	52                   	push   %edx
 8049db9:	3a 20                	cmp    (%eax),%ah
 8049dbb:	63 6c 6f 73          	arpl   %bp,0x73(%edi,%ebp,2)
 8049dbf:	65 20 65 72          	and    %ah,%gs:0x72(%ebp)
 8049dc3:	72 6f                	jb     8049e34 <array.2793+0xd4>
 8049dc5:	72 00                	jb     8049dc7 <array.2793+0x67>
 8049dc7:	45                   	inc    %ebp
 8049dc8:	52                   	push   %edx
 8049dc9:	52                   	push   %edx
 8049dca:	4f                   	dec    %edi
 8049dcb:	52                   	push   %edx
 8049dcc:	3a 20                	cmp    (%eax),%ah
 8049dce:	74 6d                	je     8049e3d <array.2793+0xdd>
 8049dd0:	70 66                	jo     8049e38 <array.2793+0xd8>
 8049dd2:	69 6c 65 20 65 72 72 	imul   $0x6f727265,0x20(%ebp,%eiz,2),%ebp
 8049dd9:	6f 
 8049dda:	72 00                	jb     8049ddc <array.2793+0x7c>
 8049ddc:	53                   	push   %ebx
 8049ddd:	75 62                	jne    8049e41 <array.2793+0xe1>
 8049ddf:	6a 65                	push   $0x65
 8049de1:	63 74 3a 20          	arpl   %si,0x20(%edx,%edi,1)
 8049de5:	42                   	inc    %edx
 8049de6:	6f                   	outsl  %ds:(%esi),(%dx)
 8049de7:	6d                   	insl   (%dx),%es:(%edi)
 8049de8:	62 20                	bound  %esp,(%eax)
 8049dea:	6e                   	outsb  %ds:(%esi),(%dx)
 8049deb:	6f                   	outsl  %ds:(%esi),(%dx)
 8049dec:	74 69                	je     8049e57 <array.2793+0xf7>
 8049dee:	66 69 63 61 74 69    	imul   $0x6974,0x61(%ebx),%sp
 8049df4:	6f                   	outsl  %ds:(%esi),(%dx)
 8049df5:	6e                   	outsb  %ds:(%esi),(%dx)
 8049df6:	0a 00                	or     (%eax),%al
 8049df8:	65                   	gs
 8049df9:	78 70                	js     8049e6b <array.2793+0x10b>
 8049dfb:	6c                   	insb   (%dx),%es:(%edi)
 8049dfc:	6f                   	outsl  %ds:(%esi),(%dx)
 8049dfd:	64 65 64 00 64 65 66 	fs gs add %ah,%fs:%gs:0x66(%ebp,%eiz,2)
 8049e04:	75 73                	jne    8049e79 <array.2793+0x119>
 8049e06:	65 64 00 62 6f       	gs add %ah,%fs:%gs:0x6f(%edx)
 8049e0b:	6d                   	insl   (%dx),%es:(%edi)
 8049e0c:	62 2d 68 65 61 64    	bound  %ebp,0x64616568
 8049e12:	65                   	gs
 8049e13:	72 3a                	jb     8049e4f <array.2793+0xef>
 8049e15:	25 73 3a 25 64       	and    $0x64253a73,%eax
 8049e1a:	3a 25 73 3a 25 73    	cmp    0x73253a73,%ah
 8049e20:	3a 25 64 0a 00 62    	cmp    0x62000a64,%ah
 8049e26:	6f                   	outsl  %ds:(%esi),(%dx)
 8049e27:	6d                   	insl   (%dx),%es:(%edi)
 8049e28:	62 2d 73 74 72 69    	bound  %ebp,0x69727473
 8049e2e:	6e                   	outsb  %ds:(%esi),(%dx)
 8049e2f:	67 3a 25             	cmp    (%di),%ah
 8049e32:	73 3a                	jae    8049e6e <array.2793+0x10e>
 8049e34:	25 64 3a 25 73       	and    $0x73253a64,%eax
 8049e39:	3a 25 64 3a 25 73    	cmp    0x73253a64,%ah
 8049e3f:	0a 00                	or     (%eax),%al
 8049e41:	6c                   	insb   (%dx),%es:(%edi)
 8049e42:	6f                   	outsl  %ds:(%esi),(%dx)
 8049e43:	63 61 6c             	arpl   %sp,0x6c(%ecx)
 8049e46:	68 6f 73 74 00       	push   $0x74736f
 8049e4b:	69 63 73 62 6f 6d 62 	imul   $0x626d6f62,0x73(%ebx),%esp
 8049e52:	00 2f                	add    %ch,(%edi)
 8049e54:	75 73                	jne    8049ec9 <array.2793+0x169>
 8049e56:	72 2f                	jb     8049e87 <array.2793+0x127>
 8049e58:	73 62                	jae    8049ebc <array.2793+0x15c>
 8049e5a:	69 6e 2f 73 65 6e 64 	imul   $0x646e6573,0x2f(%esi),%ebp
 8049e61:	6d                   	insl   (%dx),%es:(%edi)
 8049e62:	61                   	popa   
 8049e63:	69 6c 20 2d 62 6d 00 	imul   $0x25006d62,0x2d(%eax,%eiz,1),%ebp
 8049e6a:	25 
 8049e6b:	73 20                	jae    8049e8d <array.2793+0x12d>
 8049e6d:	25 73 40 25 73       	and    $0x73254073,%eax
 8049e72:	00 45 52             	add    %al,0x52(%ebp)
 8049e75:	52                   	push   %edx
 8049e76:	4f                   	dec    %edi
 8049e77:	52                   	push   %edx
 8049e78:	3a 20                	cmp    (%eax),%ah
 8049e7a:	6e                   	outsb  %ds:(%esi),(%dx)
 8049e7b:	6f                   	outsl  %ds:(%esi),(%dx)
 8049e7c:	74 69                	je     8049ee7 <array.2793+0x187>
 8049e7e:	66 69 63 61 74 69    	imul   $0x6974,0x61(%ebx),%sp
 8049e84:	6f                   	outsl  %ds:(%esi),(%dx)
 8049e85:	6e                   	outsb  %ds:(%esi),(%dx)
 8049e86:	20 65 72             	and    %ah,0x72(%ebp)
 8049e89:	72 6f                	jb     8049efa <array.2793+0x19a>
 8049e8b:	72 00                	jb     8049e8d <array.2793+0x12d>
 8049e8d:	45                   	inc    %ebp
 8049e8e:	52                   	push   %edx
 8049e8f:	52                   	push   %edx
 8049e90:	4f                   	dec    %edi
 8049e91:	52                   	push   %edx
 8049e92:	3a 20                	cmp    (%eax),%ah
 8049e94:	66                   	data16
 8049e95:	63 6c 6f 73          	arpl   %bp,0x73(%edi,%ebp,2)
 8049e99:	65 28 74 6d 70       	sub    %dh,%gs:0x70(%ebp,%ebp,2)
 8049e9e:	29 20                	sub    %esp,(%eax)
 8049ea0:	65                   	gs
 8049ea1:	72 72                	jb     8049f15 <array.2793+0x1b5>
 8049ea3:	6f                   	outsl  %ds:(%esi),(%dx)
 8049ea4:	72 00                	jb     8049ea6 <array.2793+0x146>
 8049ea6:	45                   	inc    %ebp
 8049ea7:	52                   	push   %edx
 8049ea8:	52                   	push   %edx
 8049ea9:	4f                   	dec    %edi
 8049eaa:	52                   	push   %edx
 8049eab:	3a 20                	cmp    (%eax),%ah
 8049ead:	64                   	fs
 8049eae:	75 70                	jne    8049f20 <array.2793+0x1c0>
 8049eb0:	28 74 6d 70          	sub    %dh,0x70(%ebp,%ebp,2)
 8049eb4:	73 74                	jae    8049f2a <array.2793+0x1ca>
 8049eb6:	64 69 6e 29 20 65 72 	imul   $0x72726520,%fs:0x29(%esi),%ebp
 8049ebd:	72 
 8049ebe:	6f                   	outsl  %ds:(%esi),(%dx)
 8049ebf:	72 00                	jb     8049ec1 <array.2793+0x161>
 8049ec1:	45                   	inc    %ebp
 8049ec2:	52                   	push   %edx
 8049ec3:	52                   	push   %edx
 8049ec4:	4f                   	dec    %edi
 8049ec5:	52                   	push   %edx
 8049ec6:	3a 20                	cmp    (%eax),%ah
 8049ec8:	63 6c 6f 73          	arpl   %bp,0x73(%edi,%ebp,2)
 8049ecc:	65 28 74 6d 70       	sub    %dh,%gs:0x70(%ebp,%ebp,2)
 8049ed1:	73 74                	jae    8049f47 <array.2793+0x1e7>
 8049ed3:	64 69 6e 29 00 73 6f 	imul   $0x636f7300,%fs:0x29(%esi),%ebp
 8049eda:	63 
 8049edb:	6b 65 74 20          	imul   $0x20,0x74(%ebp),%esp
 8049edf:	65                   	gs
 8049ee0:	72 72                	jb     8049f54 <array.2793+0x1f4>
 8049ee2:	6f                   	outsl  %ds:(%esi),(%dx)
 8049ee3:	72 00                	jb     8049ee5 <array.2793+0x185>
 8049ee5:	32 30                	xor    (%eax),%dh
 8049ee7:	32 2e                	xor    (%esi),%ch
 8049ee9:	31 32                	xor    %esi,(%edx)
 8049eeb:	30 2e                	xor    %ch,(%esi)
 8049eed:	34 30                	xor    $0x30,%al
 8049eef:	2e 31 38             	xor    %edi,%cs:(%eax)
 8049ef2:	38 00                	cmp    %al,(%eax)
 8049ef4:	63 6f 6e             	arpl   %bp,0x6e(%edi)
 8049ef7:	6e                   	outsb  %ds:(%esi),(%dx)
 8049ef8:	65 63 74 20 65       	arpl   %si,%gs:0x65(%eax,%eiz,1)
 8049efd:	72 72                	jb     8049f71 <array.2793+0x211>
 8049eff:	6f                   	outsl  %ds:(%esi),(%dx)
 8049f00:	72 00                	jb     8049f02 <array.2793+0x1a2>
 8049f02:	73 6f                	jae    8049f73 <array.2793+0x213>
 8049f04:	63 6b 65             	arpl   %bp,0x65(%ebx)
 8049f07:	74 20                	je     8049f29 <array.2793+0x1c9>
 8049f09:	77 72                	ja     8049f7d <array.2793+0x21d>
 8049f0b:	69 74 65 20 65 72 72 	imul   $0x6f727265,0x20(%ebp,%eiz,2),%esi
 8049f12:	6f 
 8049f13:	72 00                	jb     8049f15 <array.2793+0x1b5>
 8049f15:	25 64 20 25 73       	and    $0x73252064,%eax
 8049f1a:	00 61 75             	add    %ah,0x75(%ecx)
 8049f1d:	73 74                	jae    8049f93 <array.2793+0x233>
 8049f1f:	69 6e 70 6f 77 65 72 	imul   $0x7265776f,0x70(%esi),%ebp
 8049f26:	73 00                	jae    8049f28 <array.2793+0x1c8>
 8049f28:	0a 42 4f             	or     0x4f(%edx),%al
 8049f2b:	4f                   	dec    %edi
 8049f2c:	4d                   	dec    %ebp
 8049f2d:	21 21                	and    %esp,(%ecx)
 8049f2f:	21 00                	and    %eax,(%eax)
 8049f31:	54                   	push   %esp
 8049f32:	68 65 20 62 6f       	push   $0x6f622065
 8049f37:	6d                   	insl   (%dx),%es:(%edi)
 8049f38:	62 20                	bound  %esp,(%eax)
 8049f3a:	68 61 73 20 62       	push   $0x62207361
 8049f3f:	6c                   	insb   (%dx),%es:(%edi)
 8049f40:	6f                   	outsl  %ds:(%esi),(%dx)
 8049f41:	77 6e                	ja     8049fb1 <array.2793+0x251>
 8049f43:	20 75 70             	and    %dh,0x70(%ebp)
 8049f46:	2e 00 25 64 20 25 64 	add    %ah,%cs:0x64252064
 8049f4d:	20 25 64 20 25 64    	and    %ah,0x64252064
 8049f53:	20 25 64 20 25 64    	and    %ah,0x64252064
 8049f59:	00 45 72             	add    %al,0x72(%ebp)
 8049f5c:	72 6f                	jb     8049fcd <array.2793+0x26d>
 8049f5e:	72 3a                	jb     8049f9a <array.2793+0x23a>
 8049f60:	20 50 72             	and    %dl,0x72(%eax)
 8049f63:	65                   	gs
 8049f64:	6d                   	insl   (%dx),%es:(%edi)
 8049f65:	61                   	popa   
 8049f66:	74 75                	je     8049fdd <array.2793+0x27d>
 8049f68:	72 65                	jb     8049fcf <array.2793+0x26f>
 8049f6a:	20 45 4f             	and    %al,0x4f(%ebp)
 8049f6d:	46                   	inc    %esi
 8049f6e:	20 6f 6e             	and    %ch,0x6e(%edi)
 8049f71:	20 73 74             	and    %dh,0x74(%ebx)
 8049f74:	64 69 6e 00 47 52 41 	imul   $0x44415247,%fs:0x0(%esi),%ebp
 8049f7b:	44 
 8049f7c:	45                   	inc    %ebp
 8049f7d:	5f                   	pop    %edi
 8049f7e:	42                   	inc    %edx
 8049f7f:	4f                   	dec    %edi
 8049f80:	4d                   	dec    %ebp
 8049f81:	42                   	inc    %edx
 8049f82:	00 45 72             	add    %al,0x72(%ebp)
 8049f85:	72 6f                	jb     8049ff6 <array.2793+0x296>
 8049f87:	72 3a                	jb     8049fc3 <array.2793+0x263>
 8049f89:	20 49 6e             	and    %cl,0x6e(%ecx)
 8049f8c:	70 75                	jo     804a003 <array.2793+0x2a3>
 8049f8e:	74 20                	je     8049fb0 <array.2793+0x250>
 8049f90:	6c                   	insb   (%dx),%es:(%edi)
 8049f91:	69 6e 65 20 74 6f 6f 	imul   $0x6f6f7420,0x65(%esi),%ebp
 8049f98:	20 6c 6f 6e          	and    %ch,0x6e(%edi,%ebp,2)
 8049f9c:	67 00 49 6e          	add    %cl,0x6e(%bx,%di)
 8049fa0:	76 61                	jbe    804a003 <array.2793+0x2a3>
 8049fa2:	6c                   	insb   (%dx),%es:(%edi)
 8049fa3:	69 64 20 70 68 61 73 	imul   $0x65736168,0x70(%eax,%eiz,1),%esp
 8049faa:	65 
 8049fab:	25 73 0a 00 57       	and    $0x57000a73,%eax
 8049fb0:	65                   	gs
 8049fb1:	6c                   	insb   (%dx),%es:(%edi)
 8049fb2:	6c                   	insb   (%dx),%es:(%edi)
 8049fb3:	2e 2e 2e 00 4f 4b    	cs cs add %cl,%cs:0x4b(%edi)
 8049fb9:	2e 20 3a             	and    %bh,%cs:(%edx)
 8049fbc:	2d 29 00 42 61       	sub    $0x61420029,%eax
 8049fc1:	64 20 68 6f          	and    %ch,%fs:0x6f(%eax)
 8049fc5:	73 74                	jae    804a03b <array.2793+0x2db>
 8049fc7:	20 28                	and    %ch,(%eax)
 8049fc9:	31 29                	xor    %ebp,(%ecx)
 8049fcb:	2e 00 42 61          	add    %al,%cs:0x61(%edx)
 8049fcf:	64 20 68 6f          	and    %ch,%fs:0x6f(%eax)
 8049fd3:	73 74                	jae    804a049 <array.2793+0x2e9>
 8049fd5:	20 28                	and    %ch,(%eax)
 8049fd7:	32 29                	xor    (%ecx),%ch
 8049fd9:	2e 00 42 61          	add    %al,%cs:0x61(%edx)
 8049fdd:	64 20 68 6f          	and    %ch,%fs:0x6f(%eax)
 8049fe1:	73 74                	jae    804a057 <array.2793+0x2f7>
 8049fe3:	20 28                	and    %ch,(%eax)
 8049fe5:	33 29                	xor    (%ecx),%ebp
 8049fe7:	2e 00 00             	add    %al,%cs:(%eax)
 8049fea:	00 00                	add    %al,(%eax)
 8049fec:	43                   	inc    %ebx
 8049fed:	75 72                	jne    804a061 <array.2793+0x301>
 8049fef:	73 65                	jae    804a056 <array.2793+0x2f6>
 8049ff1:	73 2c                	jae    804a01f <array.2793+0x2bf>
 8049ff3:	20 79 6f             	and    %bh,0x6f(%ecx)
 8049ff6:	75 27                	jne    804a01f <array.2793+0x2bf>
 8049ff8:	76 65                	jbe    804a05f <array.2793+0x2ff>
 8049ffa:	20 66 6f             	and    %ah,0x6f(%esi)
 8049ffd:	75 6e                	jne    804a06d <array.2793+0x30d>
 8049fff:	64 20 74 68 65       	and    %dh,%fs:0x65(%eax,%ebp,2)
 804a004:	20 73 65             	and    %dh,0x65(%ebx)
 804a007:	63 72 65             	arpl   %si,0x65(%edx)
 804a00a:	74 20                	je     804a02c <array.2793+0x2cc>
 804a00c:	70 68                	jo     804a076 <array.2793+0x316>
 804a00e:	61                   	popa   
 804a00f:	73 65                	jae    804a076 <array.2793+0x316>
 804a011:	21 00                	and    %eax,(%eax)
 804a013:	00 42 75             	add    %al,0x75(%edx)
 804a016:	74 20                	je     804a038 <array.2793+0x2d8>
 804a018:	66 69 6e 64 69 6e    	imul   $0x6e69,0x64(%esi),%bp
 804a01e:	67 20 69 74          	and    %ch,0x74(%bx,%di)
 804a022:	20 61 6e             	and    %ah,0x6e(%ecx)
 804a025:	64 20 73 6f          	and    %dh,%fs:0x6f(%ebx)
 804a029:	6c                   	insb   (%dx),%es:(%edi)
 804a02a:	76 69                	jbe    804a095 <array.2793+0x335>
 804a02c:	6e                   	outsb  %ds:(%esi),(%dx)
 804a02d:	67 20 69 74          	and    %ch,0x74(%bx,%di)
 804a031:	20 61 72             	and    %ah,0x72(%ecx)
 804a034:	65 20 71 75          	and    %dh,%gs:0x75(%ecx)
 804a038:	69 74 65 20 64 69 66 	imul   $0x66666964,0x20(%ebp,%eiz,2),%esi
 804a03f:	66 
 804a040:	65                   	gs
 804a041:	72 65                	jb     804a0a8 <array.2793+0x348>
 804a043:	6e                   	outsb  %ds:(%esi),(%dx)
 804a044:	74 2e                	je     804a074 <array.2793+0x314>
 804a046:	2e 2e 00 00          	cs add %al,%cs:(%eax)
 804a04a:	00 00                	add    %al,(%eax)
 804a04c:	43                   	inc    %ebx
 804a04d:	6f                   	outsl  %ds:(%esi),(%dx)
 804a04e:	6e                   	outsb  %ds:(%esi),(%dx)
 804a04f:	67 72 61             	addr16 jb 804a0b3 <array.2793+0x353>
 804a052:	74 75                	je     804a0c9 <array.2793+0x369>
 804a054:	6c                   	insb   (%dx),%es:(%edi)
 804a055:	61                   	popa   
 804a056:	74 69                	je     804a0c1 <array.2793+0x361>
 804a058:	6f                   	outsl  %ds:(%esi),(%dx)
 804a059:	6e                   	outsb  %ds:(%esi),(%dx)
 804a05a:	73 21                	jae    804a07d <array.2793+0x31d>
 804a05c:	20 59 6f             	and    %bl,0x6f(%ecx)
 804a05f:	75 27                	jne    804a088 <array.2793+0x328>
 804a061:	76 65                	jbe    804a0c8 <array.2793+0x368>
 804a063:	20 64 65 66          	and    %ah,0x66(%ebp,%eiz,2)
 804a067:	75 73                	jne    804a0dc <array.2793+0x37c>
 804a069:	65 64 20 74 68 65    	gs and %dh,%fs:%gs:0x65(%eax,%ebp,2)
 804a06f:	20 62 6f             	and    %ah,0x6f(%edx)
 804a072:	6d                   	insl   (%dx),%es:(%edi)
 804a073:	62 21                	bound  %esp,(%ecx)
 804a075:	00 00                	add    %al,(%eax)
 804a077:	00 59 6f             	add    %bl,0x6f(%ecx)
 804a07a:	75 72                	jne    804a0ee <array.2793+0x38e>
 804a07c:	20 69 6e             	and    %ch,0x6e(%ecx)
 804a07f:	73 74                	jae    804a0f5 <array.2793+0x395>
 804a081:	72 75                	jb     804a0f8 <array.2793+0x398>
 804a083:	63 74 6f 72          	arpl   %si,0x72(%edi,%ebp,2)
 804a087:	20 68 61             	and    %ch,0x61(%eax)
 804a08a:	73 20                	jae    804a0ac <array.2793+0x34c>
 804a08c:	62 65 65             	bound  %esp,0x65(%ebp)
 804a08f:	6e                   	outsb  %ds:(%esi),(%dx)
 804a090:	20 6e 6f             	and    %ch,0x6f(%esi)
 804a093:	74 69                	je     804a0fe <array.2793+0x39e>
 804a095:	66 69 65 64 20 61    	imul   $0x6120,0x64(%ebp),%sp
 804a09b:	6e                   	outsb  %ds:(%esi),(%dx)
 804a09c:	64 20 77 69          	and    %dh,%fs:0x69(%edi)
 804a0a0:	6c                   	insb   (%dx),%es:(%edi)
 804a0a1:	6c                   	insb   (%dx),%es:(%edi)
 804a0a2:	20 76 65             	and    %dh,0x65(%esi)
 804a0a5:	72 69                	jb     804a110 <array.2793+0x3b0>
 804a0a7:	66                   	data16
 804a0a8:	79 20                	jns    804a0ca <array.2793+0x36a>
 804a0aa:	79 6f                	jns    804a11b <array.2793+0x3bb>
 804a0ac:	75 72                	jne    804a120 <array.2793+0x3c0>
 804a0ae:	20 73 6f             	and    %dh,0x6f(%ebx)
 804a0b1:	6c                   	insb   (%dx),%es:(%edi)
 804a0b2:	75 74                	jne    804a128 <array.2793+0x3c8>
 804a0b4:	69 6f 6e 2e 00 00 00 	imul   $0x2e,0x6e(%edi),%ebp
 804a0bb:	00 59 6f             	add    %bl,0x6f(%ecx)
 804a0be:	75 72                	jne    804a132 <array.2793+0x3d2>
 804a0c0:	20 69 6e             	and    %ch,0x6e(%ecx)
 804a0c3:	73 74                	jae    804a139 <array.2793+0x3d9>
 804a0c5:	72 75                	jb     804a13c <array.2793+0x3dc>
 804a0c7:	63 74 6f 72          	arpl   %si,0x72(%edi,%ebp,2)
 804a0cb:	20 68 61             	and    %ch,0x61(%eax)
 804a0ce:	73 20                	jae    804a0f0 <array.2793+0x390>
 804a0d0:	62 65 65             	bound  %esp,0x65(%ebp)
 804a0d3:	6e                   	outsb  %ds:(%esi),(%dx)
 804a0d4:	20 6e 6f             	and    %ch,0x6f(%esi)
 804a0d7:	74 69                	je     804a142 <array.2793+0x3e2>
 804a0d9:	66 69 65 64 2e 00    	imul   $0x2e,0x64(%ebp),%sp
 804a0df:	00 53 6f             	add    %dl,0x6f(%ebx)
 804a0e2:	20 79 6f             	and    %bh,0x6f(%ecx)
 804a0e5:	75 20                	jne    804a107 <array.2793+0x3a7>
 804a0e7:	74 68                	je     804a151 <array.2793+0x3f1>
 804a0e9:	69 6e 6b 20 79 6f 75 	imul   $0x756f7920,0x6b(%esi),%ebp
 804a0f0:	20 63 61             	and    %ah,0x61(%ebx)
 804a0f3:	6e                   	outsb  %ds:(%esi),(%dx)
 804a0f4:	20 73 74             	and    %dh,0x74(%ebx)
 804a0f7:	6f                   	outsl  %ds:(%esi),(%dx)
 804a0f8:	70 20                	jo     804a11a <array.2793+0x3ba>
 804a0fa:	74 68                	je     804a164 <array.2793+0x404>
 804a0fc:	65 20 62 6f          	and    %ah,%gs:0x6f(%edx)
 804a100:	6d                   	insl   (%dx),%es:(%edi)
 804a101:	62 20                	bound  %esp,(%eax)
 804a103:	77 69                	ja     804a16e <array.2793+0x40e>
 804a105:	74 68                	je     804a16f <array.2793+0x40f>
 804a107:	20 63 74             	and    %ah,0x74(%ebx)
 804a10a:	72 6c                	jb     804a178 <__FRAME_END__+0x4>
 804a10c:	2d 63 2c 20 64       	sub    $0x64202c63,%eax
 804a111:	6f                   	outsl  %ds:(%esi),(%dx)
 804a112:	20 79 6f             	and    %bh,0x6f(%ecx)
 804a115:	75 3f                	jne    804a156 <array.2793+0x3f6>
	...

Disassembly of section .eh_frame_hdr:

0804a118 <.eh_frame_hdr>:
 804a118:	01 1b                	add    %ebx,(%ebx)
 804a11a:	03 3b                	add    (%ebx),%edi
 804a11c:	10 00                	adc    %al,(%eax)
 804a11e:	00 00                	add    %al,(%eax)
 804a120:	01 00                	add    %eax,(%eax)
 804a122:	00 00                	add    %al,(%eax)
 804a124:	fc                   	cld    
 804a125:	e9 ff ff 2c 00       	jmp    831a129 <_end+0x2ce1d9>
	...

Disassembly of section .eh_frame:

0804a12c <__FRAME_END__-0x48>:
 804a12c:	14 00                	adc    $0x0,%al
 804a12e:	00 00                	add    %al,(%eax)
 804a130:	00 00                	add    %al,(%eax)
 804a132:	00 00                	add    %al,(%eax)
 804a134:	01 7a 52             	add    %edi,0x52(%edx)
 804a137:	00 01                	add    %al,(%ecx)
 804a139:	7c 08                	jl     804a143 <array.2793+0x3e3>
 804a13b:	01 1b                	add    %ebx,(%ebx)
 804a13d:	0c 04                	or     $0x4,%al
 804a13f:	04 88                	add    $0x88,%al
 804a141:	01 00                	add    %eax,(%eax)
 804a143:	00 2c 00             	add    %ch,(%eax,%eax,1)
 804a146:	00 00                	add    %al,(%eax)
 804a148:	1c 00                	sbb    $0x0,%al
 804a14a:	00 00                	add    %al,(%eax)
 804a14c:	c8 e9 ff ff          	enter  $0xffe9,$0xff
 804a150:	5c                   	pop    %esp
 804a151:	01 00                	add    %eax,(%eax)
 804a153:	00 00                	add    %al,(%eax)
 804a155:	41                   	inc    %ecx
 804a156:	0e                   	push   %cs
 804a157:	08 42 85             	or     %al,-0x7b(%edx)
 804a15a:	02 0d 05 4e 10 03    	add    0x3104e05,%cl
 804a160:	07                   	pop    %es
 804a161:	55                   	push   %ebp
 804a162:	09 f0                	or     %esi,%eax
 804a164:	1a 09                	sbb    (%ecx),%cl
 804a166:	f8                   	clc    
 804a167:	22 10                	and    (%eax),%dl
 804a169:	06                   	push   %es
 804a16a:	07                   	pop    %es
 804a16b:	55                   	push   %ebp
 804a16c:	09 f0                	or     %esi,%eax
 804a16e:	1a 09                	sbb    (%ecx),%cl
 804a170:	fc                   	cld    
 804a171:	22 00                	and    (%eax),%al
	...

0804a174 <__FRAME_END__>:
 804a174:	00 00                	add    %al,(%eax)
	...

Disassembly of section .ctors:

0804b178 <__CTOR_LIST__>:
 804b178:	ff                   	(bad)  
 804b179:	ff                   	(bad)  
 804b17a:	ff                   	(bad)  
 804b17b:	ff 00                	incl   (%eax)

0804b17c <__CTOR_END__>:
 804b17c:	00 00                	add    %al,(%eax)
	...

Disassembly of section .dtors:

0804b180 <__DTOR_LIST__>:
 804b180:	ff                   	(bad)  
 804b181:	ff                   	(bad)  
 804b182:	ff                   	(bad)  
 804b183:	ff 00                	incl   (%eax)

0804b184 <__DTOR_END__>:
 804b184:	00 00                	add    %al,(%eax)
	...

Disassembly of section .jcr:

0804b188 <__JCR_END__>:
 804b188:	00 00                	add    %al,(%eax)
	...

Disassembly of section .dynamic:

0804b18c <_DYNAMIC>:
 804b18c:	01 00                	add    %eax,(%eax)
 804b18e:	00 00                	add    %al,(%eax)
 804b190:	10 00                	adc    %al,(%eax)
 804b192:	00 00                	add    %al,(%eax)
 804b194:	0c 00                	or     $0x0,%al
 804b196:	00 00                	add    %al,(%eax)
 804b198:	f8                   	clc    
 804b199:	87 04 08             	xchg   %eax,(%eax,%ecx,1)
 804b19c:	0d 00 00 00 6c       	or     $0x6c000000,%eax
 804b1a1:	9b                   	fwait
 804b1a2:	04 08                	add    $0x8,%al
 804b1a4:	04 00                	add    $0x0,%al
 804b1a6:	00 00                	add    %al,(%eax)
 804b1a8:	68 81 04 08 05       	push   $0x5080481
 804b1ad:	00 00                	add    %al,(%eax)
 804b1af:	00 fc                	add    %bh,%ah
 804b1b1:	84 04 08             	test   %al,(%eax,%ecx,1)
 804b1b4:	06                   	push   %es
 804b1b5:	00 00                	add    %al,(%eax)
 804b1b7:	00 9c 82 04 08 0a 00 	add    %bl,0xa0804(%edx,%eax,4)
 804b1be:	00 00                	add    %al,(%eax)
 804b1c0:	45                   	inc    %ebp
 804b1c1:	01 00                	add    %eax,(%eax)
 804b1c3:	00 0b                	add    %cl,(%ebx)
 804b1c5:	00 00                	add    %al,(%eax)
 804b1c7:	00 10                	add    %dl,(%eax)
 804b1c9:	00 00                	add    %al,(%eax)
 804b1cb:	00 15 00 00 00 00    	add    %dl,0x0
 804b1d1:	00 00                	add    %al,(%eax)
 804b1d3:	00 03                	add    %al,(%ebx)
 804b1d5:	00 00                	add    %al,(%eax)
 804b1d7:	00 58 b2             	add    %bl,-0x4e(%eax)
 804b1da:	04 08                	add    $0x8,%al
 804b1dc:	02 00                	add    (%eax),%al
 804b1de:	00 00                	add    %al,(%eax)
 804b1e0:	10 01                	adc    %al,(%ecx)
 804b1e2:	00 00                	add    %al,(%eax)
 804b1e4:	14 00                	adc    $0x0,%al
 804b1e6:	00 00                	add    %al,(%eax)
 804b1e8:	11 00                	adc    %eax,(%eax)
 804b1ea:	00 00                	add    %al,(%eax)
 804b1ec:	17                   	pop    %ss
 804b1ed:	00 00                	add    %al,(%eax)
 804b1ef:	00 e8                	add    %ch,%al
 804b1f1:	86 04 08             	xchg   %al,(%eax,%ecx,1)
 804b1f4:	11 00                	adc    %eax,(%eax)
 804b1f6:	00 00                	add    %al,(%eax)
 804b1f8:	d0 86 04 08 12 00    	rolb   0x120804(%esi)
 804b1fe:	00 00                	add    %al,(%eax)
 804b200:	18 00                	sbb    %al,(%eax)
 804b202:	00 00                	add    %al,(%eax)
 804b204:	13 00                	adc    (%eax),%eax
 804b206:	00 00                	add    %al,(%eax)
 804b208:	08 00                	or     %al,(%eax)
 804b20a:	00 00                	add    %al,(%eax)
 804b20c:	fe                   	(bad)  
 804b20d:	ff                   	(bad)  
 804b20e:	ff 6f 90             	ljmp   *-0x70(%edi)
 804b211:	86 04 08             	xchg   %al,(%eax,%ecx,1)
 804b214:	ff                   	(bad)  
 804b215:	ff                   	(bad)  
 804b216:	ff 6f 01             	ljmp   *0x1(%edi)
 804b219:	00 00                	add    %al,(%eax)
 804b21b:	00 f0                	add    %dh,%al
 804b21d:	ff                   	(bad)  
 804b21e:	ff 6f 42             	ljmp   *0x42(%edi)
 804b221:	86 04 08             	xchg   %al,(%eax,%ecx,1)
	...

Disassembly of section .got:

0804b254 <.got>:
 804b254:	00 00                	add    %al,(%eax)
	...

Disassembly of section .got.plt:

0804b258 <_GLOBAL_OFFSET_TABLE_>:
 804b258:	8c b1 04 08 00 00    	mov    %?,0x804(%ecx)
 804b25e:	00 00                	add    %al,(%eax)
 804b260:	00 00                	add    %al,(%eax)
 804b262:	00 00                	add    %al,(%eax)
 804b264:	3e 88 04 08          	mov    %al,%ds:(%eax,%ecx,1)
 804b268:	4e                   	dec    %esi
 804b269:	88 04 08             	mov    %al,(%eax,%ecx,1)
 804b26c:	5e                   	pop    %esi
 804b26d:	88 04 08             	mov    %al,(%eax,%ecx,1)
 804b270:	6e                   	outsb  %ds:(%esi),(%dx)
 804b271:	88 04 08             	mov    %al,(%eax,%ecx,1)
 804b274:	7e 88                	jle    804b1fe <_DYNAMIC+0x72>
 804b276:	04 08                	add    $0x8,%al
 804b278:	8e 88 04 08 9e 88    	mov    -0x7761f7fc(%eax),%cs
 804b27e:	04 08                	add    $0x8,%al
 804b280:	ae                   	scas   %es:(%edi),%al
 804b281:	88 04 08             	mov    %al,(%eax,%ecx,1)
 804b284:	be 88 04 08 ce       	mov    $0xce080488,%esi
 804b289:	88 04 08             	mov    %al,(%eax,%ecx,1)
 804b28c:	de 88 04 08 ee 88    	fimul  -0x7711f7fc(%eax)
 804b292:	04 08                	add    $0x8,%al
 804b294:	fe 88 04 08 0e 89    	decb   -0x76f1f7fc(%eax)
 804b29a:	04 08                	add    $0x8,%al
 804b29c:	1e                   	push   %ds
 804b29d:	89 04 08             	mov    %eax,(%eax,%ecx,1)
 804b2a0:	2e 89 04 08          	mov    %eax,%cs:(%eax,%ecx,1)
 804b2a4:	3e 89 04 08          	mov    %eax,%ds:(%eax,%ecx,1)
 804b2a8:	4e                   	dec    %esi
 804b2a9:	89 04 08             	mov    %eax,(%eax,%ecx,1)
 804b2ac:	5e                   	pop    %esi
 804b2ad:	89 04 08             	mov    %eax,(%eax,%ecx,1)
 804b2b0:	6e                   	outsb  %ds:(%esi),(%dx)
 804b2b1:	89 04 08             	mov    %eax,(%eax,%ecx,1)
 804b2b4:	7e 89                	jle    804b23f <_DYNAMIC+0xb3>
 804b2b6:	04 08                	add    $0x8,%al
 804b2b8:	8e 89 04 08 9e 89    	mov    -0x7661f7fc(%ecx),%cs
 804b2be:	04 08                	add    $0x8,%al
 804b2c0:	ae                   	scas   %es:(%edi),%al
 804b2c1:	89 04 08             	mov    %eax,(%eax,%ecx,1)
 804b2c4:	be 89 04 08 ce       	mov    $0xce080489,%esi
 804b2c9:	89 04 08             	mov    %eax,(%eax,%ecx,1)
 804b2cc:	de 89 04 08 ee 89    	fimul  -0x7611f7fc(%ecx)
 804b2d2:	04 08                	add    $0x8,%al
 804b2d4:	fe 89 04 08 0e 8a    	decb   -0x75f1f7fc(%ecx)
 804b2da:	04 08                	add    $0x8,%al
 804b2dc:	1e                   	push   %ds
 804b2dd:	8a 04 08             	mov    (%eax,%ecx,1),%al
 804b2e0:	2e 8a 04 08          	mov    %cs:(%eax,%ecx,1),%al
 804b2e4:	3e 8a 04 08          	mov    %ds:(%eax,%ecx,1),%al
 804b2e8:	4e                   	dec    %esi
 804b2e9:	8a 04 08             	mov    (%eax,%ecx,1),%al

Disassembly of section .data:

0804b300 <__data_start>:
 804b300:	00 00                	add    %al,(%eax)
	...

0804b304 <__dso_handle>:
	...

0804b320 <bomb_id>:
 804b320:	08 50 33             	or     %dl,0x33(%eax)
 804b323:	01 00                	add    %eax,(%eax)
	...

0804b340 <lab_id>:
 804b340:	53                   	push   %ebx
 804b341:	45                   	inc    %ebp
 804b342:	32 30                	xor    (%eax),%dh
 804b344:	31 34 4c             	xor    %esi,(%esp,%ecx,2)
 804b347:	61                   	popa   
 804b348:	62 32                	bound  %esi,(%edx)
	...

0804b740 <node9>:
 804b740:	87 00                	xchg   %eax,(%eax)
 804b742:	00 00                	add    %al,(%eax)
 804b744:	09 00                	or     %eax,(%eax)
 804b746:	00 00                	add    %al,(%eax)
 804b748:	00 00                	add    %al,(%eax)
	...

0804b74c <node8>:
 804b74c:	bf 01 00 00 08       	mov    $0x8000001,%edi
 804b751:	00 00                	add    %al,(%eax)
 804b753:	00 40 b7             	add    %al,-0x49(%eax)
 804b756:	04 08                	add    $0x8,%al

0804b758 <node7>:
 804b758:	ab                   	stos   %eax,%es:(%edi)
 804b759:	02 00                	add    (%eax),%al
 804b75b:	00 07                	add    %al,(%edi)
 804b75d:	00 00                	add    %al,(%eax)
 804b75f:	00 4c b7 04          	add    %cl,0x4(%edi,%esi,4)
 804b763:	08 76 03             	or     %dh,0x3(%esi)

0804b764 <node6>:
 804b764:	76 03                	jbe    804b769 <node6+0x5>
 804b766:	00 00                	add    %al,(%eax)
 804b768:	06                   	push   %es
 804b769:	00 00                	add    %al,(%eax)
 804b76b:	00 58 b7             	add    %bl,-0x49(%eax)
 804b76e:	04 08                	add    $0x8,%al

0804b770 <node5>:
 804b770:	98                   	cwtl   
 804b771:	00 00                	add    %al,(%eax)
 804b773:	00 05 00 00 00 64    	add    %al,0x64000000
 804b779:	b7 04                	mov    $0x4,%bh
 804b77b:	08 54 00 00          	or     %dl,0x0(%eax,%eax,1)

0804b77c <node4>:
 804b77c:	54                   	push   %esp
 804b77d:	00 00                	add    %al,(%eax)
 804b77f:	00 04 00             	add    %al,(%eax,%eax,1)
 804b782:	00 00                	add    %al,(%eax)
 804b784:	70 b7                	jo     804b73d <lab_id+0x3fd>
 804b786:	04 08                	add    $0x8,%al

0804b788 <node3>:
 804b788:	3a 00                	cmp    (%eax),%al
 804b78a:	00 00                	add    %al,(%eax)
 804b78c:	03 00                	add    (%eax),%eax
 804b78e:	00 00                	add    %al,(%eax)
 804b790:	7c b7                	jl     804b749 <node9+0x9>
 804b792:	04 08                	add    $0x8,%al

0804b794 <node2>:
 804b794:	de 00                	fiadd  (%eax)
 804b796:	00 00                	add    %al,(%eax)
 804b798:	02 00                	add    (%eax),%al
 804b79a:	00 00                	add    %al,(%eax)
 804b79c:	88 b7 04 08 f5 01    	mov    %dh,0x1f50804(%edi)

0804b7a0 <node1>:
 804b7a0:	f5                   	cmc    
 804b7a1:	01 00                	add    %eax,(%eax)
 804b7a3:	00 01                	add    %al,(%ecx)
 804b7a5:	00 00                	add    %al,(%eax)
 804b7a7:	00 94 b7 04 08 00 00 	add    %dl,0x804(%edi,%esi,4)

0804b7ac <node0>:
	...
 804b7b4:	a0 b7 04 08 e9       	mov    0xe90804b7,%al

0804b7b8 <n48>:
 804b7b8:	e9 03 00 00 00       	jmp    804b7c0 <n48+0x8>
 804b7bd:	00 00                	add    %al,(%eax)
 804b7bf:	00 00                	add    %al,(%eax)
 804b7c1:	00 00                	add    %al,(%eax)
	...

0804b7c4 <n46>:
 804b7c4:	2f                   	das    
	...

0804b7d0 <n43>:
 804b7d0:	14 00                	adc    $0x0,%al
	...

0804b7dc <n42>:
 804b7dc:	07                   	pop    %es
	...

0804b7e8 <n44>:
 804b7e8:	23 00                	and    (%eax),%eax
	...

0804b7f4 <n47>:
 804b7f4:	63 00                	arpl   %ax,(%eax)
	...

0804b800 <n41>:
 804b800:	01 00                	add    %eax,(%eax)
	...

0804b80c <n45>:
 804b80c:	28 00                	sub    %al,(%eax)
	...

0804b818 <n34>:
 804b818:	6b 00 00             	imul   $0x0,(%eax),%eax
 804b81b:	00 f4                	add    %dh,%ah
 804b81d:	b7 04                	mov    $0x4,%bh
 804b81f:	08 b8 b7 04 08 06    	or     %bh,0x60804b7(%eax)

0804b824 <n31>:
 804b824:	06                   	push   %es
 804b825:	00 00                	add    %al,(%eax)
 804b827:	00 00                	add    %al,(%eax)
 804b829:	b8 04 08 dc b7       	mov    $0xb7dc0804,%eax
 804b82e:	04 08                	add    $0x8,%al

0804b830 <n33>:
 804b830:	2d 00 00 00 0c       	sub    $0xc000000,%eax
 804b835:	b8 04 08 c4 b7       	mov    $0xb7c40804,%eax
 804b83a:	04 08                	add    $0x8,%al

0804b83c <n32>:
 804b83c:	16                   	push   %ss
 804b83d:	00 00                	add    %al,(%eax)
 804b83f:	00 d0                	add    %dl,%al
 804b841:	b7 04                	mov    $0x4,%bh
 804b843:	08 e8                	or     %ch,%al
 804b845:	b7 04                	mov    $0x4,%bh
 804b847:	08 32                	or     %dh,(%edx)

0804b848 <n22>:
 804b848:	32 00                	xor    (%eax),%al
 804b84a:	00 00                	add    %al,(%eax)
 804b84c:	30 b8 04 08 18 b8    	xor    %bh,-0x47e7f7fc(%eax)
 804b852:	04 08                	add    $0x8,%al

0804b854 <n21>:
 804b854:	08 00                	or     %al,(%eax)
 804b856:	00 00                	add    %al,(%eax)
 804b858:	24 b8                	and    $0xb8,%al
 804b85a:	04 08                	add    $0x8,%al
 804b85c:	3c b8                	cmp    $0xb8,%al
 804b85e:	04 08                	add    $0x8,%al

0804b860 <n1>:
 804b860:	24 00                	and    $0x0,%al
 804b862:	00 00                	add    %al,(%eax)
 804b864:	54                   	push   %esp
 804b865:	b8 04 08 48 b8       	mov    $0xb8480804,%eax
 804b86a:	04 08                	add    $0x8,%al

Disassembly of section .bss:

0804b880 <stdin@@GLIBC_2.0>:
	...

0804b8a0 <stdout@@GLIBC_2.0>:
 804b8a0:	00 00                	add    %al,(%eax)
	...

0804b8a4 <completed.5877>:
 804b8a4:	00 00                	add    %al,(%eax)
	...

0804b8a8 <dtor_idx.5879>:
 804b8a8:	00 00                	add    %al,(%eax)
	...

0804b8ac <num_input_strings>:
 804b8ac:	00 00                	add    %al,(%eax)
	...

0804b8b0 <infile>:
	...

0804b8c0 <input_strings>:
	...

0804bf00 <scratch>:
	...

Disassembly of section .comment:

00000000 <.comment>:
   0:	00 47 43             	add    %al,0x43(%edi)
   3:	43                   	inc    %ebx
   4:	3a 20                	cmp    (%eax),%ah
   6:	28 44 65 62          	sub    %al,0x62(%ebp,%eiz,2)
   a:	69 61 6e 20 34 2e 33 	imul   $0x332e3420,0x6e(%ecx),%esp
  11:	2e 32 2d 31 2e 31 29 	xor    %cs:0x29312e31,%ch
  18:	20 34 2e             	and    %dh,(%esi,%ebp,1)
  1b:	33 2e                	xor    (%esi),%ebp
  1d:	32 00                	xor    (%eax),%al
  1f:	00 47 43             	add    %al,0x43(%edi)
  22:	43                   	inc    %ebx
  23:	3a 20                	cmp    (%eax),%ah
  25:	28 44 65 62          	sub    %al,0x62(%ebp,%eiz,2)
  29:	69 61 6e 20 34 2e 33 	imul   $0x332e3420,0x6e(%ecx),%esp
  30:	2e 32 2d 31 2e 31 29 	xor    %cs:0x29312e31,%ch
  37:	20 34 2e             	and    %dh,(%esi,%ebp,1)
  3a:	33 2e                	xor    (%esi),%ebp
  3c:	32 00                	xor    (%eax),%al
  3e:	00 47 43             	add    %al,0x43(%edi)
  41:	43                   	inc    %ebx
  42:	3a 20                	cmp    (%eax),%ah
  44:	28 47 4e             	sub    %al,0x4e(%edi)
  47:	55                   	push   %ebp
  48:	29 20                	sub    %esp,(%eax)
  4a:	34 2e                	xor    $0x2e,%al
  4c:	34 2e                	xor    $0x2e,%al
  4e:	30 00                	xor    %al,(%eax)
  50:	00 47 43             	add    %al,0x43(%edi)
  53:	43                   	inc    %ebx
  54:	3a 20                	cmp    (%eax),%ah
  56:	28 47 4e             	sub    %al,0x4e(%edi)
  59:	55                   	push   %ebp
  5a:	29 20                	sub    %esp,(%eax)
  5c:	34 2e                	xor    $0x2e,%al
  5e:	34 2e                	xor    $0x2e,%al
  60:	30 00                	xor    %al,(%eax)
  62:	00 47 43             	add    %al,0x43(%edi)
  65:	43                   	inc    %ebx
  66:	3a 20                	cmp    (%eax),%ah
  68:	28 47 4e             	sub    %al,0x4e(%edi)
  6b:	55                   	push   %ebp
  6c:	29 20                	sub    %esp,(%eax)
  6e:	34 2e                	xor    $0x2e,%al
  70:	34 2e                	xor    $0x2e,%al
  72:	30 00                	xor    %al,(%eax)
  74:	00 47 43             	add    %al,0x43(%edi)
  77:	43                   	inc    %ebx
  78:	3a 20                	cmp    (%eax),%ah
  7a:	28 47 4e             	sub    %al,0x4e(%edi)
  7d:	55                   	push   %ebp
  7e:	29 20                	sub    %esp,(%eax)
  80:	34 2e                	xor    $0x2e,%al
  82:	34 2e                	xor    $0x2e,%al
  84:	30 00                	xor    %al,(%eax)
  86:	00 47 43             	add    %al,0x43(%edi)
  89:	43                   	inc    %ebx
  8a:	3a 20                	cmp    (%eax),%ah
  8c:	28 44 65 62          	sub    %al,0x62(%ebp,%eiz,2)
  90:	69 61 6e 20 34 2e 33 	imul   $0x332e3420,0x6e(%ecx),%esp
  97:	2e 32 2d 31 2e 31 29 	xor    %cs:0x29312e31,%ch
  9e:	20 34 2e             	and    %dh,(%esi,%ebp,1)
  a1:	33 2e                	xor    (%esi),%ebp
  a3:	32 00                	xor    (%eax),%al
  a5:	00 47 43             	add    %al,0x43(%edi)
  a8:	43                   	inc    %ebx
  a9:	3a 20                	cmp    (%eax),%ah
  ab:	28 47 4e             	sub    %al,0x4e(%edi)
  ae:	55                   	push   %ebp
  af:	29 20                	sub    %esp,(%eax)
  b1:	34 2e                	xor    $0x2e,%al
  b3:	34 2e                	xor    $0x2e,%al
  b5:	30 00                	xor    %al,(%eax)
  b7:	00 47 43             	add    %al,0x43(%edi)
  ba:	43                   	inc    %ebx
  bb:	3a 20                	cmp    (%eax),%ah
  bd:	28 44 65 62          	sub    %al,0x62(%ebp,%eiz,2)
  c1:	69 61 6e 20 34 2e 33 	imul   $0x332e3420,0x6e(%ecx),%esp
  c8:	2e 32 2d 31 2e 31 29 	xor    %cs:0x29312e31,%ch
  cf:	20 34 2e             	and    %dh,(%esi,%ebp,1)
  d2:	33 2e                	xor    (%esi),%ebp
  d4:	32 00                	xor    (%eax),%al

Disassembly of section .debug_aranges:

00000000 <.debug_aranges>:
   0:	24 00                	and    $0x0,%al
   2:	00 00                	add    %al,(%eax)
   4:	02 00                	add    (%eax),%al
   6:	8d 00                	lea    (%eax),%eax
   8:	00 00                	add    %al,(%eax)
   a:	04 00                	add    $0x0,%al
   c:	00 00                	add    %al,(%eax)
   e:	00 00                	add    %al,(%eax)
  10:	f8                   	clc    
  11:	87 04 08             	xchg   %eax,(%eax,%ecx,1)
  14:	22 00                	and    (%eax),%al
  16:	00 00                	add    %al,(%eax)
  18:	6c                   	insb   (%dx),%es:(%edi)
  19:	9b                   	fwait
  1a:	04 08                	add    $0x8,%al
  1c:	13 00                	adc    (%eax),%eax
	...
  26:	00 00                	add    %al,(%eax)
  28:	1c 00                	sbb    $0x0,%al
  2a:	00 00                	add    %al,(%eax)
  2c:	02 00                	add    (%eax),%al
  2e:	17                   	pop    %ss
  2f:	01 00                	add    %eax,(%eax)
  31:	00 04 00             	add    %al,(%eax,%eax,1)
  34:	00 00                	add    %al,(%eax)
  36:	00 00                	add    %al,(%eax)
  38:	14 8b                	adc    $0x8b,%al
  3a:	04 08                	add    $0x8,%al
  3c:	5c                   	pop    %esp
  3d:	01 00                	add    %eax,(%eax)
	...
  47:	00 24 00             	add    %ah,(%eax,%eax,1)
  4a:	00 00                	add    %al,(%eax)
  4c:	02 00                	add    (%eax),%al
  4e:	7f 04                	jg     54 <_init-0x80487a4>
  50:	00 00                	add    %al,(%eax)
  52:	04 00                	add    $0x0,%al
  54:	00 00                	add    %al,(%eax)
  56:	00 00                	add    %al,(%eax)
  58:	24 88                	and    $0x88,%al
  5a:	04 08                	add    $0x8,%al
  5c:	04 00                	add    $0x0,%al
  5e:	00 00                	add    %al,(%eax)
  60:	84 9b 04 08 04 00    	test   %bl,0x40804(%ebx)
	...

Disassembly of section .debug_pubnames:

00000000 <.debug_pubnames>:
   0:	21 00                	and    %eax,(%eax)
   2:	00 00                	add    %al,(%eax)
   4:	02 00                	add    (%eax),%al
   6:	00 00                	add    %al,(%eax)
   8:	00 00                	add    %al,(%eax)
   a:	8d 00                	lea    (%eax),%eax
   c:	00 00                	add    %al,(%eax)
   e:	75 00                	jne    10 <_init-0x80487e8>
  10:	00 00                	add    %al,(%eax)
  12:	5f                   	pop    %edi
  13:	49                   	dec    %ecx
  14:	4f                   	dec    %edi
  15:	5f                   	pop    %edi
  16:	73 74                	jae    8c <_init-0x804876c>
  18:	64 69 6e 5f 75 73 65 	imul   $0x64657375,%fs:0x5f(%esi),%ebp
  1f:	64 
  20:	00 00                	add    %al,(%eax)
  22:	00 00                	add    %al,(%eax)
  24:	00 22                	add    %ah,(%edx)
  26:	00 00                	add    %al,(%eax)
  28:	00 02                	add    %al,(%edx)
  2a:	00 17                	add    %dl,(%edi)
  2c:	01 00                	add    %eax,(%eax)
  2e:	00 68 03             	add    %ch,0x3(%eax)
  31:	00 00                	add    %al,(%eax)
  33:	e4 02                	in     $0x2,%al
  35:	00 00                	add    %al,(%eax)
  37:	6d                   	insl   (%dx),%es:(%edi)
  38:	61                   	popa   
  39:	69 6e 00 4f 03 00 00 	imul   $0x34f,0x0(%esi),%ebp
  40:	69 6e 66 69 6c 65 00 	imul   $0x656c69,0x66(%esi),%ebp
  47:	00 00                	add    %al,(%eax)
	...

Disassembly of section .debug_info:

00000000 <.debug_info>:
   0:	89 00                	mov    %eax,(%eax)
   2:	00 00                	add    %al,(%eax)
   4:	02 00                	add    (%eax),%al
   6:	00 00                	add    %al,(%eax)
   8:	00 00                	add    %al,(%eax)
   a:	04 01                	add    $0x1,%al
   c:	2f                   	das    
   d:	00 00                	add    %al,(%eax)
   f:	00 01                	add    %al,(%ecx)
  11:	8c 00                	mov    %es,(%eax)
  13:	00 00                	add    %al,(%eax)
  15:	00 00                	add    %al,(%eax)
  17:	00 00                	add    %al,(%eax)
  19:	84 8a 04 08 84 8a    	test   %cl,-0x757bf7fc(%edx)
  1f:	04 08                	add    $0x8,%al
  21:	00 00                	add    %al,(%eax)
  23:	00 00                	add    %al,(%eax)
  25:	02 01                	add    (%ecx),%al
  27:	08 7e 00             	or     %bh,0x0(%esi)
  2a:	00 00                	add    %al,(%eax)
  2c:	02 02                	add    (%edx),%al
  2e:	07                   	pop    %es
  2f:	3b 00                	cmp    (%eax),%eax
  31:	00 00                	add    %al,(%eax)
  33:	02 04 07             	add    (%edi,%eax,1),%al
  36:	71 00                	jno    38 <_init-0x80487c0>
  38:	00 00                	add    %al,(%eax)
  3a:	02 04 07             	add    (%edi,%eax,1),%al
  3d:	6c                   	insb   (%dx),%es:(%edi)
  3e:	00 00                	add    %al,(%eax)
  40:	00 02                	add    %al,(%edx)
  42:	01 06                	add    %eax,(%esi)
  44:	80 00 00             	addb   $0x0,(%eax)
  47:	00 02                	add    %al,(%edx)
  49:	02 05 4e 00 00 00    	add    0x4e,%al
  4f:	03 04 05 69 6e 74 00 	add    0x746e69(,%eax,1),%eax
  56:	02 08                	add    (%eax),%cl
  58:	05 93 00 00 00       	add    $0x93,%eax
  5d:	02 08                	add    (%eax),%cl
  5f:	07                   	pop    %es
  60:	67 00 00             	add    %al,(%bx,%si)
  63:	00 02                	add    %al,(%edx)
  65:	04 05                	add    $0x5,%al
  67:	98                   	cwtl   
  68:	00 00                	add    %al,(%eax)
  6a:	00 04 04             	add    %al,(%esp,%eax,1)
  6d:	07                   	pop    %es
  6e:	02 01                	add    (%ecx),%al
  70:	06                   	push   %es
  71:	87 00                	xchg   %eax,(%eax)
  73:	00 00                	add    %al,(%eax)
  75:	05 58 00 00 00       	add    $0x58,%eax
  7a:	01 19                	add    %ebx,(%ecx)
  7c:	87 00                	xchg   %eax,(%eax)
  7e:	00 00                	add    %al,(%eax)
  80:	01 05 03 a4 9b 04    	add    %eax,0x49ba403
  86:	08 06                	or     %al,(%esi)
  88:	4f                   	dec    %edi
  89:	00 00                	add    %al,(%eax)
  8b:	00 00                	add    %al,(%eax)
  8d:	86 00                	xchg   %al,(%eax)
  8f:	00 00                	add    %al,(%eax)
  91:	02 00                	add    (%eax),%al
  93:	4b                   	dec    %ebx
  94:	00 00                	add    %al,(%eax)
  96:	00 04 01             	add    %al,(%ecx,%eax,1)
  99:	27                   	daa    
  9a:	00 00                	add    %al,(%eax)
  9c:	00 00                	add    %al,(%eax)
  9e:	00 00                	add    %al,(%eax)
  a0:	00 2f                	add    %ch,(%edi)
  a2:	74 6d                	je     111 <_init-0x80486e7>
  a4:	70 2f                	jo     d5 <_init-0x8048723>
  a6:	62 75 69             	bound  %esi,0x69(%ebp)
  a9:	6c                   	insb   (%dx),%es:(%edi)
  aa:	64                   	fs
  ab:	64                   	fs
  ac:	2f                   	das    
  ad:	67 6c                	insb   (%dx),%es:(%di)
  af:	69 62 63 2d 32 2e 37 	imul   $0x372e322d,0x63(%edx),%esp
  b6:	2f                   	das    
  b7:	62 75 69             	bound  %esi,0x69(%ebp)
  ba:	6c                   	insb   (%dx),%es:(%edi)
  bb:	64                   	fs
  bc:	2d 74 72 65 65       	sub    $0x65657274,%eax
  c1:	2f                   	das    
  c2:	61                   	popa   
  c3:	6d                   	insl   (%dx),%es:(%edi)
  c4:	64                   	fs
  c5:	36                   	ss
  c6:	34 2d                	xor    $0x2d,%al
  c8:	69 33 38 36 2f 63    	imul   $0x632f3638,(%ebx),%esi
  ce:	73 75                	jae    145 <_init-0x80486b3>
  d0:	2f                   	das    
  d1:	63 72 74             	arpl   %si,0x74(%edx)
  d4:	69 2e 53 00 2f 74    	imul   $0x742f0053,(%esi),%ebp
  da:	6d                   	insl   (%dx),%es:(%edi)
  db:	70 2f                	jo     10c <_init-0x80486ec>
  dd:	62 75 69             	bound  %esi,0x69(%ebp)
  e0:	6c                   	insb   (%dx),%es:(%edi)
  e1:	64                   	fs
  e2:	64                   	fs
  e3:	2f                   	das    
  e4:	67 6c                	insb   (%dx),%es:(%di)
  e6:	69 62 63 2d 32 2e 37 	imul   $0x372e322d,0x63(%edx),%esp
  ed:	2f                   	das    
  ee:	62 75 69             	bound  %esi,0x69(%ebp)
  f1:	6c                   	insb   (%dx),%es:(%edi)
  f2:	64                   	fs
  f3:	2d 74 72 65 65       	sub    $0x65657274,%eax
  f8:	2f                   	das    
  f9:	67 6c                	insb   (%dx),%es:(%di)
  fb:	69 62 63 2d 32 2e 37 	imul   $0x372e322d,0x63(%edx),%esp
 102:	2f                   	das    
 103:	63 73 75             	arpl   %si,0x75(%ebx)
 106:	00 47 4e             	add    %al,0x4e(%edi)
 109:	55                   	push   %ebp
 10a:	20 41 53             	and    %al,0x53(%ecx)
 10d:	20 32                	and    %dh,(%edx)
 10f:	2e 31 38             	xor    %edi,%cs:(%eax)
 112:	2e 30 00             	xor    %al,%cs:(%eax)
 115:	01 80 64 03 00 00    	add    %eax,0x364(%eax)
 11b:	02 00                	add    (%eax),%al
 11d:	5d                   	pop    %ebp
 11e:	00 00                	add    %al,(%eax)
 120:	00 04 01             	add    %al,(%ecx,%eax,1)
 123:	29 02                	sub    %eax,(%edx)
 125:	00 00                	add    %al,(%eax)
 127:	01 ea                	add    %ebp,%edx
 129:	00 00                	add    %al,(%eax)
 12b:	00 56 02             	add    %dl,0x2(%esi)
 12e:	00 00                	add    %al,(%eax)
 130:	14 8b                	adc    $0x8b,%al
 132:	04 08                	add    $0x8,%al
 134:	70 8c                	jo     c2 <_init-0x8048736>
 136:	04 08                	add    $0x8,%al
 138:	d0 00                	rolb   (%eax)
 13a:	00 00                	add    %al,(%eax)
 13c:	02 cf                	add    %bh,%cl
 13e:	00 00                	add    %al,(%eax)
 140:	00 02                	add    %al,(%edx)
 142:	d3                   	(bad)  
 143:	30 00                	xor    %al,(%eax)
 145:	00 00                	add    %al,(%eax)
 147:	03 04 07             	add    (%edi,%eax,1),%eax
 14a:	71 00                	jno    14c <_init-0x80486ac>
 14c:	00 00                	add    %al,(%eax)
 14e:	03 01                	add    (%ecx),%eax
 150:	08 7e 00             	or     %bh,0x0(%esi)
 153:	00 00                	add    %al,(%eax)
 155:	03 02                	add    (%edx),%eax
 157:	07                   	pop    %es
 158:	3b 00                	cmp    (%eax),%eax
 15a:	00 00                	add    %al,(%eax)
 15c:	03 04 07             	add    (%edi,%eax,1),%eax
 15f:	6c                   	insb   (%dx),%es:(%edi)
 160:	00 00                	add    %al,(%eax)
 162:	00 03                	add    %al,(%ebx)
 164:	01 06                	add    %eax,(%esi)
 166:	80 00 00             	addb   $0x0,(%eax)
 169:	00 03                	add    %al,(%ebx)
 16b:	02 05 4e 00 00 00    	add    0x4e,%al
 171:	04 04                	add    $0x4,%al
 173:	05 69 6e 74 00       	add    $0x746e69,%eax
 178:	03 08                	add    (%eax),%ecx
 17a:	05 93 00 00 00       	add    $0x93,%eax
 17f:	03 08                	add    (%eax),%ecx
 181:	07                   	pop    %es
 182:	67 00 00             	add    %al,(%bx,%si)
 185:	00 02                	add    %al,(%edx)
 187:	ad                   	lods   %ds:(%esi),%eax
 188:	00 00                	add    %al,(%eax)
 18a:	00 03                	add    %al,(%ebx)
 18c:	38 61 00             	cmp    %ah,0x0(%ecx)
 18f:	00 00                	add    %al,(%eax)
 191:	02 d9                	add    %cl,%bl
 193:	01 00                	add    %eax,(%eax)
 195:	00 03                	add    %al,(%ebx)
 197:	8d 85 00 00 00 03    	lea    0x3000000(%ebp),%eax
 19d:	04 05                	add    $0x5,%al
 19f:	98                   	cwtl   
 1a0:	00 00                	add    %al,(%eax)
 1a2:	00 02                	add    %al,(%edx)
 1a4:	cf                   	iret   
 1a5:	01 00                	add    %eax,(%eax)
 1a7:	00 03                	add    %al,(%ebx)
 1a9:	8e 6f 00             	mov    0x0(%edi),%gs
 1ac:	00 00                	add    %al,(%eax)
 1ae:	05 04 07 06 04       	add    $0x4060704,%eax
 1b3:	07                   	pop    %es
 1b4:	04 a2                	add    $0xa2,%al
 1b6:	00 00                	add    %al,(%eax)
 1b8:	00 03                	add    %al,(%ebx)
 1ba:	01 06                	add    %eax,(%esi)
 1bc:	87 00                	xchg   %eax,(%eax)
 1be:	00 00                	add    %al,(%eax)
 1c0:	02 41 01             	add    0x1(%ecx),%al
 1c3:	00 00                	add    %al,(%eax)
 1c5:	04 31                	add    $0x31,%al
 1c7:	b4 00                	mov    $0x0,%ah
 1c9:	00 00                	add    %al,(%eax)
 1cb:	08 3d 01 00 00 94    	or     %bh,0x94000001
 1d1:	04 2d                	add    $0x2d,%al
 1d3:	74 02                	je     1d7 <_init-0x8048621>
 1d5:	00 00                	add    %al,(%eax)
 1d7:	09 3d 02 00 00 05    	or     %edi,0x5000002
 1dd:	10 01                	adc    %al,(%ecx)
 1df:	5a                   	pop    %edx
 1e0:	00 00                	add    %al,(%eax)
 1e2:	00 02                	add    %al,(%edx)
 1e4:	23 00                	and    (%eax),%eax
 1e6:	09 86 01 00 00 05    	or     %eax,0x5000001(%esi)
 1ec:	15 01 9c 00 00       	adc    $0x9c01,%eax
 1f1:	00 02                	add    %al,(%edx)
 1f3:	23 04 09             	and    (%ecx,%ecx,1),%eax
 1f6:	0e                   	push   %cs
 1f7:	01 00                	add    %eax,(%eax)
 1f9:	00 05 16 01 9c 00    	add    %al,0x9c0116
 1ff:	00 00                	add    %al,(%eax)
 201:	02 23                	add    (%ebx),%ah
 203:	08 09                	or     %cl,(%ecx)
 205:	0c 02                	or     $0x2,%al
 207:	00 00                	add    %al,(%eax)
 209:	05 17 01 9c 00       	add    $0x9c0117,%eax
 20e:	00 00                	add    %al,(%eax)
 210:	02 23                	add    (%ebx),%ah
 212:	0c 09                	or     $0x9,%al
 214:	6e                   	outsb  %ds:(%esi),(%dx)
 215:	01 00                	add    %eax,(%eax)
 217:	00 05 18 01 9c 00    	add    %al,0x9c0118
 21d:	00 00                	add    %al,(%eax)
 21f:	02 23                	add    (%ebx),%ah
 221:	10 09                	adc    %cl,(%ecx)
 223:	dc 00                	faddl  (%eax)
 225:	00 00                	add    %al,(%eax)
 227:	05 19 01 9c 00       	add    $0x9c0119,%eax
 22c:	00 00                	add    %al,(%eax)
 22e:	02 23                	add    (%ebx),%ah
 230:	14 09                	adc    $0x9,%al
 232:	c1 01 00             	roll   $0x0,(%ecx)
 235:	00 05 1a 01 9c 00    	add    %al,0x9c011a
 23b:	00 00                	add    %al,(%eax)
 23d:	02 23                	add    (%ebx),%ah
 23f:	18 09                	sbb    %cl,(%ecx)
 241:	f1                   	icebp  
 242:	00 00                	add    %al,(%eax)
 244:	00 05 1b 01 9c 00    	add    %al,0x9c011b
 24a:	00 00                	add    %al,(%eax)
 24c:	02 23                	add    (%ebx),%ah
 24e:	1c 09                	sbb    $0x9,%al
 250:	a1 00 00 00 05       	mov    0x5000000,%eax
 255:	1c 01                	sbb    $0x1,%al
 257:	9c                   	pushf  
 258:	00 00                	add    %al,(%eax)
 25a:	00 02                	add    %al,(%edx)
 25c:	23 20                	and    (%eax),%esp
 25e:	09 4b 01             	or     %ecx,0x1(%ebx)
 261:	00 00                	add    %al,(%eax)
 263:	05 1e 01 9c 00       	add    $0x9c011e,%eax
 268:	00 00                	add    %al,(%eax)
 26a:	02 23                	add    (%ebx),%ah
 26c:	24 09                	and    $0x9,%al
 26e:	e8 01 00 00 05       	call   5000274 <_init-0x3048584>
 273:	1f                   	pop    %ds
 274:	01 9c 00 00 00 02 23 	add    %ebx,0x23020000(%eax,%eax,1)
 27b:	28 09                	sub    %cl,(%ecx)
 27d:	c2 00 00             	ret    $0x0
 280:	00 05 20 01 9c 00    	add    %al,0x9c0120
 286:	00 00                	add    %al,(%eax)
 288:	02 23                	add    (%ebx),%ah
 28a:	2c 09                	sub    $0x9,%al
 28c:	05 01 00 00 05       	add    $0x5000001,%eax
 291:	22 01                	and    (%ecx),%al
 293:	b2 02                	mov    $0x2,%dl
 295:	00 00                	add    %al,(%eax)
 297:	02 23                	add    (%ebx),%ah
 299:	30 09                	xor    %cl,(%ecx)
 29b:	e1 01                	loope  29e <_init-0x804855a>
 29d:	00 00                	add    %al,(%eax)
 29f:	05 24 01 b8 02       	add    $0x2b80124,%eax
 2a4:	00 00                	add    %al,(%eax)
 2a6:	02 23                	add    (%ebx),%ah
 2a8:	34 09                	xor    $0x9,%al
 2aa:	35 02 00 00 05       	xor    $0x5000002,%eax
 2af:	26 01 5a 00          	add    %ebx,%es:0x0(%edx)
 2b3:	00 00                	add    %al,(%eax)
 2b5:	02 23                	add    (%ebx),%ah
 2b7:	38 09                	cmp    %cl,(%ecx)
 2b9:	fe 01                	incb   (%ecx)
 2bb:	00 00                	add    %al,(%eax)
 2bd:	05 2a 01 5a 00       	add    $0x5a012a,%eax
 2c2:	00 00                	add    %al,(%eax)
 2c4:	02 23                	add    (%ebx),%ah
 2c6:	3c 09                	cmp    $0x9,%al
 2c8:	b6 00                	mov    $0x0,%dh
 2ca:	00 00                	add    %al,(%eax)
 2cc:	05 2c 01 7a 00       	add    $0x7a012c,%eax
 2d1:	00 00                	add    %al,(%eax)
 2d3:	02 23                	add    (%ebx),%ah
 2d5:	40                   	inc    %eax
 2d6:	09 21                	or     %esp,(%ecx)
 2d8:	01 00                	add    %eax,(%eax)
 2da:	00 05 30 01 3e 00    	add    %al,0x3e0130
 2e0:	00 00                	add    %al,(%eax)
 2e2:	02 23                	add    (%ebx),%ah
 2e4:	44                   	inc    %esp
 2e5:	09 1a                	or     %ebx,(%edx)
 2e7:	02 00                	add    (%eax),%al
 2e9:	00 05 31 01 4c 00    	add    %al,0x4c0131
 2ef:	00 00                	add    %al,(%eax)
 2f1:	02 23                	add    (%ebx),%ah
 2f3:	46                   	inc    %esi
 2f4:	09 64 01 00          	or     %esp,0x0(%ecx,%eax,1)
 2f8:	00 05 32 01 be 02    	add    %al,0x2be0132
 2fe:	00 00                	add    %al,(%eax)
 300:	02 23                	add    (%ebx),%ah
 302:	47                   	inc    %edi
 303:	09 1b                	or     %ebx,(%ebx)
 305:	01 00                	add    %eax,(%eax)
 307:	00 05 36 01 ce 02    	add    %al,0x2ce0136
 30d:	00 00                	add    %al,(%eax)
 30f:	02 23                	add    (%ebx),%ah
 311:	48                   	dec    %eax
 312:	09 ba 00 00 00 05    	or     %edi,0x5000000(%edx)
 318:	3f                   	aas    
 319:	01 8c 00 00 00 02 23 	add    %ecx,0x23020000(%eax,%eax,1)
 320:	4c                   	dec    %esp
 321:	09 9e 01 00 00 05    	or     %ebx,0x5000001(%esi)
 327:	48                   	dec    %eax
 328:	01 9a 00 00 00 02    	add    %ebx,0x2000000(%edx)
 32e:	23 54 09 a5          	and    -0x5b(%ecx,%ecx,1),%edx
 332:	01 00                	add    %eax,(%eax)
 334:	00 05 49 01 9a 00    	add    %al,0x9a0149
 33a:	00 00                	add    %al,(%eax)
 33c:	02 23                	add    (%ebx),%ah
 33e:	58                   	pop    %eax
 33f:	09 ac 01 00 00 05 4a 	or     %ebp,0x4a050000(%ecx,%eax,1)
 346:	01 9a 00 00 00 02    	add    %ebx,0x2000000(%edx)
 34c:	23 5c 09 b3          	and    -0x4d(%ecx,%ecx,1),%ebx
 350:	01 00                	add    %eax,(%eax)
 352:	00 05 4b 01 9a 00    	add    %al,0x9a014b
 358:	00 00                	add    %al,(%eax)
 35a:	02 23                	add    (%ebx),%ah
 35c:	60                   	pusha  
 35d:	09 ba 01 00 00 05    	or     %edi,0x5000001(%edx)
 363:	4c                   	dec    %esp
 364:	01 25 00 00 00 02    	add    %esp,0x2000000
 36a:	23 64 09 06          	and    0x6(%ecx,%ecx,1),%esp
 36e:	02 00                	add    (%eax),%al
 370:	00 05 4e 01 5a 00    	add    %al,0x5a014e
 376:	00 00                	add    %al,(%eax)
 378:	02 23                	add    (%ebx),%ah
 37a:	68 09 7d 01 00       	push   $0x17d09
 37f:	00 05 50 01 d4 02    	add    %al,0x2d40150
 385:	00 00                	add    %al,(%eax)
 387:	02 23                	add    (%ebx),%ah
 389:	6c                   	insb   (%dx),%es:(%edi)
 38a:	00 0a                	add    %cl,(%edx)
 38c:	4b                   	dec    %ebx
 38d:	02 00                	add    (%eax),%al
 38f:	00 05 b4 08 59 01    	add    %al,0x15908b4
 395:	00 00                	add    %al,(%eax)
 397:	0c 05                	or     $0x5,%al
 399:	ba b2 02 00 00       	mov    $0x2b2,%edx
 39e:	0b 98 01 00 00 05    	or     0x5000001(%eax),%ebx
 3a4:	bb b2 02 00 00       	mov    $0x2b2,%ebx
 3a9:	02 23                	add    (%ebx),%ah
 3ab:	00 0b                	add    %cl,(%ebx)
 3ad:	37                   	aaa    
 3ae:	01 00                	add    %eax,(%eax)
 3b0:	00 05 bc b8 02 00    	add    %al,0x2b8bc
 3b6:	00 02                	add    %al,(%edx)
 3b8:	23 04 0b             	and    (%ebx,%ecx,1),%eax
 3bb:	2d 01 00 00 05       	sub    $0x5000001,%eax
 3c0:	c0 5a 00 00          	rcrb   $0x0,0x0(%edx)
 3c4:	00 02                	add    %al,(%edx)
 3c6:	23 08                	and    (%eax),%ecx
 3c8:	00 07                	add    %al,(%edi)
 3ca:	04 7b                	add    $0x7b,%al
 3cc:	02 00                	add    (%eax),%al
 3ce:	00 07                	add    %al,(%edi)
 3d0:	04 b4                	add    $0xb4,%al
 3d2:	00 00                	add    %al,(%eax)
 3d4:	00 0c a2             	add    %cl,(%edx,%eiz,4)
 3d7:	00 00                	add    %al,(%eax)
 3d9:	00 ce                	add    %cl,%dh
 3db:	02 00                	add    (%eax),%al
 3dd:	00 0d 97 00 00 00    	add    %cl,0x97
 3e3:	00 00                	add    %al,(%eax)
 3e5:	07                   	pop    %es
 3e6:	04 74                	add    $0x74,%al
 3e8:	02 00                	add    (%eax),%al
 3ea:	00 0c a2             	add    %cl,(%edx,%eiz,4)
 3ed:	00 00                	add    %al,(%eax)
 3ef:	00 e4                	add    %ah,%ah
 3f1:	02 00                	add    (%eax),%al
 3f3:	00 0d 97 00 00 00    	add    %cl,0x97
 3f9:	27                   	daa    
 3fa:	00 0e                	add    %cl,(%esi)
 3fc:	01 93 01 00 00 01    	add    %edx,0x1000001(%ebx)
 402:	23 01                	and    (%ecx),%eax
 404:	5a                   	pop    %edx
 405:	00 00                	add    %al,(%eax)
 407:	00 14 8b             	add    %dl,(%ebx,%ecx,4)
 40a:	04 08                	add    $0x8,%al
 40c:	70 8c                	jo     39a <_init-0x804845e>
 40e:	04 08                	add    $0x8,%al
 410:	00 00                	add    %al,(%eax)
 412:	00 00                	add    %al,(%eax)
 414:	2f                   	das    
 415:	03 00                	add    (%eax),%eax
 417:	00 0f                	add    %cl,(%edi)
 419:	46                   	inc    %esi
 41a:	01 00                	add    %eax,(%eax)
 41c:	00 01                	add    %al,(%ecx)
 41e:	23 5a 00             	and    0x0(%edx),%ebx
 421:	00 00                	add    %al,(%eax)
 423:	14 00                	adc    $0x0,%al
 425:	00 00                	add    %al,(%eax)
 427:	0f 32                	rdmsr  
 429:	01 00                	add    %eax,(%eax)
 42b:	00 01                	add    %al,(%ecx)
 42d:	23 2f                	and    (%edi),%ebp
 42f:	03 00                	add    (%eax),%eax
 431:	00 56 00             	add    %dl,0x0(%esi)
 434:	00 00                	add    %al,(%eax)
 436:	10 d6                	adc    %dl,%dh
 438:	00 00                	add    %al,(%eax)
 43a:	00 01                	add    %al,(%ecx)
 43c:	25 9c 00 00 00       	and    $0x9c,%eax
 441:	81 00 00 00 00 07    	addl   $0x7000000,(%eax)
 447:	04 9c                	add    $0x9c,%al
 449:	00 00                	add    %al,(%eax)
 44b:	00 11                	add    %dl,(%ecx)
 44d:	f8                   	clc    
 44e:	01 00                	add    %eax,(%eax)
 450:	00 04 91             	add    %al,(%ecx,%edx,4)
 453:	b8 02 00 00 01       	mov    $0x1000002,%eax
 458:	01 11                	add    %edx,(%ecx)
 45a:	44                   	inc    %esp
 45b:	02 00                	add    (%eax),%al
 45d:	00 04 92             	add    %al,(%edx,%edx,4)
 460:	b8 02 00 00 01       	mov    $0x1000002,%eax
 465:	01 12                	add    %edx,(%edx)
 467:	fe 00                	incb   (%eax)
 469:	00 00                	add    %al,(%eax)
 46b:	01 21                	add    %esp,(%ecx)
 46d:	61                   	popa   
 46e:	03 00                	add    (%eax),%eax
 470:	00 01                	add    %al,(%ecx)
 472:	05 03 b0 b8 04       	add    $0x4b8b003,%eax
 477:	08 07                	or     %al,(%edi)
 479:	04 a9                	add    $0xa9,%al
 47b:	00 00                	add    %al,(%eax)
 47d:	00 00                	add    %al,(%eax)
 47f:	5f                   	pop    %edi
 480:	00 00                	add    %al,(%eax)
 482:	00 02                	add    %al,(%edx)
 484:	00 50 01             	add    %dl,0x1(%eax)
 487:	00 00                	add    %al,(%eax)
 489:	04 01                	add    $0x1,%al
 48b:	b3 01                	mov    $0x1,%bl
 48d:	00 00                	add    %al,(%eax)
 48f:	20 00                	and    %al,(%eax)
 491:	00 00                	add    %al,(%eax)
 493:	2f                   	das    
 494:	74 6d                	je     503 <_init-0x80482f5>
 496:	70 2f                	jo     4c7 <_init-0x8048331>
 498:	63 63 66             	arpl   %sp,0x66(%ebx)
 49b:	4a                   	dec    %edx
 49c:	67 31 57 5a          	xor    %edx,0x5a(%bx)
 4a0:	2e 73 00             	jae,pn 4a3 <_init-0x8048355>
 4a3:	2f                   	das    
 4a4:	74 6d                	je     513 <_init-0x80482e5>
 4a6:	70 2f                	jo     4d7 <_init-0x8048321>
 4a8:	62 75 69             	bound  %esi,0x69(%ebp)
 4ab:	6c                   	insb   (%dx),%es:(%edi)
 4ac:	64                   	fs
 4ad:	64                   	fs
 4ae:	2f                   	das    
 4af:	67 6c                	insb   (%dx),%es:(%di)
 4b1:	69 62 63 2d 32 2e 37 	imul   $0x372e322d,0x63(%edx),%esp
 4b8:	2f                   	das    
 4b9:	62 75 69             	bound  %esi,0x69(%ebp)
 4bc:	6c                   	insb   (%dx),%es:(%edi)
 4bd:	64                   	fs
 4be:	2d 74 72 65 65       	sub    $0x65657274,%eax
 4c3:	2f                   	das    
 4c4:	67 6c                	insb   (%dx),%es:(%di)
 4c6:	69 62 63 2d 32 2e 37 	imul   $0x372e322d,0x63(%edx),%esp
 4cd:	2f                   	das    
 4ce:	63 73 75             	arpl   %si,0x75(%ebx)
 4d1:	00 47 4e             	add    %al,0x4e(%edi)
 4d4:	55                   	push   %ebp
 4d5:	20 41 53             	and    %al,0x53(%ecx)
 4d8:	20 32                	and    %dh,(%edx)
 4da:	2e 31 38             	xor    %edi,%cs:(%eax)
 4dd:	2e 30 00             	xor    %al,%cs:(%eax)
 4e0:	01                   	.byte 0x1
 4e1:	80                   	.byte 0x80

Disassembly of section .debug_abbrev:

00000000 <.debug_abbrev>:
   0:	01 11                	add    %edx,(%ecx)
   2:	01 25 0e 13 0b 03    	add    %esp,0x30b130e
   8:	0e                   	push   %cs
   9:	1b 0e                	sbb    (%esi),%ecx
   b:	11 01                	adc    %eax,(%ecx)
   d:	12 01                	adc    (%ecx),%al
   f:	10 06                	adc    %al,(%esi)
  11:	00 00                	add    %al,(%eax)
  13:	02 24 00             	add    (%eax,%eax,1),%ah
  16:	0b 0b                	or     (%ebx),%ecx
  18:	3e 0b 03             	or     %ds:(%ebx),%eax
  1b:	0e                   	push   %cs
  1c:	00 00                	add    %al,(%eax)
  1e:	03 24 00             	add    (%eax,%eax,1),%esp
  21:	0b 0b                	or     (%ebx),%ecx
  23:	3e 0b 03             	or     %ds:(%ebx),%eax
  26:	08 00                	or     %al,(%eax)
  28:	00 04 24             	add    %al,(%esp)
  2b:	00 0b                	add    %cl,(%ebx)
  2d:	0b 3e                	or     (%esi),%edi
  2f:	0b 00                	or     (%eax),%eax
  31:	00 05 34 00 03 0e    	add    %al,0xe030034
  37:	3a 0b                	cmp    (%ebx),%cl
  39:	3b 0b                	cmp    (%ebx),%ecx
  3b:	49                   	dec    %ecx
  3c:	13 3f                	adc    (%edi),%edi
  3e:	0c 02                	or     $0x2,%al
  40:	0a 00                	or     (%eax),%al
  42:	00 06                	add    %al,(%esi)
  44:	26 00 49 13          	add    %cl,%es:0x13(%ecx)
  48:	00 00                	add    %al,(%eax)
  4a:	00 01                	add    %al,(%ecx)
  4c:	11 00                	adc    %eax,(%eax)
  4e:	10 06                	adc    %al,(%esi)
  50:	55                   	push   %ebp
  51:	06                   	push   %es
  52:	03 08                	add    (%eax),%ecx
  54:	1b 08                	sbb    (%eax),%ecx
  56:	25 08 13 05 00       	and    $0x51308,%eax
  5b:	00 00                	add    %al,(%eax)
  5d:	01 11                	add    %edx,(%ecx)
  5f:	01 25 0e 13 0b 03    	add    %esp,0x30b130e
  65:	0e                   	push   %cs
  66:	1b 0e                	sbb    (%esi),%ecx
  68:	11 01                	adc    %eax,(%ecx)
  6a:	12 01                	adc    (%ecx),%al
  6c:	10 06                	adc    %al,(%esi)
  6e:	00 00                	add    %al,(%eax)
  70:	02 16                	add    (%esi),%dl
  72:	00 03                	add    %al,(%ebx)
  74:	0e                   	push   %cs
  75:	3a 0b                	cmp    (%ebx),%cl
  77:	3b 0b                	cmp    (%ebx),%ecx
  79:	49                   	dec    %ecx
  7a:	13 00                	adc    (%eax),%eax
  7c:	00 03                	add    %al,(%ebx)
  7e:	24 00                	and    $0x0,%al
  80:	0b 0b                	or     (%ebx),%ecx
  82:	3e 0b 03             	or     %ds:(%ebx),%eax
  85:	0e                   	push   %cs
  86:	00 00                	add    %al,(%eax)
  88:	04 24                	add    $0x24,%al
  8a:	00 0b                	add    %cl,(%ebx)
  8c:	0b 3e                	or     (%esi),%edi
  8e:	0b 03                	or     (%ebx),%eax
  90:	08 00                	or     %al,(%eax)
  92:	00 05 24 00 0b 0b    	add    %al,0xb0b0024
  98:	3e 0b 00             	or     %ds:(%eax),%eax
  9b:	00 06                	add    %al,(%esi)
  9d:	0f 00 0b             	str    (%ebx)
  a0:	0b 00                	or     (%eax),%eax
  a2:	00 07                	add    %al,(%edi)
  a4:	0f 00 0b             	str    (%ebx)
  a7:	0b 49 13             	or     0x13(%ecx),%ecx
  aa:	00 00                	add    %al,(%eax)
  ac:	08 13                	or     %dl,(%ebx)
  ae:	01 03                	add    %eax,(%ebx)
  b0:	0e                   	push   %cs
  b1:	0b 0b                	or     (%ebx),%ecx
  b3:	3a 0b                	cmp    (%ebx),%cl
  b5:	3b 0b                	cmp    (%ebx),%ecx
  b7:	01 13                	add    %edx,(%ebx)
  b9:	00 00                	add    %al,(%eax)
  bb:	09 0d 00 03 0e 3a    	or     %ecx,0x3a0e0300
  c1:	0b 3b                	or     (%ebx),%edi
  c3:	05 49 13 38 0a       	add    $0xa381349,%eax
  c8:	00 00                	add    %al,(%eax)
  ca:	0a 16                	or     (%esi),%dl
  cc:	00 03                	add    %al,(%ebx)
  ce:	0e                   	push   %cs
  cf:	3a 0b                	cmp    (%ebx),%cl
  d1:	3b 0b                	cmp    (%ebx),%ecx
  d3:	00 00                	add    %al,(%eax)
  d5:	0b 0d 00 03 0e 3a    	or     0x3a0e0300,%ecx
  db:	0b 3b                	or     (%ebx),%edi
  dd:	0b 49 13             	or     0x13(%ecx),%ecx
  e0:	38 0a                	cmp    %cl,(%edx)
  e2:	00 00                	add    %al,(%eax)
  e4:	0c 01                	or     $0x1,%al
  e6:	01 49 13             	add    %ecx,0x13(%ecx)
  e9:	01 13                	add    %edx,(%ebx)
  eb:	00 00                	add    %al,(%eax)
  ed:	0d 21 00 49 13       	or     $0x13490021,%eax
  f2:	2f                   	das    
  f3:	0b 00                	or     (%eax),%eax
  f5:	00 0e                	add    %cl,(%esi)
  f7:	2e 01 3f             	add    %edi,%cs:(%edi)
  fa:	0c 03                	or     $0x3,%al
  fc:	0e                   	push   %cs
  fd:	3a 0b                	cmp    (%ebx),%cl
  ff:	3b 0b                	cmp    (%ebx),%ecx
 101:	27                   	daa    
 102:	0c 49                	or     $0x49,%al
 104:	13 11                	adc    (%ecx),%edx
 106:	01 12                	add    %edx,(%edx)
 108:	01 40 06             	add    %eax,0x6(%eax)
 10b:	01 13                	add    %edx,(%ebx)
 10d:	00 00                	add    %al,(%eax)
 10f:	0f 05                	syscall 
 111:	00 03                	add    %al,(%ebx)
 113:	0e                   	push   %cs
 114:	3a 0b                	cmp    (%ebx),%cl
 116:	3b 0b                	cmp    (%ebx),%ecx
 118:	49                   	dec    %ecx
 119:	13 02                	adc    (%edx),%eax
 11b:	06                   	push   %es
 11c:	00 00                	add    %al,(%eax)
 11e:	10 34 00             	adc    %dh,(%eax,%eax,1)
 121:	03 0e                	add    (%esi),%ecx
 123:	3a 0b                	cmp    (%ebx),%cl
 125:	3b 0b                	cmp    (%ebx),%ecx
 127:	49                   	dec    %ecx
 128:	13 02                	adc    (%edx),%eax
 12a:	06                   	push   %es
 12b:	00 00                	add    %al,(%eax)
 12d:	11 34 00             	adc    %esi,(%eax,%eax,1)
 130:	03 0e                	add    (%esi),%ecx
 132:	3a 0b                	cmp    (%ebx),%cl
 134:	3b 0b                	cmp    (%ebx),%ecx
 136:	49                   	dec    %ecx
 137:	13 3f                	adc    (%edi),%edi
 139:	0c 3c                	or     $0x3c,%al
 13b:	0c 00                	or     $0x0,%al
 13d:	00 12                	add    %dl,(%edx)
 13f:	34 00                	xor    $0x0,%al
 141:	03 0e                	add    (%esi),%ecx
 143:	3a 0b                	cmp    (%ebx),%cl
 145:	3b 0b                	cmp    (%ebx),%ecx
 147:	49                   	dec    %ecx
 148:	13 3f                	adc    (%edi),%edi
 14a:	0c 02                	or     $0x2,%al
 14c:	0a 00                	or     (%eax),%al
 14e:	00 00                	add    %al,(%eax)
 150:	01 11                	add    %edx,(%ecx)
 152:	00 10                	add    %dl,(%eax)
 154:	06                   	push   %es
 155:	55                   	push   %ebp
 156:	06                   	push   %es
 157:	03 08                	add    (%eax),%ecx
 159:	1b 08                	sbb    (%eax),%ecx
 15b:	25 08 13 05 00       	and    $0x51308,%eax
	...

Disassembly of section .debug_line:

00000000 <.debug_line>:
   0:	23 00                	and    (%eax),%eax
   2:	00 00                	add    %al,(%eax)
   4:	02 00                	add    (%eax),%al
   6:	1d 00 00 00 01       	sbb    $0x1000000,%eax
   b:	01 fb                	add    %edi,%ebx
   d:	0e                   	push   %cs
   e:	0d 00 01 01 01       	or     $0x1010100,%eax
  13:	01 00                	add    %eax,(%eax)
  15:	00 00                	add    %al,(%eax)
  17:	01 00                	add    %eax,(%eax)
  19:	00 01                	add    %al,(%ecx)
  1b:	00 69 6e             	add    %ch,0x6e(%ecx)
  1e:	69 74 2e 63 00 00 00 	imul   $0x0,0x63(%esi,%ebp,1),%esi
  25:	00 
  26:	00 a5 00 00 00 02    	add    %ah,0x2000000(%ebp)
  2c:	00 6e 00             	add    %ch,0x0(%esi)
  2f:	00 00                	add    %al,(%eax)
  31:	01 01                	add    %eax,(%ecx)
  33:	fb                   	sti    
  34:	0e                   	push   %cs
  35:	0d 00 01 01 01       	or     $0x1010100,%eax
  3a:	01 00                	add    %eax,(%eax)
  3c:	00 00                	add    %al,(%eax)
  3e:	01 00                	add    %eax,(%eax)
  40:	00 01                	add    %al,(%ecx)
  42:	2f                   	das    
  43:	74 6d                	je     b2 <_init-0x8048746>
  45:	70 2f                	jo     76 <_init-0x8048782>
  47:	62 75 69             	bound  %esi,0x69(%ebp)
  4a:	6c                   	insb   (%dx),%es:(%edi)
  4b:	64                   	fs
  4c:	64                   	fs
  4d:	2f                   	das    
  4e:	67 6c                	insb   (%dx),%es:(%di)
  50:	69 62 63 2d 32 2e 37 	imul   $0x372e322d,0x63(%edx),%esp
  57:	2f                   	das    
  58:	62 75 69             	bound  %esi,0x69(%ebp)
  5b:	6c                   	insb   (%dx),%es:(%edi)
  5c:	64                   	fs
  5d:	2d 74 72 65 65       	sub    $0x65657274,%eax
  62:	2f                   	das    
  63:	61                   	popa   
  64:	6d                   	insl   (%dx),%es:(%edi)
  65:	64                   	fs
  66:	36                   	ss
  67:	34 2d                	xor    $0x2d,%al
  69:	69 33 38 36 2f 63    	imul   $0x632f3638,(%ebx),%esi
  6f:	73 75                	jae    e6 <_init-0x8048712>
  71:	00 2e                	add    %ch,(%esi)
  73:	2e                   	cs
  74:	2f                   	das    
  75:	73 79                	jae    f0 <_init-0x8048708>
  77:	73 64                	jae    dd <_init-0x804871b>
  79:	65                   	gs
  7a:	70 73                	jo     ef <_init-0x8048709>
  7c:	2f                   	das    
  7d:	67 65 6e             	outsb  %gs:(%si),(%dx)
  80:	65                   	gs
  81:	72 69                	jb     ec <_init-0x804870c>
  83:	63 00                	arpl   %ax,(%eax)
  85:	00 63 72             	add    %ah,0x72(%ebx)
  88:	74 69                	je     f3 <_init-0x8048705>
  8a:	2e                   	cs
  8b:	53                   	push   %ebx
  8c:	00 01                	add    %al,(%ecx)
  8e:	00 00                	add    %al,(%eax)
  90:	69 6e 69 74 66 69 6e 	imul   $0x6e696674,0x69(%esi),%ebp
  97:	69 2e 63 00 02 00    	imul   $0x20063,(%esi),%ebp
  9d:	00 00                	add    %al,(%eax)
  9f:	00 05 02 f8 87 04    	add    %al,0x487f802
  a5:	08 03                	or     %al,(%ebx)
  a7:	0e                   	push   %cs
  a8:	01 21                	add    %esp,(%ecx)
  aa:	2f                   	das    
  ab:	21 3d 5a 21 67 67    	and    %edi,0x6767215a
  b1:	2f                   	das    
  b2:	2f                   	das    
  b3:	02 05 00 01 01 04    	add    0x4010100,%al
  b9:	02 00                	add    (%eax),%al
  bb:	05 02 6c 9b 04       	add    $0x49b6c02,%eax
  c0:	08 03                	or     %al,(%ebx)
  c2:	ec                   	in     (%dx),%al
  c3:	00 01                	add    %al,(%ecx)
  c5:	21 2f                	and    %ebp,(%edi)
  c7:	21 3d 5a 21 02 06    	and    %edi,0x602215a
  cd:	00 01                	add    %al,(%ecx)
  cf:	01 df                	add    %ebx,%edi
  d1:	00 00                	add    %al,(%eax)
  d3:	00 02                	add    %al,(%edx)
  d5:	00 a3 00 00 00 01    	add    %ah,0x1000000(%ebx)
  db:	01 fb                	add    %edi,%ebx
  dd:	0e                   	push   %cs
  de:	0d 00 01 01 01       	or     $0x1010100,%eax
  e3:	01 00                	add    %eax,(%eax)
  e5:	00 00                	add    %al,(%eax)
  e7:	01 00                	add    %eax,(%eax)
  e9:	00 01                	add    %al,(%ecx)
  eb:	2f                   	das    
  ec:	75 73                	jne    161 <_init-0x8048697>
  ee:	72 2f                	jb     11f <_init-0x80486d9>
  f0:	6c                   	insb   (%dx),%es:(%edi)
  f1:	6f                   	outsl  %ds:(%esi),(%dx)
  f2:	63 61 6c             	arpl   %sp,0x6c(%ecx)
  f5:	2f                   	das    
  f6:	6c                   	insb   (%dx),%es:(%edi)
  f7:	69 62 2f 67 63 63 2f 	imul   $0x2f636367,0x2f(%edx),%esp
  fe:	78 38                	js     138 <_init-0x80486c0>
 100:	36                   	ss
 101:	5f                   	pop    %edi
 102:	36                   	ss
 103:	34 2d                	xor    $0x2d,%al
 105:	75 6e                	jne    175 <_init-0x8048683>
 107:	6b 6e 6f 77          	imul   $0x77,0x6f(%esi),%ebp
 10b:	6e                   	outsb  %ds:(%esi),(%dx)
 10c:	2d 6c 69 6e 75       	sub    $0x756e696c,%eax
 111:	78 2d                	js     140 <_init-0x80486b8>
 113:	67 6e                	outsb  %ds:(%si),(%dx)
 115:	75 2f                	jne    146 <_init-0x80486b2>
 117:	34 2e                	xor    $0x2e,%al
 119:	34 2e                	xor    $0x2e,%al
 11b:	30 2f                	xor    %ch,(%edi)
 11d:	69 6e 63 6c 75 64 65 	imul   $0x6564756c,0x63(%esi),%ebp
 124:	00 2f                	add    %ch,(%edi)
 126:	75 73                	jne    19b <_init-0x804865d>
 128:	72 2f                	jb     159 <_init-0x804869f>
 12a:	69 6e 63 6c 75 64 65 	imul   $0x6564756c,0x63(%esi),%ebp
 131:	2f                   	das    
 132:	62 69 74             	bound  %ebp,0x74(%ecx)
 135:	73 00                	jae    137 <_init-0x80486c1>
 137:	2f                   	das    
 138:	75 73                	jne    1ad <_init-0x804864b>
 13a:	72 2f                	jb     16b <_init-0x804868d>
 13c:	69 6e 63 6c 75 64 65 	imul   $0x6564756c,0x63(%esi),%ebp
 143:	00 00                	add    %al,(%eax)
 145:	62 6f 6d             	bound  %ebp,0x6d(%edi)
 148:	62 2e                	bound  %ebp,(%esi)
 14a:	63 00                	arpl   %ax,(%eax)
 14c:	00 00                	add    %al,(%eax)
 14e:	00 73 74             	add    %dh,0x74(%ebx)
 151:	64                   	fs
 152:	64                   	fs
 153:	65                   	gs
 154:	66                   	data16
 155:	2e                   	cs
 156:	68 00 01 00 00       	push   $0x100
 15b:	74 79                	je     1d6 <_init-0x8048622>
 15d:	70 65                	jo     1c4 <_init-0x8048634>
 15f:	73 2e                	jae    18f <_init-0x8048669>
 161:	68 00 02 00 00       	push   $0x200
 166:	73 74                	jae    1dc <_init-0x804861c>
 168:	64 69 6f 2e 68 00 03 	imul   $0x30068,%fs:0x2e(%edi),%ebp
 16f:	00 
 170:	00 6c 69 62          	add    %ch,0x62(%ecx,%ebp,2)
 174:	69 6f 2e 68 00 03 00 	imul   $0x30068,0x2e(%edi),%ebp
 17b:	00 00                	add    %al,(%eax)
 17d:	00 05 02 14 8b 04    	add    %al,0x48b1402
 183:	08 03                	or     %al,(%ebx)
 185:	23 01                	and    (%ecx),%eax
 187:	08 1a                	or     %bl,(%edx)
 189:	59                   	pop    %ecx
 18a:	dd 59 08             	fstpl  0x8(%ecx)
 18d:	c9                   	leave  
 18e:	08 75 c0             	or     %dh,-0x40(%ebp)
 191:	08 21                	or     %ah,(%ecx)
 193:	be 5a bb bd 59       	mov    $0x59bdbb5a,%esi
 198:	83 5a be 59          	sbbl   $0x59,-0x42(%edx)
 19c:	83 59 be 59          	sbbl   $0x59,-0x42(%ecx)
 1a0:	83 59 bd 59          	sbbl   $0x59,-0x43(%ecx)
 1a4:	83 59 bd 59          	sbbl   $0x59,-0x43(%ecx)
 1a8:	83 59 be 59          	sbbl   $0x59,-0x42(%ecx)
 1ac:	83 5e 02 0e          	sbbl   $0xe,0x2(%esi)
 1b0:	00 01                	add    %al,(%ecx)
 1b2:	01 50 00             	add    %edx,0x0(%eax)
 1b5:	00 00                	add    %al,(%eax)
 1b7:	02 00                	add    (%eax),%al
 1b9:	26 00 00             	add    %al,%es:(%eax)
 1bc:	00 01                	add    %al,(%ecx)
 1be:	01 fb                	add    %edi,%ebx
 1c0:	0e                   	push   %cs
 1c1:	0d 00 01 01 01       	or     $0x1010100,%eax
 1c6:	01 00                	add    %eax,(%eax)
 1c8:	00 00                	add    %al,(%eax)
 1ca:	01 00                	add    %eax,(%eax)
 1cc:	00 01                	add    %al,(%ecx)
 1ce:	2f                   	das    
 1cf:	74 6d                	je     23e <_init-0x80485ba>
 1d1:	70 00                	jo     1d3 <_init-0x8048625>
 1d3:	00 63 63             	add    %ah,0x63(%ebx)
 1d6:	66 4a                	dec    %dx
 1d8:	67 31 57 5a          	xor    %edx,0x5a(%bx)
 1dc:	2e 73 00             	jae,pn 1df <_init-0x8048619>
 1df:	01 00                	add    %eax,(%eax)
 1e1:	00 00                	add    %al,(%eax)
 1e3:	00 05 02 24 88 04    	add    %al,0x4882402
 1e9:	08 03                	or     %al,(%ebx)
 1eb:	1f                   	pop    %ds
 1ec:	01 21                	add    %esp,(%ecx)
 1ee:	21 21                	and    %esp,(%ecx)
 1f0:	02 01                	add    (%ecx),%al
 1f2:	00 01                	add    %al,(%ecx)
 1f4:	01 00                	add    %eax,(%eax)
 1f6:	05 02 84 9b 04       	add    $0x49b8402,%eax
 1fb:	08 03                	or     %al,(%ebx)
 1fd:	2d 01 21 21 21       	sub    $0x21212101,%eax
 202:	02 01                	add    (%ecx),%al
 204:	00 01                	add    %al,(%ecx)
 206:	01                   	.byte 0x1

Disassembly of section .debug_str:

00000000 <.debug_str>:
   0:	2f                   	das    
   1:	74 6d                	je     70 <_init-0x8048788>
   3:	70 2f                	jo     34 <_init-0x80487c4>
   5:	62 75 69             	bound  %esi,0x69(%ebp)
   8:	6c                   	insb   (%dx),%es:(%edi)
   9:	64                   	fs
   a:	64                   	fs
   b:	2f                   	das    
   c:	67 6c                	insb   (%dx),%es:(%di)
   e:	69 62 63 2d 32 2e 37 	imul   $0x372e322d,0x63(%edx),%esp
  15:	2f                   	das    
  16:	62 75 69             	bound  %esi,0x69(%ebp)
  19:	6c                   	insb   (%dx),%es:(%edi)
  1a:	64                   	fs
  1b:	2d 74 72 65 65       	sub    $0x65657274,%eax
  20:	2f                   	das    
  21:	67 6c                	insb   (%dx),%es:(%di)
  23:	69 62 63 2d 32 2e 37 	imul   $0x372e322d,0x63(%edx),%esp
  2a:	2f                   	das    
  2b:	63 73 75             	arpl   %si,0x75(%ebx)
  2e:	00 47 4e             	add    %al,0x4e(%edi)
  31:	55                   	push   %ebp
  32:	20 43 20             	and    %al,0x20(%ebx)
  35:	34 2e                	xor    $0x2e,%al
  37:	33 2e                	xor    (%esi),%ebp
  39:	32 00                	xor    (%eax),%al
  3b:	73 68                	jae    a5 <_init-0x8048753>
  3d:	6f                   	outsl  %ds:(%esi),(%dx)
  3e:	72 74                	jb     b4 <_init-0x8048744>
  40:	20 75 6e             	and    %dh,0x6e(%ebp)
  43:	73 69                	jae    ae <_init-0x804874a>
  45:	67 6e                	outsb  %ds:(%si),(%dx)
  47:	65 64 20 69 6e       	gs and %ch,%fs:%gs:0x6e(%ecx)
  4c:	74 00                	je     4e <_init-0x80487aa>
  4e:	73 68                	jae    b8 <_init-0x8048740>
  50:	6f                   	outsl  %ds:(%esi),(%dx)
  51:	72 74                	jb     c7 <_init-0x8048731>
  53:	20 69 6e             	and    %ch,0x6e(%ecx)
  56:	74 00                	je     58 <_init-0x80487a0>
  58:	5f                   	pop    %edi
  59:	49                   	dec    %ecx
  5a:	4f                   	dec    %edi
  5b:	5f                   	pop    %edi
  5c:	73 74                	jae    d2 <_init-0x8048726>
  5e:	64 69 6e 5f 75 73 65 	imul   $0x64657375,%fs:0x5f(%esi),%ebp
  65:	64 
  66:	00 6c 6f 6e          	add    %ch,0x6e(%edi,%ebp,2)
  6a:	67 20 6c 6f          	and    %ch,0x6f(%si)
  6e:	6e                   	outsb  %ds:(%esi),(%dx)
  6f:	67 20 75 6e          	and    %dh,0x6e(%di)
  73:	73 69                	jae    de <_init-0x804871a>
  75:	67 6e                	outsb  %ds:(%si),(%dx)
  77:	65 64 20 69 6e       	gs and %ch,%fs:%gs:0x6e(%ecx)
  7c:	74 00                	je     7e <_init-0x804877a>
  7e:	75 6e                	jne    ee <_init-0x804870a>
  80:	73 69                	jae    eb <_init-0x804870d>
  82:	67 6e                	outsb  %ds:(%si),(%dx)
  84:	65 64 20 63 68       	gs and %ah,%fs:%gs:0x68(%ebx)
  89:	61                   	popa   
  8a:	72 00                	jb     8c <_init-0x804876c>
  8c:	69 6e 69 74 2e 63 00 	imul   $0x632e74,0x69(%esi),%ebp
  93:	6c                   	insb   (%dx),%es:(%edi)
  94:	6f                   	outsl  %ds:(%esi),(%dx)
  95:	6e                   	outsb  %ds:(%esi),(%dx)
  96:	67 20 6c 6f          	and    %ch,0x6f(%si)
  9a:	6e                   	outsb  %ds:(%esi),(%dx)
  9b:	67 20 69 6e          	and    %ch,0x6e(%bx,%di)
  9f:	74 00                	je     a1 <_init-0x8048757>
  a1:	5f                   	pop    %edi
  a2:	49                   	dec    %ecx
  a3:	4f                   	dec    %edi
  a4:	5f                   	pop    %edi
  a5:	62 75 66             	bound  %esi,0x66(%ebp)
  a8:	5f                   	pop    %edi
  a9:	65 6e                	outsb  %gs:(%esi),(%dx)
  ab:	64 00 5f 5f          	add    %bl,%fs:0x5f(%edi)
  af:	71 75                	jno    126 <_init-0x80486d2>
  b1:	61                   	popa   
  b2:	64                   	fs
  b3:	5f                   	pop    %edi
  b4:	74 00                	je     b6 <_init-0x8048742>
  b6:	5f                   	pop    %edi
  b7:	6f                   	outsl  %ds:(%esi),(%dx)
  b8:	6c                   	insb   (%dx),%es:(%edi)
  b9:	64                   	fs
  ba:	5f                   	pop    %edi
  bb:	6f                   	outsl  %ds:(%esi),(%dx)
  bc:	66                   	data16
  bd:	66                   	data16
  be:	73 65                	jae    125 <_init-0x80486d3>
  c0:	74 00                	je     c2 <_init-0x8048736>
  c2:	5f                   	pop    %edi
  c3:	49                   	dec    %ecx
  c4:	4f                   	dec    %edi
  c5:	5f                   	pop    %edi
  c6:	73 61                	jae    129 <_init-0x80486cf>
  c8:	76 65                	jbe    12f <_init-0x80486c9>
  ca:	5f                   	pop    %edi
  cb:	65 6e                	outsb  %gs:(%esi),(%dx)
  cd:	64 00 73 69          	add    %dh,%fs:0x69(%ebx)
  d1:	7a 65                	jp     138 <_init-0x80486c0>
  d3:	5f                   	pop    %edi
  d4:	74 00                	je     d6 <_init-0x8048722>
  d6:	69 6e 70 75 74 00 5f 	imul   $0x5f007475,0x70(%esi),%ebp
  dd:	49                   	dec    %ecx
  de:	4f                   	dec    %edi
  df:	5f                   	pop    %edi
  e0:	77 72                	ja     154 <_init-0x80486a4>
  e2:	69 74 65 5f 70 74 72 	imul   $0x727470,0x5f(%ebp,%eiz,2),%esi
  e9:	00 
  ea:	62 6f 6d             	bound  %ebp,0x6d(%edi)
  ed:	62 2e                	bound  %ebp,(%esi)
  ef:	63 00                	arpl   %ax,(%eax)
  f1:	5f                   	pop    %edi
  f2:	49                   	dec    %ecx
  f3:	4f                   	dec    %edi
  f4:	5f                   	pop    %edi
  f5:	62 75 66             	bound  %esi,0x66(%ebp)
  f8:	5f                   	pop    %edi
  f9:	62 61 73             	bound  %esp,0x73(%ecx)
  fc:	65 00 69 6e          	add    %ch,%gs:0x6e(%ecx)
 100:	66 69 6c 65 00 5f 6d 	imul   $0x6d5f,0x0(%ebp,%eiz,2),%bp
 107:	61                   	popa   
 108:	72 6b                	jb     175 <_init-0x8048683>
 10a:	65                   	gs
 10b:	72 73                	jb     180 <_init-0x8048678>
 10d:	00 5f 49             	add    %bl,0x49(%edi)
 110:	4f                   	dec    %edi
 111:	5f                   	pop    %edi
 112:	72 65                	jb     179 <_init-0x804867f>
 114:	61                   	popa   
 115:	64                   	fs
 116:	5f                   	pop    %edi
 117:	65 6e                	outsb  %gs:(%esi),(%dx)
 119:	64 00 5f 6c          	add    %bl,%fs:0x6c(%edi)
 11d:	6f                   	outsl  %ds:(%esi),(%dx)
 11e:	63 6b 00             	arpl   %bp,0x0(%ebx)
 121:	5f                   	pop    %edi
 122:	63 75 72             	arpl   %si,0x72(%ebp)
 125:	5f                   	pop    %edi
 126:	63 6f 6c             	arpl   %bp,0x6c(%edi)
 129:	75 6d                	jne    198 <_init-0x8048660>
 12b:	6e                   	outsb  %ds:(%esi),(%dx)
 12c:	00 5f 70             	add    %bl,0x70(%edi)
 12f:	6f                   	outsl  %ds:(%esi),(%dx)
 130:	73 00                	jae    132 <_init-0x80486c6>
 132:	61                   	popa   
 133:	72 67                	jb     19c <_init-0x804865c>
 135:	76 00                	jbe    137 <_init-0x80486c1>
 137:	5f                   	pop    %edi
 138:	73 62                	jae    19c <_init-0x804865c>
 13a:	75 66                	jne    1a2 <_init-0x8048656>
 13c:	00 5f 49             	add    %bl,0x49(%edi)
 13f:	4f                   	dec    %edi
 140:	5f                   	pop    %edi
 141:	46                   	inc    %esi
 142:	49                   	dec    %ecx
 143:	4c                   	dec    %esp
 144:	45                   	inc    %ebp
 145:	00 61 72             	add    %ah,0x72(%ecx)
 148:	67 63 00             	arpl   %ax,(%bx,%si)
 14b:	5f                   	pop    %edi
 14c:	49                   	dec    %ecx
 14d:	4f                   	dec    %edi
 14e:	5f                   	pop    %edi
 14f:	73 61                	jae    1b2 <_init-0x8048646>
 151:	76 65                	jbe    1b8 <_init-0x8048640>
 153:	5f                   	pop    %edi
 154:	62 61 73             	bound  %esp,0x73(%ecx)
 157:	65 00 5f 49          	add    %bl,%gs:0x49(%edi)
 15b:	4f                   	dec    %edi
 15c:	5f                   	pop    %edi
 15d:	6d                   	insl   (%dx),%es:(%edi)
 15e:	61                   	popa   
 15f:	72 6b                	jb     1cc <_init-0x804862c>
 161:	65                   	gs
 162:	72 00                	jb     164 <_init-0x8048694>
 164:	5f                   	pop    %edi
 165:	73 68                	jae    1cf <_init-0x8048629>
 167:	6f                   	outsl  %ds:(%esi),(%dx)
 168:	72 74                	jb     1de <_init-0x804861a>
 16a:	62 75 66             	bound  %esi,0x66(%ebp)
 16d:	00 5f 49             	add    %bl,0x49(%edi)
 170:	4f                   	dec    %edi
 171:	5f                   	pop    %edi
 172:	77 72                	ja     1e6 <_init-0x8048612>
 174:	69 74 65 5f 62 61 73 	imul   $0x65736162,0x5f(%ebp,%eiz,2),%esi
 17b:	65 
 17c:	00 5f 75             	add    %bl,0x75(%edi)
 17f:	6e                   	outsb  %ds:(%esi),(%dx)
 180:	75 73                	jne    1f5 <_init-0x8048603>
 182:	65 64 32 00          	gs xor %fs:%gs:(%eax),%al
 186:	5f                   	pop    %edi
 187:	49                   	dec    %ecx
 188:	4f                   	dec    %edi
 189:	5f                   	pop    %edi
 18a:	72 65                	jb     1f1 <_init-0x8048607>
 18c:	61                   	popa   
 18d:	64                   	fs
 18e:	5f                   	pop    %edi
 18f:	70 74                	jo     205 <_init-0x80485f3>
 191:	72 00                	jb     193 <_init-0x8048665>
 193:	6d                   	insl   (%dx),%es:(%edi)
 194:	61                   	popa   
 195:	69 6e 00 5f 6e 65 78 	imul   $0x78656e5f,0x0(%esi),%ebp
 19c:	74 00                	je     19e <_init-0x804865a>
 19e:	5f                   	pop    %edi
 19f:	5f                   	pop    %edi
 1a0:	70 61                	jo     203 <_init-0x80485f5>
 1a2:	64 31 00             	xor    %eax,%fs:(%eax)
 1a5:	5f                   	pop    %edi
 1a6:	5f                   	pop    %edi
 1a7:	70 61                	jo     20a <_init-0x80485ee>
 1a9:	64 32 00             	xor    %fs:(%eax),%al
 1ac:	5f                   	pop    %edi
 1ad:	5f                   	pop    %edi
 1ae:	70 61                	jo     211 <_init-0x80485e7>
 1b0:	64 33 00             	xor    %fs:(%eax),%eax
 1b3:	5f                   	pop    %edi
 1b4:	5f                   	pop    %edi
 1b5:	70 61                	jo     218 <_init-0x80485e0>
 1b7:	64                   	fs
 1b8:	34 00                	xor    $0x0,%al
 1ba:	5f                   	pop    %edi
 1bb:	5f                   	pop    %edi
 1bc:	70 61                	jo     21f <_init-0x80485d9>
 1be:	64                   	fs
 1bf:	35 00 5f 49 4f       	xor    $0x4f495f00,%eax
 1c4:	5f                   	pop    %edi
 1c5:	77 72                	ja     239 <_init-0x80485bf>
 1c7:	69 74 65 5f 65 6e 64 	imul   $0x646e65,0x5f(%ebp,%eiz,2),%esi
 1ce:	00 
 1cf:	5f                   	pop    %edi
 1d0:	5f                   	pop    %edi
 1d1:	6f                   	outsl  %ds:(%esi),(%dx)
 1d2:	66                   	data16
 1d3:	66                   	data16
 1d4:	36                   	ss
 1d5:	34 5f                	xor    $0x5f,%al
 1d7:	74 00                	je     1d9 <_init-0x804861f>
 1d9:	5f                   	pop    %edi
 1da:	5f                   	pop    %edi
 1db:	6f                   	outsl  %ds:(%esi),(%dx)
 1dc:	66 66 5f             	data32 pop %di
 1df:	74 00                	je     1e1 <_init-0x8048617>
 1e1:	5f                   	pop    %edi
 1e2:	63 68 61             	arpl   %bp,0x61(%eax)
 1e5:	69 6e 00 5f 49 4f 5f 	imul   $0x5f4f495f,0x0(%esi),%ebp
 1ec:	62 61 63             	bound  %esp,0x63(%ecx)
 1ef:	6b 75 70 5f          	imul   $0x5f,0x70(%ebp),%esi
 1f3:	62 61 73             	bound  %esp,0x73(%ecx)
 1f6:	65 00 73 74          	add    %dh,%gs:0x74(%ebx)
 1fa:	64 69 6e 00 5f 66 6c 	imul   $0x616c665f,%fs:0x0(%esi),%ebp
 201:	61 
 202:	67 73 32             	addr16 jae 237 <_init-0x80485c1>
 205:	00 5f 6d             	add    %bl,0x6d(%edi)
 208:	6f                   	outsl  %ds:(%esi),(%dx)
 209:	64 65 00 5f 49       	fs add %bl,%fs:%gs:0x49(%edi)
 20e:	4f                   	dec    %edi
 20f:	5f                   	pop    %edi
 210:	72 65                	jb     277 <_init-0x8048581>
 212:	61                   	popa   
 213:	64                   	fs
 214:	5f                   	pop    %edi
 215:	62 61 73             	bound  %esp,0x73(%ecx)
 218:	65 00 5f 76          	add    %bl,%gs:0x76(%edi)
 21c:	74 61                	je     27f <_init-0x8048579>
 21e:	62 6c 65 5f          	bound  %ebp,0x5f(%ebp,%eiz,2)
 222:	6f                   	outsl  %ds:(%esi),(%dx)
 223:	66                   	data16
 224:	66                   	data16
 225:	73 65                	jae    28c <_init-0x804856c>
 227:	74 00                	je     229 <_init-0x80485cf>
 229:	47                   	inc    %edi
 22a:	4e                   	dec    %esi
 22b:	55                   	push   %ebp
 22c:	20 43 20             	and    %al,0x20(%ebx)
 22f:	34 2e                	xor    $0x2e,%al
 231:	34 2e                	xor    $0x2e,%al
 233:	30 00                	xor    %al,(%eax)
 235:	5f                   	pop    %edi
 236:	66 69 6c 65 6e 6f 00 	imul   $0x6f,0x6e(%ebp,%eiz,2),%bp
 23d:	5f                   	pop    %edi
 23e:	66                   	data16
 23f:	6c                   	insb   (%dx),%es:(%edi)
 240:	61                   	popa   
 241:	67 73 00             	addr16 jae 244 <_init-0x80485b4>
 244:	73 74                	jae    2ba <_init-0x804853e>
 246:	64 6f                	outsl  %fs:(%esi),(%dx)
 248:	75 74                	jne    2be <_init-0x804853a>
 24a:	00 5f 49             	add    %bl,0x49(%edi)
 24d:	4f                   	dec    %edi
 24e:	5f                   	pop    %edi
 24f:	6c                   	insb   (%dx),%es:(%edi)
 250:	6f                   	outsl  %ds:(%esi),(%dx)
 251:	63 6b 5f             	arpl   %bp,0x5f(%ebx)
 254:	74 00                	je     256 <_init-0x80485a2>
 256:	2f                   	das    
 257:	68 6f 6d 65 2f       	push   $0x2f656d6f
 25c:	73 6a                	jae    2c8 <_init-0x8048530>
 25e:	74 75                	je     2d5 <_init-0x8048523>
 260:	2d 69 63 73 2d       	sub    $0x2d736369,%eax
 265:	73 76                	jae    2dd <_init-0x804851b>
 267:	6e                   	outsb  %ds:(%esi),(%dx)
 268:	2f                   	das    
 269:	61                   	popa   
 26a:	72 63                	jb     2cf <_init-0x8048529>
 26c:	68 76 69 65 2f       	push   $0x2f656976
 271:	53                   	push   %ebx
 272:	45                   	inc    %ebp
 273:	31 33                	xor    %esi,(%ebx)
 275:	2d 6c 61 62 32       	sub    $0x3262616c,%eax
 27a:	2f                   	das    
 27b:	62 6f 6d             	bound  %ebp,0x6d(%edi)
 27e:	62 6c 61 62          	bound  %ebp,0x62(%ecx,%eiz,2)
 282:	2f                   	das    
 283:	73 72                	jae    2f7 <_init-0x8048501>
 285:	63 00                	arpl   %ax,(%eax)

Disassembly of section .debug_loc:

00000000 <.debug_loc>:
   0:	00 00                	add    %al,(%eax)
   2:	00 00                	add    %al,(%eax)
   4:	5c                   	pop    %esp
   5:	01 00                	add    %eax,(%eax)
   7:	00 02                	add    %al,(%edx)
   9:	00 75 08             	add    %dh,0x8(%ebp)
	...
  18:	16                   	push   %ss
  19:	00 00                	add    %al,(%eax)
  1b:	00 02                	add    %al,(%edx)
  1d:	00 91 00 16 00 00    	add    %dl,0x1600(%ecx)
  23:	00 36                	add    %dh,(%esi)
  25:	00 00                	add    %al,(%eax)
  27:	00 01                	add    %al,(%ecx)
  29:	00 50 36             	add    %dl,0x36(%eax)
  2c:	00 00                	add    %al,(%eax)
  2e:	00 6b 00             	add    %ch,0x0(%ebx)
  31:	00 00                	add    %al,(%eax)
  33:	02 00                	add    (%eax),%al
  35:	75 08                	jne    3f <_init-0x80487b9>
  37:	6b 00 00             	imul   $0x0,(%eax),%eax
  3a:	00 6d 00             	add    %ch,0x0(%ebp)
  3d:	00 00                	add    %al,(%eax)
  3f:	01 00                	add    %eax,(%eax)
  41:	50                   	push   %eax
  42:	6d                   	insl   (%dx),%es:(%edi)
  43:	00 00                	add    %al,(%eax)
  45:	00 5c 01 00          	add    %bl,0x0(%ecx,%eax,1)
  49:	00 02                	add    %al,(%edx)
  4b:	00 75 08             	add    %dh,0x8(%ebp)
	...
  5a:	16                   	push   %ss
  5b:	00 00                	add    %al,(%eax)
  5d:	00 02                	add    %al,(%edx)
  5f:	00 91 04 16 00 00    	add    %dl,0x1604(%ecx)
  65:	00 58 01             	add    %bl,0x1(%eax)
  68:	00 00                	add    %al,(%eax)
  6a:	01 00                	add    %eax,(%eax)
  6c:	56                   	push   %esi
  6d:	58                   	pop    %eax
  6e:	01 00                	add    %eax,(%eax)
  70:	00 5c 01 00          	add    %bl,0x0(%ecx,%eax,1)
  74:	00 02                	add    %al,(%edx)
  76:	00 75 0c             	add    %dh,0xc(%ebp)
	...
  81:	ae                   	scas   %es:(%edi),%al
  82:	00 00                	add    %al,(%eax)
  84:	00 b3 00 00 00 01    	add    %dh,0x1000000(%ebx)
  8a:	00 50 cc             	add    %dl,-0x34(%eax)
  8d:	00 00                	add    %al,(%eax)
  8f:	00 d1                	add    %dl,%cl
  91:	00 00                	add    %al,(%eax)
  93:	00 01                	add    %al,(%ecx)
  95:	00 50 ea             	add    %dl,-0x16(%eax)
  98:	00 00                	add    %al,(%eax)
  9a:	00 ef                	add    %ch,%bh
  9c:	00 00                	add    %al,(%eax)
  9e:	00 01                	add    %al,(%ecx)
  a0:	00 50 08             	add    %dl,0x8(%eax)
  a3:	01 00                	add    %eax,(%eax)
  a5:	00 0d 01 00 00 01    	add    %cl,0x1000001
  ab:	00 50 26             	add    %dl,0x26(%eax)
  ae:	01 00                	add    %eax,(%eax)
  b0:	00 2b                	add    %ch,(%ebx)
  b2:	01 00                	add    %eax,(%eax)
  b4:	00 01                	add    %al,(%ecx)
  b6:	00 50 44             	add    %dl,0x44(%eax)
  b9:	01 00                	add    %eax,(%eax)
  bb:	00 49 01             	add    %cl,0x1(%ecx)
  be:	00 00                	add    %al,(%eax)
  c0:	01 00                	add    %eax,(%eax)
  c2:	50                   	push   %eax
	...

Disassembly of section .debug_ranges:

00000000 <.debug_ranges>:
   0:	ff                   	(bad)  
   1:	ff                   	(bad)  
   2:	ff                   	(bad)  
   3:	ff 00                	incl   (%eax)
   5:	00 00                	add    %al,(%eax)
   7:	00 f8                	add    %bh,%al
   9:	87 04 08             	xchg   %eax,(%eax,%ecx,1)
   c:	1a 88 04 08 6c 9b    	sbb    -0x6493f7fc(%eax),%cl
  12:	04 08                	add    $0x8,%al
  14:	7f 9b                	jg     ffffffb1 <_end+0xf7fb4061>
  16:	04 08                	add    $0x8,%al
	...
  20:	ff                   	(bad)  
  21:	ff                   	(bad)  
  22:	ff                   	(bad)  
  23:	ff 00                	incl   (%eax)
  25:	00 00                	add    %al,(%eax)
  27:	00 24 88             	add    %ah,(%eax,%ecx,4)
  2a:	04 08                	add    $0x8,%al
  2c:	28 88 04 08 84 9b    	sub    %cl,-0x647bf7fc(%eax)
  32:	04 08                	add    $0x8,%al
  34:	88 9b 04 08 00 00    	mov    %bl,0x804(%ebx)
  3a:	00 00                	add    %al,(%eax)
  3c:	00 00                	add    %al,(%eax)
	...
